	.section __DWARF,__debug_frame,regular,debug
Lsection__debug_frame:
	.section __DWARF,__debug_info,regular,debug
Lsection__debug_info:
	.section __DWARF,__debug_abbrev,regular,debug
Lsection__debug_abbrev:
	.section __DWARF,__debug_aranges,regular,debug
Lsection__debug_aranges:
	.section __DWARF,__debug_macinfo,regular,debug
Lsection__debug_macinfo:
	.section __DWARF,__debug_line,regular,debug
Lsection__debug_line:
	.section __DWARF,__debug_loc,regular,debug
Lsection__debug_loc:
	.section __DWARF,__debug_pubnames,regular,debug
Lsection__debug_pubnames:
	.section __DWARF,__debug_pubtypes,regular,debug
Lsection__debug_pubtypes:
	.section __DWARF,__debug_inlined,regular,debug
Lsection__debug_inlined:
	.section __DWARF,__debug_str,regular,debug
Lsection__debug_str:
	.section __DWARF,__debug_ranges,regular,debug
Lsection__debug_ranges:
	.section __DWARF,__debug_abbrev,regular,debug
Ldebug_abbrev0:
	.section __DWARF,__debug_info,regular,debug
Ldebug_info0:
	.section __DWARF,__debug_line,regular,debug
Ldebug_line0:
	.text
Ltext0:
	.mod_init_func
	.align 3
	.quad	__GLOBAL__I__ZN7DavidAIC2E11PLAYERCOLOR
	.section __TEXT,__textcoal_nt,coalesced,pure_instructions
.globl __ZnwmPv
	.weak_definition __ZnwmPv
__ZnwmPv:
LFB243:
	.file 1 "/usr/include/c++/4.2.1/new"
	.loc 1 105 0
	pushq	%rbp
LCFI0:
	movq	%rsp, %rbp
LCFI1:
	movq	%rdi, -8(%rbp)
	movq	%rsi, -16(%rbp)
	.loc 1 105 0
	movq	-16(%rbp), %rax
	leave
	ret
LFE243:
.globl __ZNSt14numeric_limitsItE3maxEv
	.weak_definition __ZNSt14numeric_limitsItE3maxEv
__ZNSt14numeric_limitsItE3maxEv:
LFB565:
	.file 2 "/usr/include/c++/4.2.1/limits"
	.loc 2 631 0
	pushq	%rbp
LCFI2:
	movq	%rsp, %rbp
LCFI3:
	.loc 2 632 0
	movl	$65535, %eax
	leave
	ret
LFE565:
	.align 1
.globl __ZN6EValueC1Ev
	.weak_definition __ZN6EValueC1Ev
__ZN6EValueC1Ev:
LFB1942:
	.file 3 "../localAIs/local/DavidAI_local.h"
	.loc 3 65 0
	pushq	%rbp
LCFI4:
	movq	%rsp, %rbp
LCFI5:
	subq	$16, %rsp
LCFI6:
	movq	%rdi, -8(%rbp)
LBB2:
	.loc 3 67 0
	call	__ZNSt14numeric_limitsItE3maxEv
	movl	%eax, %edx
	shrw	%dx
	movq	-8(%rbp), %rax
	movw	%dx, (%rax)
	movq	-8(%rbp), %rax
	movw	$0, 2(%rax)
LBE2:
	.loc 3 68 0
	leave
	ret
LFE1942:
	.align 1
.globl __ZN6EValue7addRailEv
	.weak_definition __ZN6EValue7addRailEv
__ZN6EValue7addRailEv:
LFB1943:
	.loc 3 70 0
	pushq	%rbp
LCFI7:
	movq	%rsp, %rbp
LCFI8:
	movq	%rdi, -8(%rbp)
	.loc 3 71 0
	movq	-8(%rbp), %rax
	movzwl	2(%rax), %eax
	leal	1(%rax), %edx
	movq	-8(%rbp), %rax
	movw	%dx, 2(%rax)
	.loc 3 72 0
	leave
	ret
LFE1943:
	.align 1
.globl __ZN6EValue13addConnectionEv
	.weak_definition __ZN6EValue13addConnectionEv
__ZN6EValue13addConnectionEv:
LFB1944:
	.loc 3 73 0
	pushq	%rbp
LCFI9:
	movq	%rsp, %rbp
LCFI10:
	movq	%rdi, -8(%rbp)
	.loc 3 74 0
	movq	-8(%rbp), %rax
	movzwl	(%rax), %eax
	leal	1(%rax), %edx
	movq	-8(%rbp), %rax
	movw	%dx, (%rax)
	.loc 3 75 0
	leave
	ret
LFE1944:
	.align 1
.globl __ZN6EValue10addBarrierEv
	.weak_definition __ZN6EValue10addBarrierEv
__ZN6EValue10addBarrierEv:
LFB1945:
	.loc 3 76 0
	pushq	%rbp
LCFI11:
	movq	%rsp, %rbp
LCFI12:
	movq	%rdi, -8(%rbp)
	.loc 3 77 0
	movq	-8(%rbp), %rax
	movzwl	(%rax), %edx
	movq	-8(%rbp), %rax
	movzwl	(%rax), %eax
	andl	$1, %eax
	leal	(%rdx,%rax), %eax
	leal	2(%rax), %edx
	movq	-8(%rbp), %rax
	movw	%dx, (%rax)
	.loc 3 78 0
	leave
	ret
LFE1945:
	.align 1
.globl __ZN6EValue15addCheapBarrierEv
	.weak_definition __ZN6EValue15addCheapBarrierEv
__ZN6EValue15addCheapBarrierEv:
LFB1946:
	.loc 3 79 0
	pushq	%rbp
LCFI13:
	movq	%rsp, %rbp
LCFI14:
	movq	%rdi, -8(%rbp)
	.loc 3 80 0
	movq	-8(%rbp), %rax
	movzwl	(%rax), %eax
	leal	2(%rax), %edx
	movq	-8(%rbp), %rax
	movw	%dx, (%rax)
	.loc 3 81 0
	leave
	ret
LFE1946:
	.align 1
.globl __ZN6EValueaSEj
	.weak_definition __ZN6EValueaSEj
__ZN6EValueaSEj:
LFB1947:
	.loc 3 83 0
	pushq	%rbp
LCFI15:
	movq	%rsp, %rbp
LCFI16:
	movq	%rdi, -8(%rbp)
	movl	%esi, -12(%rbp)
	.loc 3 84 0
	movl	-12(%rbp), %eax
	movl	%eax, %edx
	movq	-8(%rbp), %rax
	movw	%dx, (%rax)
	.loc 3 85 0
	movq	-8(%rbp), %rax
	movl	(%rax), %eax
	.loc 3 86 0
	leave
	ret
LFE1947:
	.align 1
.globl __ZNK6EValuemiERKS_
	.weak_definition __ZNK6EValuemiERKS_
__ZNK6EValuemiERKS_:
LFB1948:
	.loc 3 88 0
	pushq	%rbp
LCFI17:
	movq	%rsp, %rbp
LCFI18:
	subq	$32, %rsp
LCFI19:
	movq	%rdi, -24(%rbp)
	movq	%rsi, -32(%rbp)
LBB3:
	.loc 3 89 0
	leaq	-16(%rbp), %rdi
	call	__ZN6EValueC1Ev
	.loc 3 90 0
	movq	-24(%rbp), %rax
	movzwl	(%rax), %edx
	movq	-32(%rbp), %rax
	movzwl	(%rax), %eax
	movl	%edx, %ecx
	subw	%ax, %cx
	movl	%ecx, %eax
	movw	%ax, -16(%rbp)
	.loc 3 91 0
	movq	-24(%rbp), %rax
	movzwl	2(%rax), %edx
	movq	-32(%rbp), %rax
	movzwl	2(%rax), %eax
	movl	%edx, %ecx
	subw	%ax, %cx
	movl	%ecx, %eax
	movw	%ax, -14(%rbp)
	.loc 3 92 0
	movl	-16(%rbp), %eax
LBE3:
	.loc 3 93 0
	leave
	ret
LFE1948:
	.align 1
.globl __ZNK6EValuegtEj
	.weak_definition __ZNK6EValuegtEj
__ZNK6EValuegtEj:
LFB1949:
	.loc 3 96 0
	pushq	%rbp
LCFI20:
	movq	%rsp, %rbp
LCFI21:
	movq	%rdi, -8(%rbp)
	movl	%esi, -12(%rbp)
	.loc 3 97 0
	movq	-8(%rbp), %rax
	movzwl	(%rax), %eax
	movzwl	%ax, %eax
	cmpl	-12(%rbp), %eax
	seta	%al
	movzbl	%al, %eax
	.loc 3 98 0
	leave
	ret
LFE1949:
	.align 1
.globl __ZNK6EValueeqEj
	.weak_definition __ZNK6EValueeqEj
__ZNK6EValueeqEj:
LFB1950:
	.loc 3 100 0
	pushq	%rbp
LCFI22:
	movq	%rsp, %rbp
LCFI23:
	movq	%rdi, -8(%rbp)
	movl	%esi, -12(%rbp)
	.loc 3 101 0
	movq	-8(%rbp), %rax
	movzwl	(%rax), %eax
	movzwl	%ax, %eax
	cmpl	-12(%rbp), %eax
	sete	%al
	movzbl	%al, %eax
	.loc 3 102 0
	leave
	ret
LFE1950:
	.align 1
.globl __ZNK6EValuegeEj
	.weak_definition __ZNK6EValuegeEj
__ZNK6EValuegeEj:
LFB1951:
	.loc 3 104 0
	pushq	%rbp
LCFI24:
	movq	%rsp, %rbp
LCFI25:
	subq	$16, %rsp
LCFI26:
	movq	%rdi, -8(%rbp)
	movl	%esi, -12(%rbp)
	.loc 3 105 0
	movl	-12(%rbp), %esi
	movq	-8(%rbp), %rdi
	call	__ZNK6EValuegtEj
	testb	%al, %al
	jne	L24
	movl	-12(%rbp), %esi
	movq	-8(%rbp), %rdi
	call	__ZNK6EValueeqEj
	testb	%al, %al
	je	L26
L24:
	movb	$1, -13(%rbp)
	jmp	L27
L26:
	movb	$0, -13(%rbp)
L27:
	movzbl	-13(%rbp), %eax
	.loc 3 106 0
	leave
	ret
LFE1951:
	.align 1
.globl __ZNK6EValueleEj
	.weak_definition __ZNK6EValueleEj
__ZNK6EValueleEj:
LFB1952:
	.loc 3 108 0
	pushq	%rbp
LCFI27:
	movq	%rsp, %rbp
LCFI28:
	subq	$16, %rsp
LCFI29:
	movq	%rdi, -8(%rbp)
	movl	%esi, -12(%rbp)
	.loc 3 109 0
	movl	-12(%rbp), %esi
	movq	-8(%rbp), %rdi
	call	__ZNK6EValuegtEj
	xorl	$1, %eax
	movzbl	%al, %eax
	.loc 3 110 0
	leave
	ret
LFE1952:
	.align 1
.globl __ZNK6EValueltES_
	.weak_definition __ZNK6EValueltES_
__ZNK6EValueltES_:
LFB1953:
	.loc 3 112 0
	pushq	%rbp
LCFI30:
	movq	%rsp, %rbp
LCFI31:
	movq	%rdi, -8(%rbp)
	movl	%esi, -12(%rbp)
	.loc 3 115 0
	movq	-8(%rbp), %rax
	movzwl	(%rax), %eax
	movzwl	%ax, %edx
	movzwl	-12(%rbp), %eax
	movzwl	%ax, %eax
	cmpl	%eax, %edx
	jb	L32
	movq	-8(%rbp), %rax
	movzwl	(%rax), %eax
	movzwl	%ax, %edx
	movzwl	-12(%rbp), %eax
	movzwl	%ax, %eax
	cmpl	%eax, %edx
	jne	L34
	movq	-8(%rbp), %rax
	movzwl	2(%rax), %eax
	movzwl	%ax, %edx
	movzwl	-10(%rbp), %eax
	movzwl	%ax, %eax
	cmpl	%eax, %edx
	jae	L34
L32:
	movb	$1, -13(%rbp)
	jmp	L36
L34:
	movb	$0, -13(%rbp)
L36:
	movzbl	-13(%rbp), %eax
	.loc 3 116 0
	leave
	ret
LFE1953:
	.align 1
.globl __ZNK6EValuegtES_
	.weak_definition __ZNK6EValuegtES_
__ZNK6EValuegtES_:
LFB1954:
	.loc 3 118 0
	pushq	%rbp
LCFI32:
	movq	%rsp, %rbp
LCFI33:
	movq	%rdi, -8(%rbp)
	movl	%esi, -12(%rbp)
	.loc 3 121 0
	movq	-8(%rbp), %rax
	movzwl	(%rax), %eax
	movzwl	%ax, %edx
	movzwl	-12(%rbp), %eax
	movzwl	%ax, %eax
	cmpl	%eax, %edx
	ja	L39
	movq	-8(%rbp), %rax
	movzwl	(%rax), %eax
	movzwl	%ax, %edx
	movzwl	-12(%rbp), %eax
	movzwl	%ax, %eax
	cmpl	%eax, %edx
	jne	L41
	movq	-8(%rbp), %rax
	movzwl	2(%rax), %eax
	movzwl	%ax, %edx
	movzwl	-10(%rbp), %eax
	movzwl	%ax, %eax
	cmpl	%eax, %edx
	jbe	L41
L39:
	movb	$1, -13(%rbp)
	jmp	L43
L41:
	movb	$0, -13(%rbp)
L43:
	movzbl	-13(%rbp), %eax
	.loc 3 122 0
	leave
	ret
LFE1954:
	.align 1
.globl __ZNK6EValueleES_
	.weak_definition __ZNK6EValueleES_
__ZNK6EValueleES_:
LFB1955:
	.loc 3 124 0
	pushq	%rbp
LCFI34:
	movq	%rsp, %rbp
LCFI35:
	subq	$16, %rsp
LCFI36:
	movq	%rdi, -8(%rbp)
	movl	%esi, -12(%rbp)
	.loc 3 125 0
	movl	-12(%rbp), %esi
	movq	-8(%rbp), %rdi
	call	__ZNK6EValuegtES_
	xorl	$1, %eax
	movzbl	%al, %eax
	.loc 3 126 0
	leave
	ret
LFE1955:
	.text
	.align 1,0x90
.globl __ZN7DavidAI27gatherInformationEndOfRoundEPK11RoundLogger
__ZN7DavidAI27gatherInformationEndOfRoundEPK11RoundLogger:
LFB2064:
	.file 4 "../localAIs/local/DavidAI_local.cpp"
	.loc 4 141 0
	pushq	%rbp
LCFI37:
	movq	%rsp, %rbp
LCFI38:
	movq	%rdi, -8(%rbp)
	movq	%rsi, -16(%rbp)
	.loc 4 142 0
	leave
	ret
LFE2064:
	.section __TEXT,__textcoal_nt,coalesced,pure_instructions
	.align 1
.globl __ZN6VectoraSERKS_
	.weak_definition __ZN6VectoraSERKS_
__ZN6VectoraSERKS_:
LFB2066:
	.file 5 "../localAIs/local/../../hdr/game/Vector.h"
	.loc 5 29 0
	pushq	%rbp
LCFI39:
	movq	%rsp, %rbp
LCFI40:
	movq	%rdi, -8(%rbp)
	movq	%rsi, -16(%rbp)
	.loc 5 29 0
	movq	-16(%rbp), %rax
	movzwl	8(%rax), %edx
	movq	-8(%rbp), %rax
	movw	%dx, 8(%rax)
	movq	-16(%rbp), %rax
	movzwl	10(%rax), %edx
	movq	-8(%rbp), %rax
	movw	%dx, 10(%rax)
	movq	-8(%rbp), %rax
	leave
	ret
LFE2066:
.globl __ZSt3minImERKT_S2_S2_
	.weak_definition __ZSt3minImERKT_S2_S2_
__ZSt3minImERKT_S2_S2_:
LFB2071:
	.file 6 "/usr/include/c++/4.2.1/bits/stl_algobase.h"
	.loc 6 182 0
	pushq	%rbp
LCFI41:
	movq	%rsp, %rbp
LCFI42:
	movq	%rdi, -8(%rbp)
	movq	%rsi, -16(%rbp)
	.loc 6 187 0
	movq	-16(%rbp), %rax
	movq	(%rax), %rdx
	movq	-8(%rbp), %rax
	movq	(%rax), %rax
	cmpq	%rax, %rdx
	jae	L52
	.loc 6 188 0
	movq	-16(%rbp), %rax
	movq	%rax, -24(%rbp)
	jmp	L54
L52:
	.loc 6 189 0
	movq	-8(%rbp), %rax
	movq	%rax, -24(%rbp)
L54:
	movq	-24(%rbp), %rax
	leave
	ret
LFE2071:
	.text
__ZStL17__verify_groupingPKcmRKSs:
LFB1619:
	.file 7 "/usr/include/c++/4.2.1/bits/locale_facets.tcc"
	.loc 7 2558 0
	pushq	%rbp
LCFI43:
	movq	%rsp, %rbp
LCFI44:
	pushq	%rbx
LCFI45:
	subq	$88, %rsp
LCFI46:
	movq	%rdi, -72(%rbp)
	movq	%rsi, -80(%rbp)
	movq	%rdx, -88(%rbp)
LBB4:
	.loc 7 2560 0
	movq	-88(%rbp), %rdi
	call	__ZNKSs4sizeEv
	decq	%rax
	movq	%rax, -32(%rbp)
	.loc 7 2561 0
	movq	-80(%rbp), %rax
	decq	%rax
	movq	%rax, -48(%rbp)
	leaq	-48(%rbp), %rsi
	leaq	-32(%rbp), %rdi
	call	__ZSt3minImERKT_S2_S2_
	movq	(%rax), %rax
	movq	%rax, -40(%rbp)
	.loc 7 2562 0
	movq	-32(%rbp), %rax
	movq	%rax, -56(%rbp)
	.loc 7 2563 0
	movb	$1, -17(%rbp)
LBB5:
	.loc 7 2568 0
	movq	$0, -64(%rbp)
	jmp	L57
L58:
	.loc 7 2569 0
	movq	-56(%rbp), %rsi
	movq	-88(%rbp), %rdi
	call	__ZNKSsixEm
	movzbl	(%rax), %edx
	movq	-64(%rbp), %rax
	addq	-72(%rbp), %rax
	movzbl	(%rax), %eax
	cmpb	%al, %dl
	sete	%al
	movb	%al, -17(%rbp)
	.loc 7 2568 0
	decq	-56(%rbp)
	incq	-64(%rbp)
L57:
	movq	-64(%rbp), %rax
	cmpq	-40(%rbp), %rax
	jae	L61
	cmpb	$0, -17(%rbp)
	jne	L58
	.loc 7 2570 0
	jmp	L61
L62:
LBE5:
	.loc 7 2571 0
	movq	-56(%rbp), %rsi
	movq	-88(%rbp), %rdi
	call	__ZNKSsixEm
	movzbl	(%rax), %edx
	movq	-40(%rbp), %rax
	addq	-72(%rbp), %rax
	movzbl	(%rax), %eax
	cmpb	%al, %dl
	sete	%al
	movb	%al, -17(%rbp)
	.loc 7 2570 0
	decq	-56(%rbp)
L61:
	cmpq	$0, -56(%rbp)
	je	L63
	cmpb	$0, -17(%rbp)
	jne	L62
L63:
	.loc 7 2575 0
	movq	-40(%rbp), %rax
	addq	-72(%rbp), %rax
	movzbl	(%rax), %eax
	testb	%al, %al
	jle	L65
	.loc 7 2576 0
	movzbl	-17(%rbp), %ebx
	movq	-88(%rbp), %rdi
	movl	$0, %esi
	call	__ZNKSsixEm
	movzbl	(%rax), %edx
	movq	-40(%rbp), %rax
	addq	-72(%rbp), %rax
	movzbl	(%rax), %eax
	cmpb	%al, %dl
	setle	%al
	movzbl	%al, %eax
	andl	%ebx, %eax
	testl	%eax, %eax
	setne	%al
	movb	%al, -17(%rbp)
L65:
	.loc 7 2577 0
	movzbl	-17(%rbp), %eax
LBE4:
	.loc 7 2578 0
	addq	$88, %rsp
	popq	%rbx
	leave
	ret
LFE1619:
	.section __TEXT,__textcoal_nt,coalesced,pure_instructions
	.align 1
.globl __ZNSt15binary_functionI6EValueS0_bEC2Ev
	.weak_definition __ZNSt15binary_functionI6EValueS0_bEC2Ev
__ZNSt15binary_functionI6EValueS0_bEC2Ev:
LFB2095:
	.file 8 "/usr/include/c++/4.2.1/bits/stl_function.h"
	.loc 8 115 0
	pushq	%rbp
LCFI47:
	movq	%rsp, %rbp
LCFI48:
	movq	%rdi, -8(%rbp)
	.loc 8 115 0
	leave
	ret
LFE2095:
	.align 1
.globl __ZNSt4lessI6EValueEC1Ev
	.weak_definition __ZNSt4lessI6EValueEC1Ev
__ZNSt4lessI6EValueEC1Ev:
LFB2098:
	.loc 8 224 0
	pushq	%rbp
LCFI49:
	movq	%rsp, %rbp
LCFI50:
	subq	$16, %rsp
LCFI51:
	movq	%rdi, -8(%rbp)
LBB6:
	.loc 8 224 0
	movq	-8(%rbp), %rdi
	call	__ZNSt15binary_functionI6EValueS0_bEC2Ev
LBE6:
	leave
	ret
LFE2098:
	.align 1
.globl __ZNSt4pairI6EValuePK4CityEC1ERKS0_RKS3_
	.weak_definition __ZNSt4pairI6EValuePK4CityEC1ERKS0_RKS3_
__ZNSt4pairI6EValuePK4CityEC1ERKS0_RKS3_:
LFB2109:
	.file 9 "/usr/include/c++/4.2.1/bits/stl_pair.h"
	.loc 9 84 0
	pushq	%rbp
LCFI52:
	movq	%rsp, %rbp
LCFI53:
	movq	%rdi, -8(%rbp)
	movq	%rsi, -16(%rbp)
	movq	%rdx, -24(%rbp)
LBB7:
	.loc 9 85 0
	movq	-16(%rbp), %rax
	movl	(%rax), %edx
	movq	-8(%rbp), %rax
	movl	%edx, (%rax)
	movq	-24(%rbp), %rax
	movq	(%rax), %rdx
	movq	-8(%rbp), %rax
	movq	%rdx, 8(%rax)
LBE7:
	leave
	ret
LFE2109:
	.align 1
.globl __ZNSt4pairIK6EValuePK4CityEC1IS0_S4_EERKS_IT_T0_E
	.weak_definition __ZNSt4pairIK6EValuePK4CityEC1IS0_S4_EERKS_IT_T0_E
__ZNSt4pairIK6EValuePK4CityEC1IS0_S4_EERKS_IT_T0_E:
LFB2112:
	.loc 9 89 0
	pushq	%rbp
LCFI54:
	movq	%rsp, %rbp
LCFI55:
	movq	%rdi, -8(%rbp)
	movq	%rsi, -16(%rbp)
LBB8:
	.loc 9 90 0
	movq	-16(%rbp), %rax
	movl	(%rax), %edx
	movq	-8(%rbp), %rax
	movl	%edx, (%rax)
	movq	-16(%rbp), %rax
	movq	8(%rax), %rdx
	movq	-8(%rbp), %rax
	movq	%rdx, 8(%rax)
LBE8:
	leave
	ret
LFE2112:
	.align 1
.globl __ZNKSt17_Rb_tree_iteratorISt4pairIK6EValuePK4CityEEptEv
	.weak_definition __ZNKSt17_Rb_tree_iteratorISt4pairIK6EValuePK4CityEEptEv
__ZNKSt17_Rb_tree_iteratorISt4pairIK6EValuePK4CityEEptEv:
LFB2116:
	.file 10 "/usr/include/c++/4.2.1/bits/stl_tree.h"
	.loc 10 179 0
	pushq	%rbp
LCFI56:
	movq	%rsp, %rbp
LCFI57:
	movq	%rdi, -8(%rbp)
	.loc 10 180 0
	movq	-8(%rbp), %rax
	movq	(%rax), %rax
	addq	$32, %rax
	leave
	ret
LFE2116:
	.align 1
.globl __ZNKSt6vectorIPK10ConnectionSaIS2_EE4sizeEv
	.weak_definition __ZNKSt6vectorIPK10ConnectionSaIS2_EE4sizeEv
__ZNKSt6vectorIPK10ConnectionSaIS2_EE4sizeEv:
LFB2124:
	.file 11 "/usr/include/c++/4.2.1/bits/stl_vector.h"
	.loc 11 399 0
	pushq	%rbp
LCFI58:
	movq	%rsp, %rbp
LCFI59:
	movq	%rdi, -8(%rbp)
	.loc 11 400 0
	movq	-8(%rbp), %rax
	movq	8(%rax), %rax
	movq	%rax, %rdx
	movq	-8(%rbp), %rax
	movq	(%rax), %rax
	movq	%rdx, %rcx
	subq	%rax, %rcx
	movq	%rcx, %rax
	sarq	$3, %rax
	leave
	ret
LFE2124:
	.align 1
.globl __ZNSt6vectorIPK10ConnectionSaIS2_EEixEm
	.weak_definition __ZNSt6vectorIPK10ConnectionSaIS2_EEixEm
__ZNSt6vectorIPK10ConnectionSaIS2_EEixEm:
LFB2125:
	.loc 11 477 0
	pushq	%rbp
LCFI60:
	movq	%rsp, %rbp
LCFI61:
	movq	%rdi, -8(%rbp)
	movq	%rsi, -16(%rbp)
	.loc 11 478 0
	movq	-8(%rbp), %rax
	movq	(%rax), %rdx
	movq	-16(%rbp), %rax
	salq	$3, %rax
	leaq	(%rdx,%rax), %rax
	leave
	ret
LFE2125:
	.align 1
.globl __ZN9__gnu_cxx17__normal_iteratorIPPK10CoordinateSt6vectorIS3_SaIS3_EEEC1Ev
	.weak_definition __ZN9__gnu_cxx17__normal_iteratorIPPK10CoordinateSt6vectorIS3_SaIS3_EEEC1Ev
__ZN9__gnu_cxx17__normal_iteratorIPPK10CoordinateSt6vectorIS3_SaIS3_EEEC1Ev:
LFB2146:
	.file 12 "/usr/include/c++/4.2.1/bits/stl_iterator.h"
	.loc 12 650 0
	pushq	%rbp
LCFI62:
	movq	%rsp, %rbp
LCFI63:
	movq	%rdi, -8(%rbp)
LBB9:
	.loc 12 650 0
	movq	-8(%rbp), %rax
	movq	$0, (%rax)
LBE9:
	leave
	ret
LFE2146:
	.align 1
.globl __ZNKSt6vectorIPK10CoordinateSaIS2_EE4sizeEv
	.weak_definition __ZNKSt6vectorIPK10CoordinateSaIS2_EE4sizeEv
__ZNKSt6vectorIPK10CoordinateSaIS2_EE4sizeEv:
LFB2147:
	.loc 11 399 0
	pushq	%rbp
LCFI64:
	movq	%rsp, %rbp
LCFI65:
	movq	%rdi, -8(%rbp)
	.loc 11 400 0
	movq	-8(%rbp), %rax
	movq	8(%rax), %rax
	movq	%rax, %rdx
	movq	-8(%rbp), %rax
	movq	(%rax), %rax
	movq	%rdx, %rcx
	subq	%rax, %rcx
	movq	%rcx, %rax
	sarq	$3, %rax
	leave
	ret
LFE2147:
	.align 1
.globl __ZNK9__gnu_cxx17__normal_iteratorIPPK10CoordinateSt6vectorIS3_SaIS3_EEEdeEv
	.weak_definition __ZNK9__gnu_cxx17__normal_iteratorIPPK10CoordinateSt6vectorIS3_SaIS3_EEEdeEv
__ZNK9__gnu_cxx17__normal_iteratorIPPK10CoordinateSt6vectorIS3_SaIS3_EEEdeEv:
LFB2152:
	.loc 12 665 0
	pushq	%rbp
LCFI66:
	movq	%rsp, %rbp
LCFI67:
	movq	%rdi, -8(%rbp)
	.loc 12 666 0
	movq	-8(%rbp), %rax
	movq	(%rax), %rax
	leave
	ret
LFE2152:
	.align 1
.globl __ZNSt8_Rb_treeI6EValueSt4pairIKS0_PK4CityESt10_Select1stIS6_ESt4lessIS0_ESaIS6_EE8_M_beginEv
	.weak_definition __ZNSt8_Rb_treeI6EValueSt4pairIKS0_PK4CityESt10_Select1stIS6_ESt4lessIS0_ESaIS6_EE8_M_beginEv
__ZNSt8_Rb_treeI6EValueSt4pairIKS0_PK4CityESt10_Select1stIS6_ESt4lessIS0_ESaIS6_EE8_M_beginEv:
LFB2203:
	.loc 10 476 0
	pushq	%rbp
LCFI68:
	movq	%rsp, %rbp
LCFI69:
	movq	%rdi, -8(%rbp)
	.loc 10 477 0
	movq	-8(%rbp), %rax
	movq	16(%rax), %rax
	leave
	ret
LFE2203:
	.align 1
.globl __ZNSt14unary_functionISt4pairIK6EValuePK4CityES2_EC2Ev
	.weak_definition __ZNSt14unary_functionISt4pairIK6EValuePK4CityES2_EC2Ev
__ZNSt14unary_functionISt4pairIK6EValuePK4CityES2_EC2Ev:
LFB2207:
	.loc 8 103 0
	pushq	%rbp
LCFI70:
	movq	%rsp, %rbp
LCFI71:
	movq	%rdi, -8(%rbp)
	.loc 8 103 0
	leave
	ret
LFE2207:
	.align 1
.globl __ZNSt10_Select1stISt4pairIK6EValuePK4CityEEC1Ev
	.weak_definition __ZNSt10_Select1stISt4pairIK6EValuePK4CityEEC1Ev
__ZNSt10_Select1stISt4pairIK6EValuePK4CityEEC1Ev:
LFB2210:
	.loc 8 544 0
	pushq	%rbp
LCFI72:
	movq	%rsp, %rbp
LCFI73:
	subq	$16, %rsp
LCFI74:
	movq	%rdi, -8(%rbp)
LBB10:
	.loc 8 544 0
	movq	-8(%rbp), %rdi
	call	__ZNSt14unary_functionISt4pairIK6EValuePK4CityES2_EC2Ev
LBE10:
	leave
	ret
LFE2210:
	.align 1
.globl __ZNKSt8_Rb_treeI6EValueSt4pairIKS0_PK4CityESt10_Select1stIS6_ESt4lessIS0_ESaIS6_EE4sizeEv
	.weak_definition __ZNKSt8_Rb_treeI6EValueSt4pairIKS0_PK4CityESt10_Select1stIS6_ESt4lessIS0_ESaIS6_EE4sizeEv
__ZNKSt8_Rb_treeI6EValueSt4pairIKS0_PK4CityESt10_Select1stIS6_ESt4lessIS0_ESaIS6_EE4sizeEv:
LFB2211:
	.loc 10 650 0
	pushq	%rbp
LCFI75:
	movq	%rsp, %rbp
LCFI76:
	movq	%rdi, -8(%rbp)
	.loc 10 651 0
	movq	-8(%rbp), %rax
	movq	40(%rax), %rax
	leave
	ret
LFE2211:
	.align 1
.globl __ZNKSt8multimapI6EValuePK4CitySt4lessIS0_ESaISt4pairIKS0_S3_EEE4sizeEv
	.weak_definition __ZNKSt8multimapI6EValuePK4CitySt4lessIS0_ESaISt4pairIKS0_S3_EEE4sizeEv
__ZNKSt8multimapI6EValuePK4CitySt4lessIS0_ESaISt4pairIKS0_S3_EEE4sizeEv:
LFB2114:
	.file 13 "/usr/include/c++/4.2.1/bits/stl_multimap.h"
	.loc 13 317 0
	pushq	%rbp
LCFI77:
	movq	%rsp, %rbp
LCFI78:
	subq	$16, %rsp
LCFI79:
	movq	%rdi, -8(%rbp)
	.loc 13 318 0
	movq	-8(%rbp), %rdi
	call	__ZNKSt8_Rb_treeI6EValueSt4pairIKS0_PK4CityESt10_Select1stIS6_ESt4lessIS0_ESaIS6_EE4sizeEv
	leave
	ret
LFE2114:
	.align 1
.globl __ZNSt12_Vector_baseIPK10ConnectionSaIS2_EE19_M_get_Tp_allocatorEv
	.weak_definition __ZNSt12_Vector_baseIPK10ConnectionSaIS2_EE19_M_get_Tp_allocatorEv
__ZNSt12_Vector_baseIPK10ConnectionSaIS2_EE19_M_get_Tp_allocatorEv:
LFB2219:
	.loc 11 96 0
	pushq	%rbp
LCFI80:
	movq	%rsp, %rbp
LCFI81:
	movq	%rdi, -8(%rbp)
	.loc 11 97 0
	movq	-8(%rbp), %rax
	leave
	ret
LFE2219:
	.align 1
.globl __ZNKSt12_Vector_baseIPK10ConnectionSaIS2_EE19_M_get_Tp_allocatorEv
	.weak_definition __ZNKSt12_Vector_baseIPK10ConnectionSaIS2_EE19_M_get_Tp_allocatorEv
__ZNKSt12_Vector_baseIPK10ConnectionSaIS2_EE19_M_get_Tp_allocatorEv:
LFB2221:
	.loc 11 100 0
	pushq	%rbp
LCFI82:
	movq	%rsp, %rbp
LCFI83:
	movq	%rdi, -8(%rbp)
	.loc 11 101 0
	movq	-8(%rbp), %rax
	leave
	ret
LFE2221:
	.align 1
.globl __ZNKSt6vectorIPK10ConnectionSaIS2_EE8capacityEv
	.weak_definition __ZNKSt6vectorIPK10ConnectionSaIS2_EE8capacityEv
__ZNKSt6vectorIPK10ConnectionSaIS2_EE8capacityEv:
LFB2229:
	.loc 11 432 0
	pushq	%rbp
LCFI84:
	movq	%rsp, %rbp
LCFI85:
	movq	%rdi, -8(%rbp)
	.loc 11 434 0
	movq	-8(%rbp), %rax
	movq	16(%rax), %rax
	movq	%rax, %rdx
	movq	-8(%rbp), %rax
	movq	(%rax), %rax
	movq	%rdx, %rcx
	subq	%rax, %rcx
	movq	%rcx, %rax
	sarq	$3, %rax
	leave
	ret
LFE2229:
	.align 1
.globl __ZN9__gnu_cxx13new_allocatorIPK10CoordinateEC2Ev
	.weak_definition __ZN9__gnu_cxx13new_allocatorIPK10CoordinateEC2Ev
__ZN9__gnu_cxx13new_allocatorIPK10CoordinateEC2Ev:
LFB2237:
	.file 14 "/usr/include/c++/4.2.1/ext/new_allocator.h"
	.loc 14 68 0
	pushq	%rbp
LCFI86:
	movq	%rsp, %rbp
LCFI87:
	movq	%rdi, -8(%rbp)
	.loc 14 68 0
	leave
	ret
LFE2237:
	.align 1
.globl __ZNSaIPK10CoordinateEC1Ev
	.weak_definition __ZNSaIPK10CoordinateEC1Ev
__ZNSaIPK10CoordinateEC1Ev:
LFB2130:
	.file 15 "/usr/include/c++/4.2.1/bits/allocator.h"
	.loc 15 100 0
	pushq	%rbp
LCFI88:
	movq	%rsp, %rbp
LCFI89:
	subq	$16, %rsp
LCFI90:
	movq	%rdi, -8(%rbp)
	.loc 15 100 0
	movq	-8(%rbp), %rdi
	call	__ZN9__gnu_cxx13new_allocatorIPK10CoordinateEC2Ev
	leave
	ret
LFE2130:
	.align 1
.globl __ZN9__gnu_cxx13new_allocatorIPK10CoordinateED2Ev
	.weak_definition __ZN9__gnu_cxx13new_allocatorIPK10CoordinateED2Ev
__ZN9__gnu_cxx13new_allocatorIPK10CoordinateED2Ev:
LFB2240:
	.loc 14 75 0
	pushq	%rbp
LCFI91:
	movq	%rsp, %rbp
LCFI92:
	movq	%rdi, -8(%rbp)
	.loc 14 75 0
	leave
	ret
LFE2240:
	.align 1
.globl __ZNSaIPK10CoordinateED1Ev
	.weak_definition __ZNSaIPK10CoordinateED1Ev
__ZNSaIPK10CoordinateED1Ev:
LFB2133:
	.loc 15 108 0
	pushq	%rbp
LCFI93:
	movq	%rsp, %rbp
LCFI94:
	subq	$16, %rsp
LCFI95:
	movq	%rdi, -8(%rbp)
	.loc 15 108 0
	movq	-8(%rbp), %rdi
	call	__ZN9__gnu_cxx13new_allocatorIPK10CoordinateED2Ev
	leave
	ret
LFE2133:
	.align 1
.globl __ZNSaIPK10CoordinateED2Ev
	.weak_definition __ZNSaIPK10CoordinateED2Ev
__ZNSaIPK10CoordinateED2Ev:
LFB2132:
	.loc 15 108 0
	pushq	%rbp
LCFI96:
	movq	%rsp, %rbp
LCFI97:
	subq	$16, %rsp
LCFI98:
	movq	%rdi, -8(%rbp)
	.loc 15 108 0
	movq	-8(%rbp), %rdi
	call	__ZN9__gnu_cxx13new_allocatorIPK10CoordinateED2Ev
	leave
	ret
LFE2132:
	.align 1
.globl __ZN9__gnu_cxx13new_allocatorIPK10CoordinateEC2ERKS4_
	.weak_definition __ZN9__gnu_cxx13new_allocatorIPK10CoordinateEC2ERKS4_
__ZN9__gnu_cxx13new_allocatorIPK10CoordinateEC2ERKS4_:
LFB2243:
	.loc 14 70 0
	pushq	%rbp
LCFI99:
	movq	%rsp, %rbp
LCFI100:
	movq	%rdi, -8(%rbp)
	movq	%rsi, -16(%rbp)
	.loc 14 70 0
	leave
	ret
LFE2243:
	.align 1
.globl __ZNSaIPK10CoordinateEC1ERKS2_
	.weak_definition __ZNSaIPK10CoordinateEC1ERKS2_
__ZNSaIPK10CoordinateEC1ERKS2_:
LFB2136:
	.loc 15 102 0
	pushq	%rbp
LCFI101:
	movq	%rsp, %rbp
LCFI102:
	subq	$16, %rsp
LCFI103:
	movq	%rdi, -8(%rbp)
	movq	%rsi, -16(%rbp)
	.loc 15 103 0
	movq	-16(%rbp), %rsi
	movq	-8(%rbp), %rdi
	call	__ZN9__gnu_cxx13new_allocatorIPK10CoordinateEC2ERKS4_
	leave
	ret
LFE2136:
	.align 1
.globl __ZNSaIPK10CoordinateEC2ERKS2_
	.weak_definition __ZNSaIPK10CoordinateEC2ERKS2_
__ZNSaIPK10CoordinateEC2ERKS2_:
LFB2135:
	.loc 15 102 0
	pushq	%rbp
LCFI104:
	movq	%rsp, %rbp
LCFI105:
	subq	$16, %rsp
LCFI106:
	movq	%rdi, -8(%rbp)
	movq	%rsi, -16(%rbp)
	.loc 15 103 0
	movq	-16(%rbp), %rsi
	movq	-8(%rbp), %rdi
	call	__ZN9__gnu_cxx13new_allocatorIPK10CoordinateEC2ERKS4_
	leave
	ret
LFE2135:
	.align 1
.globl __ZNSt12_Vector_baseIPK10CoordinateSaIS2_EE12_Vector_implD1Ev
	.weak_definition __ZNSt12_Vector_baseIPK10CoordinateSaIS2_EE12_Vector_implD1Ev
__ZNSt12_Vector_baseIPK10CoordinateSaIS2_EE12_Vector_implD1Ev:
LFB2248:
	.loc 11 83 0
	pushq	%rbp
LCFI107:
	movq	%rsp, %rbp
LCFI108:
	subq	$16, %rsp
LCFI109:
	movq	%rdi, -8(%rbp)
	.loc 11 83 0
	movq	-8(%rbp), %rdi
	call	__ZNSaIPK10CoordinateED2Ev
	leave
	ret
LFE2248:
	.align 1
.globl __ZNSt12_Vector_baseIPK10CoordinateSaIS2_EE19_M_get_Tp_allocatorEv
	.weak_definition __ZNSt12_Vector_baseIPK10CoordinateSaIS2_EE19_M_get_Tp_allocatorEv
__ZNSt12_Vector_baseIPK10CoordinateSaIS2_EE19_M_get_Tp_allocatorEv:
LFB2254:
	.loc 11 96 0
	pushq	%rbp
LCFI110:
	movq	%rsp, %rbp
LCFI111:
	movq	%rdi, -8(%rbp)
	.loc 11 97 0
	movq	-8(%rbp), %rax
	leave
	ret
LFE2254:
	.align 1
.globl __ZN9__gnu_cxx13new_allocatorIPK10CoordinateE9constructEPS3_RKS3_
	.weak_definition __ZN9__gnu_cxx13new_allocatorIPK10CoordinateE9constructEPS3_RKS3_
__ZN9__gnu_cxx13new_allocatorIPK10CoordinateE9constructEPS3_RKS3_:
LFB2256:
	.loc 14 106 0
	pushq	%rbp
LCFI112:
	movq	%rsp, %rbp
LCFI113:
	subq	$32, %rsp
LCFI114:
	movq	%rdi, -8(%rbp)
	movq	%rsi, -16(%rbp)
	movq	%rdx, -24(%rbp)
	.loc 14 107 0
	movq	-16(%rbp), %rsi
	movl	$8, %edi
	call	__ZnwmPv
	movq	%rax, -32(%rbp)
	cmpq	$0, -32(%rbp)
	je	L132
	movq	-24(%rbp), %rax
	movq	(%rax), %rax
	movq	-32(%rbp), %rdx
	movq	%rax, (%rdx)
L132:
	leave
	ret
LFE2256:
	.align 1
.globl __ZN9__gnu_cxx17__normal_iteratorIPPK10CoordinateSt6vectorIS3_SaIS3_EEEC1ERKS4_
	.weak_definition __ZN9__gnu_cxx17__normal_iteratorIPPK10CoordinateSt6vectorIS3_SaIS3_EEEC1ERKS4_
__ZN9__gnu_cxx17__normal_iteratorIPPK10CoordinateSt6vectorIS3_SaIS3_EEEC1ERKS4_:
LFB2260:
	.loc 12 653 0
	pushq	%rbp
LCFI115:
	movq	%rsp, %rbp
LCFI116:
	movq	%rdi, -8(%rbp)
	movq	%rsi, -16(%rbp)
LBB11:
	.loc 12 653 0
	movq	-16(%rbp), %rax
	movq	(%rax), %rdx
	movq	-8(%rbp), %rax
	movq	%rdx, (%rax)
LBE11:
	leave
	ret
LFE2260:
	.align 1
.globl __ZNSt6vectorIPK10CoordinateSaIS2_EE3endEv
	.weak_definition __ZNSt6vectorIPK10CoordinateSaIS2_EE3endEv
__ZNSt6vectorIPK10CoordinateSaIS2_EE3endEv:
LFB2149:
	.loc 11 348 0
	pushq	%rbp
LCFI117:
	movq	%rsp, %rbp
LCFI118:
	subq	$32, %rsp
LCFI119:
	movq	%rdi, -24(%rbp)
	.loc 11 349 0
	movq	-24(%rbp), %rsi
	addq	$8, %rsi
	leaq	-16(%rbp), %rdi
	call	__ZN9__gnu_cxx17__normal_iteratorIPPK10CoordinateSt6vectorIS3_SaIS3_EEEC1ERKS4_
	movq	-16(%rbp), %rax
	leave
	ret
LFE2149:
	.align 1
.globl __ZNSt6vectorIPK10CoordinateSaIS2_EE5beginEv
	.weak_definition __ZNSt6vectorIPK10CoordinateSaIS2_EE5beginEv
__ZNSt6vectorIPK10CoordinateSaIS2_EE5beginEv:
LFB2148:
	.loc 11 330 0
	pushq	%rbp
LCFI120:
	movq	%rsp, %rbp
LCFI121:
	subq	$32, %rsp
LCFI122:
	movq	%rdi, -24(%rbp)
	.loc 11 331 0
	movq	-24(%rbp), %rsi
	leaq	-16(%rbp), %rdi
	call	__ZN9__gnu_cxx17__normal_iteratorIPPK10CoordinateSt6vectorIS3_SaIS3_EEEC1ERKS4_
	movq	-16(%rbp), %rax
	leave
	ret
LFE2148:
	.align 1
.globl __ZN9__gnu_cxx17__normal_iteratorIPPK10CoordinateSt6vectorIS3_SaIS3_EEEppEi
	.weak_definition __ZN9__gnu_cxx17__normal_iteratorIPPK10CoordinateSt6vectorIS3_SaIS3_EEEppEi
__ZN9__gnu_cxx17__normal_iteratorIPPK10CoordinateSt6vectorIS3_SaIS3_EEEppEi:
LFB2151:
	.loc 12 680 0
	pushq	%rbp
LCFI123:
	movq	%rsp, %rbp
LCFI124:
	subq	$32, %rsp
LCFI125:
	movq	%rdi, -24(%rbp)
	movl	%esi, -28(%rbp)
	.loc 12 681 0
	movq	-24(%rbp), %rax
	movq	(%rax), %rax
	movq	%rax, -8(%rbp)
	leaq	-8(%rbp), %rsi
	leaq	8(%rax), %rdx
	movq	-24(%rbp), %rax
	movq	%rdx, (%rax)
	leaq	-16(%rbp), %rdi
	call	__ZN9__gnu_cxx17__normal_iteratorIPPK10CoordinateSt6vectorIS3_SaIS3_EEEC1ERKS4_
	movq	-16(%rbp), %rax
	leave
	ret
LFE2151:
	.align 1
.globl __ZNK9__gnu_cxx17__normal_iteratorIPPK10CoordinateSt6vectorIS3_SaIS3_EEE4baseEv
	.weak_definition __ZNK9__gnu_cxx17__normal_iteratorIPPK10CoordinateSt6vectorIS3_SaIS3_EEE4baseEv
__ZNK9__gnu_cxx17__normal_iteratorIPPK10CoordinateSt6vectorIS3_SaIS3_EEE4baseEv:
LFB2261:
	.loc 12 717 0
	pushq	%rbp
LCFI126:
	movq	%rsp, %rbp
LCFI127:
	movq	%rdi, -8(%rbp)
	.loc 12 718 0
	movq	-8(%rbp), %rax
	leave
	ret
LFE2261:
.globl __ZN9__gnu_cxxneIPPK10CoordinateSt6vectorIS3_SaIS3_EEEEbRKNS_17__normal_iteratorIT_T0_EESD_
	.weak_definition __ZN9__gnu_cxxneIPPK10CoordinateSt6vectorIS3_SaIS3_EEEEbRKNS_17__normal_iteratorIT_T0_EESD_
__ZN9__gnu_cxxneIPPK10CoordinateSt6vectorIS3_SaIS3_EEEEbRKNS_17__normal_iteratorIT_T0_EESD_:
LFB2150:
	.loc 12 751 0
	pushq	%rbp
LCFI128:
	movq	%rsp, %rbp
LCFI129:
	pushq	%rbx
LCFI130:
	subq	$24, %rsp
LCFI131:
	movq	%rdi, -24(%rbp)
	movq	%rsi, -32(%rbp)
	.loc 12 752 0
	movq	-24(%rbp), %rdi
	call	__ZNK9__gnu_cxx17__normal_iteratorIPPK10CoordinateSt6vectorIS3_SaIS3_EEE4baseEv
	movq	(%rax), %rbx
	movq	-32(%rbp), %rdi
	call	__ZNK9__gnu_cxx17__normal_iteratorIPPK10CoordinateSt6vectorIS3_SaIS3_EEE4baseEv
	movq	(%rax), %rax
	cmpq	%rax, %rbx
	setne	%al
	movzbl	%al, %eax
	addq	$24, %rsp
	popq	%rbx
	leave
	ret
LFE2150:
	.align 1
.globl __ZNKSt6vectorIPK10CoordinateSaIS2_EE8capacityEv
	.weak_definition __ZNKSt6vectorIPK10CoordinateSaIS2_EE8capacityEv
__ZNKSt6vectorIPK10CoordinateSaIS2_EE8capacityEv:
LFB2262:
	.loc 11 432 0
	pushq	%rbp
LCFI132:
	movq	%rsp, %rbp
LCFI133:
	movq	%rdi, -8(%rbp)
	.loc 11 434 0
	movq	-8(%rbp), %rax
	movq	16(%rax), %rax
	movq	%rax, %rdx
	movq	-8(%rbp), %rax
	movq	(%rax), %rax
	movq	%rdx, %rcx
	subq	%rax, %rcx
	movq	%rcx, %rax
	sarq	$3, %rax
	leave
	ret
LFE2262:
	.align 1
.globl __ZN9__gnu_cxx13new_allocatorIPK10ConnectionEC2Ev
	.weak_definition __ZN9__gnu_cxx13new_allocatorIPK10ConnectionEC2Ev
__ZN9__gnu_cxx13new_allocatorIPK10ConnectionEC2Ev:
LFB2273:
	.loc 14 68 0
	pushq	%rbp
LCFI134:
	movq	%rsp, %rbp
LCFI135:
	movq	%rdi, -8(%rbp)
	.loc 14 68 0
	leave
	ret
LFE2273:
	.align 1
.globl __ZNSaIPK10ConnectionEC1Ev
	.weak_definition __ZNSaIPK10ConnectionEC1Ev
__ZNSaIPK10ConnectionEC1Ev:
LFB2157:
	.loc 15 100 0
	pushq	%rbp
LCFI136:
	movq	%rsp, %rbp
LCFI137:
	subq	$16, %rsp
LCFI138:
	movq	%rdi, -8(%rbp)
	.loc 15 100 0
	movq	-8(%rbp), %rdi
	call	__ZN9__gnu_cxx13new_allocatorIPK10ConnectionEC2Ev
	leave
	ret
LFE2157:
	.align 1
.globl __ZN9__gnu_cxx13new_allocatorIPK10ConnectionED2Ev
	.weak_definition __ZN9__gnu_cxx13new_allocatorIPK10ConnectionED2Ev
__ZN9__gnu_cxx13new_allocatorIPK10ConnectionED2Ev:
LFB2276:
	.loc 14 75 0
	pushq	%rbp
LCFI139:
	movq	%rsp, %rbp
LCFI140:
	movq	%rdi, -8(%rbp)
	.loc 14 75 0
	leave
	ret
LFE2276:
	.align 1
.globl __ZNSaIPK10ConnectionED1Ev
	.weak_definition __ZNSaIPK10ConnectionED1Ev
__ZNSaIPK10ConnectionED1Ev:
LFB2160:
	.loc 15 108 0
	pushq	%rbp
LCFI141:
	movq	%rsp, %rbp
LCFI142:
	subq	$16, %rsp
LCFI143:
	movq	%rdi, -8(%rbp)
	.loc 15 108 0
	movq	-8(%rbp), %rdi
	call	__ZN9__gnu_cxx13new_allocatorIPK10ConnectionED2Ev
	leave
	ret
LFE2160:
	.align 1
.globl __ZNSaIPK10ConnectionED2Ev
	.weak_definition __ZNSaIPK10ConnectionED2Ev
__ZNSaIPK10ConnectionED2Ev:
LFB2159:
	.loc 15 108 0
	pushq	%rbp
LCFI144:
	movq	%rsp, %rbp
LCFI145:
	subq	$16, %rsp
LCFI146:
	movq	%rdi, -8(%rbp)
	.loc 15 108 0
	movq	-8(%rbp), %rdi
	call	__ZN9__gnu_cxx13new_allocatorIPK10ConnectionED2Ev
	leave
	ret
LFE2159:
	.align 1
.globl __ZNSt12_Vector_baseIPK10ConnectionSaIS2_EE12_Vector_implD1Ev
	.weak_definition __ZNSt12_Vector_baseIPK10ConnectionSaIS2_EE12_Vector_implD1Ev
__ZNSt12_Vector_baseIPK10ConnectionSaIS2_EE12_Vector_implD1Ev:
LFB2216:
	.loc 11 83 0
	pushq	%rbp
LCFI147:
	movq	%rsp, %rbp
LCFI148:
	subq	$16, %rsp
LCFI149:
	movq	%rdi, -8(%rbp)
	.loc 11 83 0
	movq	-8(%rbp), %rdi
	call	__ZNSaIPK10ConnectionED2Ev
	leave
	ret
LFE2216:
	.align 1
.globl __ZN9__gnu_cxx13new_allocatorIPK10ConnectionEC2ERKS4_
	.weak_definition __ZN9__gnu_cxx13new_allocatorIPK10ConnectionEC2ERKS4_
__ZN9__gnu_cxx13new_allocatorIPK10ConnectionEC2ERKS4_:
LFB2279:
	.loc 14 70 0
	pushq	%rbp
LCFI150:
	movq	%rsp, %rbp
LCFI151:
	movq	%rdi, -8(%rbp)
	movq	%rsi, -16(%rbp)
	.loc 14 70 0
	leave
	ret
LFE2279:
	.align 1
.globl __ZNSaIPK10ConnectionEC2ERKS2_
	.weak_definition __ZNSaIPK10ConnectionEC2ERKS2_
__ZNSaIPK10ConnectionEC2ERKS2_:
LFB2162:
	.loc 15 102 0
	pushq	%rbp
LCFI152:
	movq	%rsp, %rbp
LCFI153:
	subq	$16, %rsp
LCFI154:
	movq	%rdi, -8(%rbp)
	movq	%rsi, -16(%rbp)
	.loc 15 103 0
	movq	-16(%rbp), %rsi
	movq	-8(%rbp), %rdi
	call	__ZN9__gnu_cxx13new_allocatorIPK10ConnectionEC2ERKS4_
	leave
	ret
LFE2162:
	.align 1
.globl __ZNSaIPK10ConnectionEC1ERKS2_
	.weak_definition __ZNSaIPK10ConnectionEC1ERKS2_
__ZNSaIPK10ConnectionEC1ERKS2_:
LFB2163:
	.loc 15 102 0
	pushq	%rbp
LCFI155:
	movq	%rsp, %rbp
LCFI156:
	subq	$16, %rsp
LCFI157:
	movq	%rdi, -8(%rbp)
	movq	%rsi, -16(%rbp)
	.loc 15 103 0
	movq	-16(%rbp), %rsi
	movq	-8(%rbp), %rdi
	call	__ZN9__gnu_cxx13new_allocatorIPK10ConnectionEC2ERKS4_
	leave
	ret
LFE2163:
	.align 1
.globl __ZN9__gnu_cxx13new_allocatorIPK10ConnectionE9constructEPS3_RKS3_
	.weak_definition __ZN9__gnu_cxx13new_allocatorIPK10ConnectionE9constructEPS3_RKS3_
__ZN9__gnu_cxx13new_allocatorIPK10ConnectionE9constructEPS3_RKS3_:
LFB2284:
	.loc 14 106 0
	pushq	%rbp
LCFI158:
	movq	%rsp, %rbp
LCFI159:
	subq	$32, %rsp
LCFI160:
	movq	%rdi, -8(%rbp)
	movq	%rsi, -16(%rbp)
	movq	%rdx, -24(%rbp)
	.loc 14 107 0
	movq	-16(%rbp), %rsi
	movl	$8, %edi
	call	__ZnwmPv
	movq	%rax, -32(%rbp)
	cmpq	$0, -32(%rbp)
	je	L173
	movq	-24(%rbp), %rax
	movq	(%rax), %rax
	movq	-32(%rbp), %rdx
	movq	%rax, (%rdx)
L173:
	leave
	ret
LFE2284:
	.align 1
.globl __ZN9__gnu_cxx17__normal_iteratorIPPK10ConnectionSt6vectorIS3_SaIS3_EEEC1ERKS4_
	.weak_definition __ZN9__gnu_cxx17__normal_iteratorIPPK10ConnectionSt6vectorIS3_SaIS3_EEEC1ERKS4_
__ZN9__gnu_cxx17__normal_iteratorIPPK10ConnectionSt6vectorIS3_SaIS3_EEEC1ERKS4_:
LFB2289:
	.loc 12 653 0
	pushq	%rbp
LCFI161:
	movq	%rsp, %rbp
LCFI162:
	movq	%rdi, -8(%rbp)
	movq	%rsi, -16(%rbp)
LBB12:
	.loc 12 653 0
	movq	-16(%rbp), %rax
	movq	(%rax), %rdx
	movq	-8(%rbp), %rax
	movq	%rdx, (%rax)
LBE12:
	leave
	ret
LFE2289:
	.align 1
.globl __ZNSt6vectorIPK10ConnectionSaIS2_EE5beginEv
	.weak_definition __ZNSt6vectorIPK10ConnectionSaIS2_EE5beginEv
__ZNSt6vectorIPK10ConnectionSaIS2_EE5beginEv:
LFB2170:
	.loc 11 330 0
	pushq	%rbp
LCFI163:
	movq	%rsp, %rbp
LCFI164:
	subq	$32, %rsp
LCFI165:
	movq	%rdi, -24(%rbp)
	.loc 11 331 0
	movq	-24(%rbp), %rsi
	leaq	-16(%rbp), %rdi
	call	__ZN9__gnu_cxx17__normal_iteratorIPPK10ConnectionSt6vectorIS3_SaIS3_EEEC1ERKS4_
	movq	-16(%rbp), %rax
	leave
	ret
LFE2170:
	.align 1
.globl __ZNSt6vectorIPK10ConnectionSaIS2_EE3endEv
	.weak_definition __ZNSt6vectorIPK10ConnectionSaIS2_EE3endEv
__ZNSt6vectorIPK10ConnectionSaIS2_EE3endEv:
LFB2169:
	.loc 11 348 0
	pushq	%rbp
LCFI166:
	movq	%rsp, %rbp
LCFI167:
	subq	$32, %rsp
LCFI168:
	movq	%rdi, -24(%rbp)
	.loc 11 349 0
	movq	-24(%rbp), %rsi
	addq	$8, %rsi
	leaq	-16(%rbp), %rdi
	call	__ZN9__gnu_cxx17__normal_iteratorIPPK10ConnectionSt6vectorIS3_SaIS3_EEEC1ERKS4_
	movq	-16(%rbp), %rax
	leave
	ret
LFE2169:
	.align 1
.globl __ZNSt18input_iterator_tagC2Ev
	.weak_definition __ZNSt18input_iterator_tagC2Ev
__ZNSt18input_iterator_tagC2Ev:
LFB2295:
	.file 16 "/usr/include/c++/4.2.1/bits/stl_iterator_base_types.h"
	.loc 16 80 0
	pushq	%rbp
LCFI169:
	movq	%rsp, %rbp
LCFI170:
	movq	%rdi, -8(%rbp)
	.loc 16 80 0
	leave
	ret
LFE2295:
	.align 1
.globl __ZNSt20forward_iterator_tagC2Ev
	.weak_definition __ZNSt20forward_iterator_tagC2Ev
__ZNSt20forward_iterator_tagC2Ev:
LFB2297:
	.loc 16 84 0
	pushq	%rbp
LCFI171:
	movq	%rsp, %rbp
LCFI172:
	subq	$16, %rsp
LCFI173:
	movq	%rdi, -8(%rbp)
LBB13:
	.loc 16 84 0
	movq	-8(%rbp), %rdi
	call	__ZNSt18input_iterator_tagC2Ev
LBE13:
	leave
	ret
LFE2297:
	.align 1
.globl __ZNSt26bidirectional_iterator_tagC2Ev
	.weak_definition __ZNSt26bidirectional_iterator_tagC2Ev
__ZNSt26bidirectional_iterator_tagC2Ev:
LFB2299:
	.loc 16 87 0
	pushq	%rbp
LCFI174:
	movq	%rsp, %rbp
LCFI175:
	subq	$16, %rsp
LCFI176:
	movq	%rdi, -8(%rbp)
LBB14:
	.loc 16 87 0
	movq	-8(%rbp), %rdi
	call	__ZNSt20forward_iterator_tagC2Ev
LBE14:
	leave
	ret
LFE2299:
	.align 1
.globl __ZNSt26random_access_iterator_tagC1Ev
	.weak_definition __ZNSt26random_access_iterator_tagC1Ev
__ZNSt26random_access_iterator_tagC1Ev:
LFB2302:
	.loc 16 90 0
	pushq	%rbp
LCFI177:
	movq	%rsp, %rbp
LCFI178:
	subq	$16, %rsp
LCFI179:
	movq	%rdi, -8(%rbp)
LBB15:
	.loc 16 90 0
	movq	-8(%rbp), %rdi
	call	__ZNSt26bidirectional_iterator_tagC2Ev
LBE15:
	leave
	ret
LFE2302:
	.align 1
.globl __ZN9__gnu_cxx13new_allocatorISt4pairIK6EValuePK4CityEEC2Ev
	.weak_definition __ZN9__gnu_cxx13new_allocatorISt4pairIK6EValuePK4CityEEC2Ev
__ZN9__gnu_cxx13new_allocatorISt4pairIK6EValuePK4CityEEC2Ev:
LFB2305:
	.loc 14 68 0
	pushq	%rbp
LCFI180:
	movq	%rsp, %rbp
LCFI181:
	movq	%rdi, -8(%rbp)
	.loc 14 68 0
	leave
	ret
LFE2305:
	.align 1
.globl __ZNSaISt4pairIK6EValuePK4CityEEC1Ev
	.weak_definition __ZNSaISt4pairIK6EValuePK4CityEEC1Ev
__ZNSaISt4pairIK6EValuePK4CityEEC1Ev:
LFB2189:
	.loc 15 100 0
	pushq	%rbp
LCFI182:
	movq	%rsp, %rbp
LCFI183:
	subq	$16, %rsp
LCFI184:
	movq	%rdi, -8(%rbp)
	.loc 15 100 0
	movq	-8(%rbp), %rdi
	call	__ZN9__gnu_cxx13new_allocatorISt4pairIK6EValuePK4CityEEC2Ev
	leave
	ret
LFE2189:
	.align 1
.globl __ZN9__gnu_cxx13new_allocatorISt4pairIK6EValuePK4CityEED2Ev
	.weak_definition __ZN9__gnu_cxx13new_allocatorISt4pairIK6EValuePK4CityEED2Ev
__ZN9__gnu_cxx13new_allocatorISt4pairIK6EValuePK4CityEED2Ev:
LFB2308:
	.loc 14 75 0
	pushq	%rbp
LCFI185:
	movq	%rsp, %rbp
LCFI186:
	movq	%rdi, -8(%rbp)
	.loc 14 75 0
	leave
	ret
LFE2308:
	.align 1
.globl __ZNSaISt4pairIK6EValuePK4CityEED1Ev
	.weak_definition __ZNSaISt4pairIK6EValuePK4CityEED1Ev
__ZNSaISt4pairIK6EValuePK4CityEED1Ev:
LFB2192:
	.loc 15 108 0
	pushq	%rbp
LCFI187:
	movq	%rsp, %rbp
LCFI188:
	subq	$16, %rsp
LCFI189:
	movq	%rdi, -8(%rbp)
	.loc 15 108 0
	movq	-8(%rbp), %rdi
	call	__ZN9__gnu_cxx13new_allocatorISt4pairIK6EValuePK4CityEED2Ev
	leave
	ret
LFE2192:
	.align 1
.globl __ZN9__gnu_cxx13new_allocatorISt13_Rb_tree_nodeISt4pairIK6EValuePK4CityEEED2Ev
	.weak_definition __ZN9__gnu_cxx13new_allocatorISt13_Rb_tree_nodeISt4pairIK6EValuePK4CityEEED2Ev
__ZN9__gnu_cxx13new_allocatorISt13_Rb_tree_nodeISt4pairIK6EValuePK4CityEEED2Ev:
LFB2320:
	.loc 14 75 0
	pushq	%rbp
LCFI190:
	movq	%rsp, %rbp
LCFI191:
	movq	%rdi, -8(%rbp)
	.loc 14 75 0
	leave
	ret
LFE2320:
	.align 1
.globl __ZNSaISt13_Rb_tree_nodeISt4pairIK6EValuePK4CityEEED1Ev
	.weak_definition __ZNSaISt13_Rb_tree_nodeISt4pairIK6EValuePK4CityEEED1Ev
__ZNSaISt13_Rb_tree_nodeISt4pairIK6EValuePK4CityEEED1Ev:
LFB2201:
	.loc 15 108 0
	pushq	%rbp
LCFI192:
	movq	%rsp, %rbp
LCFI193:
	subq	$16, %rsp
LCFI194:
	movq	%rdi, -8(%rbp)
	.loc 15 108 0
	movq	-8(%rbp), %rdi
	call	__ZN9__gnu_cxx13new_allocatorISt13_Rb_tree_nodeISt4pairIK6EValuePK4CityEEED2Ev
	leave
	ret
LFE2201:
	.align 1
.globl __ZNSaISt13_Rb_tree_nodeISt4pairIK6EValuePK4CityEEED2Ev
	.weak_definition __ZNSaISt13_Rb_tree_nodeISt4pairIK6EValuePK4CityEEED2Ev
__ZNSaISt13_Rb_tree_nodeISt4pairIK6EValuePK4CityEEED2Ev:
LFB2200:
	.loc 15 108 0
	pushq	%rbp
LCFI195:
	movq	%rsp, %rbp
LCFI196:
	subq	$16, %rsp
LCFI197:
	movq	%rdi, -8(%rbp)
	.loc 15 108 0
	movq	-8(%rbp), %rdi
	call	__ZN9__gnu_cxx13new_allocatorISt13_Rb_tree_nodeISt4pairIK6EValuePK4CityEEED2Ev
	leave
	ret
LFE2200:
	.align 1
.globl __ZNSt8_Rb_treeI6EValueSt4pairIKS0_PK4CityESt10_Select1stIS6_ESt4lessIS0_ESaIS6_EE13_Rb_tree_implISA_Lb0EED1Ev
	.weak_definition __ZNSt8_Rb_treeI6EValueSt4pairIKS0_PK4CityESt10_Select1stIS6_ESt4lessIS0_ESaIS6_EE13_Rb_tree_implISA_Lb0EED1Ev
__ZNSt8_Rb_treeI6EValueSt4pairIKS0_PK4CityESt10_Select1stIS6_ESt4lessIS0_ESaIS6_EE13_Rb_tree_implISA_Lb0EED1Ev:
LFB2104:
	.loc 10 410 0
	pushq	%rbp
LCFI198:
	movq	%rsp, %rbp
LCFI199:
	subq	$16, %rsp
LCFI200:
	movq	%rdi, -8(%rbp)
	.loc 10 410 0
	movq	-8(%rbp), %rdi
	call	__ZNSaISt13_Rb_tree_nodeISt4pairIK6EValuePK4CityEEED2Ev
	leave
	ret
LFE2104:
.globl __ZNSt8_Rb_treeI6EValueSt4pairIKS0_PK4CityESt10_Select1stIS6_ESt4lessIS0_ESaIS6_EE8_S_rightEPSt18_Rb_tree_node_base
	.weak_definition __ZNSt8_Rb_treeI6EValueSt4pairIKS0_PK4CityESt10_Select1stIS6_ESt4lessIS0_ESaIS6_EE8_S_rightEPSt18_Rb_tree_node_base
__ZNSt8_Rb_treeI6EValueSt4pairIKS0_PK4CityESt10_Select1stIS6_ESt4lessIS0_ESaIS6_EE8_S_rightEPSt18_Rb_tree_node_base:
LFB2322:
	.loc 10 511 0
	pushq	%rbp
LCFI201:
	movq	%rsp, %rbp
LCFI202:
	movq	%rdi, -8(%rbp)
	.loc 10 512 0
	movq	-8(%rbp), %rax
	movq	24(%rax), %rax
	leave
	ret
LFE2322:
.globl __ZNSt8_Rb_treeI6EValueSt4pairIKS0_PK4CityESt10_Select1stIS6_ESt4lessIS0_ESaIS6_EE7_S_leftEPSt18_Rb_tree_node_base
	.weak_definition __ZNSt8_Rb_treeI6EValueSt4pairIKS0_PK4CityESt10_Select1stIS6_ESt4lessIS0_ESaIS6_EE7_S_leftEPSt18_Rb_tree_node_base
__ZNSt8_Rb_treeI6EValueSt4pairIKS0_PK4CityESt10_Select1stIS6_ESt4lessIS0_ESaIS6_EE7_S_leftEPSt18_Rb_tree_node_base:
LFB2323:
	.loc 10 503 0
	pushq	%rbp
LCFI203:
	movq	%rsp, %rbp
LCFI204:
	movq	%rdi, -8(%rbp)
	.loc 10 504 0
	movq	-8(%rbp), %rax
	movq	16(%rax), %rax
	leave
	ret
LFE2323:
	.align 1
.globl __ZNSt8_Rb_treeI6EValueSt4pairIKS0_PK4CityESt10_Select1stIS6_ESt4lessIS0_ESaIS6_EE6_M_endEv
	.weak_definition __ZNSt8_Rb_treeI6EValueSt4pairIKS0_PK4CityESt10_Select1stIS6_ESt4lessIS0_ESaIS6_EE6_M_endEv
__ZNSt8_Rb_treeI6EValueSt4pairIKS0_PK4CityESt10_Select1stIS6_ESt4lessIS0_ESaIS6_EE6_M_endEv:
LFB2325:
	.loc 10 487 0
	pushq	%rbp
LCFI205:
	movq	%rsp, %rbp
LCFI206:
	movq	%rdi, -8(%rbp)
	.loc 10 488 0
	movq	-8(%rbp), %rax
	addq	$8, %rax
	leave
	ret
LFE2325:
	.align 1
.globl __ZNKSt10_Select1stISt4pairIK6EValuePK4CityEEclERKS6_
	.weak_definition __ZNKSt10_Select1stISt4pairIK6EValuePK4CityEEclERKS6_
__ZNKSt10_Select1stISt4pairIK6EValuePK4CityEEclERKS6_:
LFB2326:
	.loc 8 550 0
	pushq	%rbp
LCFI207:
	movq	%rsp, %rbp
LCFI208:
	movq	%rdi, -8(%rbp)
	movq	%rsi, -16(%rbp)
	.loc 8 551 0
	movq	-16(%rbp), %rax
	leave
	ret
LFE2326:
	.align 1
.globl __ZNKSt4lessI6EValueEclERKS0_S3_
	.weak_definition __ZNKSt4lessI6EValueEclERKS0_S3_
__ZNKSt4lessI6EValueEclERKS0_S3_:
LFB2328:
	.loc 8 226 0
	pushq	%rbp
LCFI209:
	movq	%rsp, %rbp
LCFI210:
	subq	$32, %rsp
LCFI211:
	movq	%rdi, -8(%rbp)
	movq	%rsi, -16(%rbp)
	movq	%rdx, -24(%rbp)
	.loc 8 227 0
	movq	-24(%rbp), %rax
	movq	-16(%rbp), %rdi
	movl	(%rax), %esi
	call	__ZNK6EValueltES_
	movzbl	%al, %eax
	leave
	ret
LFE2328:
	.align 1
.globl __ZNSt17_Rb_tree_iteratorISt4pairIK6EValuePK4CityEEC1EPSt13_Rb_tree_nodeIS6_E
	.weak_definition __ZNSt17_Rb_tree_iteratorISt4pairIK6EValuePK4CityEEC1EPSt13_Rb_tree_nodeIS6_E
__ZNSt17_Rb_tree_iteratorISt4pairIK6EValuePK4CityEEC1EPSt13_Rb_tree_nodeIS6_E:
LFB2332:
	.loc 10 171 0
	pushq	%rbp
LCFI212:
	movq	%rsp, %rbp
LCFI213:
	movq	%rdi, -8(%rbp)
	movq	%rsi, -16(%rbp)
LBB16:
	.loc 10 172 0
	movq	-16(%rbp), %rdx
	movq	-8(%rbp), %rax
	movq	%rdx, (%rax)
LBE16:
	leave
	ret
LFE2332:
	.align 1
.globl __ZNSt8_Rb_treeI6EValueSt4pairIKS0_PK4CityESt10_Select1stIS6_ESt4lessIS0_ESaIS6_EE5beginEv
	.weak_definition __ZNSt8_Rb_treeI6EValueSt4pairIKS0_PK4CityESt10_Select1stIS6_ESt4lessIS0_ESaIS6_EE5beginEv
__ZNSt8_Rb_treeI6EValueSt4pairIKS0_PK4CityESt10_Select1stIS6_ESt4lessIS0_ESaIS6_EE5beginEv:
LFB2212:
	.loc 10 605 0
	pushq	%rbp
LCFI214:
	movq	%rsp, %rbp
LCFI215:
	subq	$32, %rsp
LCFI216:
	movq	%rdi, -24(%rbp)
	.loc 10 608 0
	movq	-24(%rbp), %rax
	movq	24(%rax), %rax
	movq	%rax, %rsi
	leaq	-16(%rbp), %rdi
	call	__ZNSt17_Rb_tree_iteratorISt4pairIK6EValuePK4CityEEC1EPSt13_Rb_tree_nodeIS6_E
	movq	-16(%rbp), %rax
	leave
	ret
LFE2212:
	.align 1
.globl __ZNSt8multimapI6EValuePK4CitySt4lessIS0_ESaISt4pairIKS0_S3_EEE5beginEv
	.weak_definition __ZNSt8multimapI6EValuePK4CitySt4lessIS0_ESaISt4pairIKS0_S3_EEE5beginEv
__ZNSt8multimapI6EValuePK4CitySt4lessIS0_ESaISt4pairIKS0_S3_EEE5beginEv:
LFB2115:
	.loc 13 243 0
	pushq	%rbp
LCFI217:
	movq	%rsp, %rbp
LCFI218:
	subq	$16, %rsp
LCFI219:
	movq	%rdi, -8(%rbp)
	.loc 13 244 0
	movq	-8(%rbp), %rdi
	call	__ZNSt8_Rb_treeI6EValueSt4pairIKS0_PK4CityESt10_Select1stIS6_ESt4lessIS0_ESaIS6_EE5beginEv
	leave
	ret
LFE2115:
	.align 1
.globl __ZNSt12_Vector_baseIPK10ConnectionSaIS2_EE12_Vector_implC1ERKS3_
	.weak_definition __ZNSt12_Vector_baseIPK10ConnectionSaIS2_EE12_Vector_implC1ERKS3_
__ZNSt12_Vector_baseIPK10ConnectionSaIS2_EE12_Vector_implC1ERKS3_:
LFB2336:
	.loc 11 87 0
	pushq	%rbp
LCFI220:
	movq	%rsp, %rbp
LCFI221:
	subq	$16, %rsp
LCFI222:
	movq	%rdi, -8(%rbp)
	movq	%rsi, -16(%rbp)
LBB17:
	.loc 11 88 0
	movq	-8(%rbp), %rdi
	movq	-16(%rbp), %rsi
	call	__ZNSaIPK10ConnectionEC2ERKS2_
	movq	-8(%rbp), %rax
	movq	$0, (%rax)
	movq	-8(%rbp), %rax
	movq	$0, 8(%rax)
	movq	-8(%rbp), %rax
	movq	$0, 16(%rax)
LBE17:
	.loc 11 89 0
	leave
	ret
LFE2336:
	.align 1
.globl __ZNSt12_Vector_baseIPK10ConnectionSaIS2_EEC2ERKS3_
	.weak_definition __ZNSt12_Vector_baseIPK10ConnectionSaIS2_EEC2ERKS3_
__ZNSt12_Vector_baseIPK10ConnectionSaIS2_EEC2ERKS3_:
LFB2282:
	.loc 11 107 0
	pushq	%rbp
LCFI223:
	movq	%rsp, %rbp
LCFI224:
	subq	$16, %rsp
LCFI225:
	movq	%rdi, -8(%rbp)
	movq	%rsi, -16(%rbp)
LBB18:
	.loc 11 108 0
	movq	-8(%rbp), %rdi
	movq	-16(%rbp), %rsi
	call	__ZNSt12_Vector_baseIPK10ConnectionSaIS2_EE12_Vector_implC1ERKS3_
LBE18:
	.loc 11 109 0
	leave
	ret
LFE2282:
	.align 1
.globl __ZNSt6vectorIPK10ConnectionSaIS2_EEC1ERKS3_
	.weak_definition __ZNSt6vectorIPK10ConnectionSaIS2_EEC1ERKS3_
__ZNSt6vectorIPK10ConnectionSaIS2_EEC1ERKS3_:
LFB2166:
	.loc 11 201 0
	pushq	%rbp
LCFI226:
	movq	%rsp, %rbp
LCFI227:
	subq	$16, %rsp
LCFI228:
	movq	%rdi, -8(%rbp)
	movq	%rsi, -16(%rbp)
LBB19:
	.loc 11 202 0
	movq	-8(%rbp), %rdi
	movq	-16(%rbp), %rsi
	call	__ZNSt12_Vector_baseIPK10ConnectionSaIS2_EEC2ERKS3_
LBE19:
	.loc 11 203 0
	leave
	ret
LFE2166:
	.align 1
.globl __ZN9__gnu_cxx17__normal_iteratorIPKPK10ConnectionSt6vectorIS3_SaIS3_EEEC1ERKS5_
	.weak_definition __ZN9__gnu_cxx17__normal_iteratorIPKPK10ConnectionSt6vectorIS3_SaIS3_EEEC1ERKS5_
__ZN9__gnu_cxx17__normal_iteratorIPKPK10ConnectionSt6vectorIS3_SaIS3_EEEC1ERKS5_:
LFB2340:
	.loc 12 653 0
	pushq	%rbp
LCFI229:
	movq	%rsp, %rbp
LCFI230:
	movq	%rdi, -8(%rbp)
	movq	%rsi, -16(%rbp)
LBB20:
	.loc 12 653 0
	movq	-16(%rbp), %rax
	movq	(%rax), %rdx
	movq	-8(%rbp), %rax
	movq	%rdx, (%rax)
LBE20:
	leave
	ret
LFE2340:
	.align 1
.globl __ZNKSt6vectorIPK10ConnectionSaIS2_EE3endEv
	.weak_definition __ZNKSt6vectorIPK10ConnectionSaIS2_EE3endEv
__ZNKSt6vectorIPK10ConnectionSaIS2_EE3endEv:
LFB2226:
	.loc 11 357 0
	pushq	%rbp
LCFI231:
	movq	%rsp, %rbp
LCFI232:
	subq	$32, %rsp
LCFI233:
	movq	%rdi, -24(%rbp)
	.loc 11 358 0
	movq	-24(%rbp), %rax
	movq	8(%rax), %rax
	movq	%rax, -8(%rbp)
	leaq	-8(%rbp), %rsi
	leaq	-16(%rbp), %rdi
	call	__ZN9__gnu_cxx17__normal_iteratorIPKPK10ConnectionSt6vectorIS3_SaIS3_EEEC1ERKS5_
	movq	-16(%rbp), %rax
	leave
	ret
LFE2226:
	.align 1
.globl __ZNKSt6vectorIPK10ConnectionSaIS2_EE5beginEv
	.weak_definition __ZNKSt6vectorIPK10ConnectionSaIS2_EE5beginEv
__ZNKSt6vectorIPK10ConnectionSaIS2_EE5beginEv:
LFB2225:
	.loc 11 339 0
	pushq	%rbp
LCFI234:
	movq	%rsp, %rbp
LCFI235:
	subq	$32, %rsp
LCFI236:
	movq	%rdi, -24(%rbp)
	.loc 11 340 0
	movq	-24(%rbp), %rax
	movq	(%rax), %rax
	movq	%rax, -8(%rbp)
	leaq	-8(%rbp), %rsi
	leaq	-16(%rbp), %rdi
	call	__ZN9__gnu_cxx17__normal_iteratorIPKPK10ConnectionSt6vectorIS3_SaIS3_EEEC1ERKS5_
	movq	-16(%rbp), %rax
	leave
	ret
LFE2225:
	.align 1
.globl __ZNSt12_Vector_baseIPK10CoordinateSaIS2_EE12_Vector_implC1ERKS3_
	.weak_definition __ZNSt12_Vector_baseIPK10CoordinateSaIS2_EE12_Vector_implC1ERKS3_
__ZNSt12_Vector_baseIPK10CoordinateSaIS2_EE12_Vector_implC1ERKS3_:
LFB2349:
	.loc 11 87 0
	pushq	%rbp
LCFI237:
	movq	%rsp, %rbp
LCFI238:
	subq	$16, %rsp
LCFI239:
	movq	%rdi, -8(%rbp)
	movq	%rsi, -16(%rbp)
LBB21:
	.loc 11 88 0
	movq	-8(%rbp), %rdi
	movq	-16(%rbp), %rsi
	call	__ZNSaIPK10CoordinateEC2ERKS2_
	movq	-8(%rbp), %rax
	movq	$0, (%rax)
	movq	-8(%rbp), %rax
	movq	$0, 8(%rax)
	movq	-8(%rbp), %rax
	movq	$0, 16(%rax)
LBE21:
	.loc 11 89 0
	leave
	ret
LFE2349:
	.align 1
.globl __ZNSt12_Vector_baseIPK10CoordinateSaIS2_EEC2ERKS3_
	.weak_definition __ZNSt12_Vector_baseIPK10CoordinateSaIS2_EEC2ERKS3_
__ZNSt12_Vector_baseIPK10CoordinateSaIS2_EEC2ERKS3_:
LFB2249:
	.loc 11 107 0
	pushq	%rbp
LCFI240:
	movq	%rsp, %rbp
LCFI241:
	subq	$16, %rsp
LCFI242:
	movq	%rdi, -8(%rbp)
	movq	%rsi, -16(%rbp)
LBB22:
	.loc 11 108 0
	movq	-8(%rbp), %rdi
	movq	-16(%rbp), %rsi
	call	__ZNSt12_Vector_baseIPK10CoordinateSaIS2_EE12_Vector_implC1ERKS3_
LBE22:
	.loc 11 109 0
	leave
	ret
LFE2249:
	.align 1
.globl __ZNSt6vectorIPK10CoordinateSaIS2_EEC1ERKS3_
	.weak_definition __ZNSt6vectorIPK10CoordinateSaIS2_EEC1ERKS3_
__ZNSt6vectorIPK10CoordinateSaIS2_EEC1ERKS3_:
LFB2139:
	.loc 11 201 0
	pushq	%rbp
LCFI243:
	movq	%rsp, %rbp
LCFI244:
	subq	$16, %rsp
LCFI245:
	movq	%rdi, -8(%rbp)
	movq	%rsi, -16(%rbp)
LBB23:
	.loc 11 202 0
	movq	-8(%rbp), %rdi
	movq	-16(%rbp), %rsi
	call	__ZNSt12_Vector_baseIPK10CoordinateSaIS2_EEC2ERKS3_
LBE23:
	.loc 11 203 0
	leave
	ret
LFE2139:
	.align 1
.globl __ZN9__gnu_cxx17__normal_iteratorIPKPK10CoordinateSt6vectorIS3_SaIS3_EEEC1ERKS5_
	.weak_definition __ZN9__gnu_cxx17__normal_iteratorIPKPK10CoordinateSt6vectorIS3_SaIS3_EEEC1ERKS5_
__ZN9__gnu_cxx17__normal_iteratorIPKPK10CoordinateSt6vectorIS3_SaIS3_EEEC1ERKS5_:
LFB2356:
	.loc 12 653 0
	pushq	%rbp
LCFI246:
	movq	%rsp, %rbp
LCFI247:
	movq	%rdi, -8(%rbp)
	movq	%rsi, -16(%rbp)
LBB24:
	.loc 12 653 0
	movq	-16(%rbp), %rax
	movq	(%rax), %rdx
	movq	-8(%rbp), %rax
	movq	%rdx, (%rax)
LBE24:
	leave
	ret
LFE2356:
	.align 1
.globl __ZNKSt6vectorIPK10CoordinateSaIS2_EE3endEv
	.weak_definition __ZNKSt6vectorIPK10CoordinateSaIS2_EE3endEv
__ZNKSt6vectorIPK10CoordinateSaIS2_EE3endEv:
LFB2264:
	.loc 11 357 0
	pushq	%rbp
LCFI248:
	movq	%rsp, %rbp
LCFI249:
	subq	$32, %rsp
LCFI250:
	movq	%rdi, -24(%rbp)
	.loc 11 358 0
	movq	-24(%rbp), %rax
	movq	8(%rax), %rax
	movq	%rax, -8(%rbp)
	leaq	-8(%rbp), %rsi
	leaq	-16(%rbp), %rdi
	call	__ZN9__gnu_cxx17__normal_iteratorIPKPK10CoordinateSt6vectorIS3_SaIS3_EEEC1ERKS5_
	movq	-16(%rbp), %rax
	leave
	ret
LFE2264:
	.align 1
.globl __ZNKSt6vectorIPK10CoordinateSaIS2_EE5beginEv
	.weak_definition __ZNKSt6vectorIPK10CoordinateSaIS2_EE5beginEv
__ZNKSt6vectorIPK10CoordinateSaIS2_EE5beginEv:
LFB2263:
	.loc 11 339 0
	pushq	%rbp
LCFI251:
	movq	%rsp, %rbp
LCFI252:
	subq	$32, %rsp
LCFI253:
	movq	%rdi, -24(%rbp)
	.loc 11 340 0
	movq	-24(%rbp), %rax
	movq	(%rax), %rax
	movq	%rax, -8(%rbp)
	leaq	-8(%rbp), %rsi
	leaq	-16(%rbp), %rdi
	call	__ZN9__gnu_cxx17__normal_iteratorIPKPK10CoordinateSt6vectorIS3_SaIS3_EEEC1ERKS5_
	movq	-16(%rbp), %rax
	leave
	ret
LFE2263:
	.align 1
.globl __ZNK9__gnu_cxx17__normal_iteratorIPPK10ConnectionSt6vectorIS3_SaIS3_EEE4baseEv
	.weak_definition __ZNK9__gnu_cxx17__normal_iteratorIPPK10ConnectionSt6vectorIS3_SaIS3_EEE4baseEv
__ZNK9__gnu_cxx17__normal_iteratorIPPK10ConnectionSt6vectorIS3_SaIS3_EEE4baseEv:
LFB2363:
	.loc 12 717 0
	pushq	%rbp
LCFI254:
	movq	%rsp, %rbp
LCFI255:
	movq	%rdi, -8(%rbp)
	.loc 12 718 0
	movq	-8(%rbp), %rax
	leave
	ret
LFE2363:
	.align 1
.globl __ZNK9__gnu_cxx17__normal_iteratorIPPK10ConnectionSt6vectorIS3_SaIS3_EEEdeEv
	.weak_definition __ZNK9__gnu_cxx17__normal_iteratorIPPK10ConnectionSt6vectorIS3_SaIS3_EEEdeEv
__ZNK9__gnu_cxx17__normal_iteratorIPPK10ConnectionSt6vectorIS3_SaIS3_EEEdeEv:
LFB2365:
	.loc 12 665 0
	pushq	%rbp
LCFI256:
	movq	%rsp, %rbp
LCFI257:
	movq	%rdi, -8(%rbp)
	.loc 12 666 0
	movq	-8(%rbp), %rax
	movq	(%rax), %rax
	leave
	ret
LFE2365:
	.align 1
.globl __ZNSt8_Rb_treeI6EValueSt4pairIKS0_PK4CityESt10_Select1stIS6_ESt4lessIS0_ESaIS6_EE11_M_leftmostEv
	.weak_definition __ZNSt8_Rb_treeI6EValueSt4pairIKS0_PK4CityESt10_Select1stIS6_ESt4lessIS0_ESaIS6_EE11_M_leftmostEv
__ZNSt8_Rb_treeI6EValueSt4pairIKS0_PK4CityESt10_Select1stIS6_ESt4lessIS0_ESaIS6_EE11_M_leftmostEv:
LFB2367:
	.loc 10 460 0
	pushq	%rbp
LCFI258:
	movq	%rsp, %rbp
LCFI259:
	movq	%rdi, -8(%rbp)
	.loc 10 461 0
	movq	-8(%rbp), %rax
	addq	$24, %rax
	leave
	ret
LFE2367:
	.align 1
.globl __ZNSt8_Rb_treeI6EValueSt4pairIKS0_PK4CityESt10_Select1stIS6_ESt4lessIS0_ESaIS6_EE7_M_rootEv
	.weak_definition __ZNSt8_Rb_treeI6EValueSt4pairIKS0_PK4CityESt10_Select1stIS6_ESt4lessIS0_ESaIS6_EE7_M_rootEv
__ZNSt8_Rb_treeI6EValueSt4pairIKS0_PK4CityESt10_Select1stIS6_ESt4lessIS0_ESaIS6_EE7_M_rootEv:
LFB2368:
	.loc 10 452 0
	pushq	%rbp
LCFI260:
	movq	%rsp, %rbp
LCFI261:
	movq	%rdi, -8(%rbp)
	.loc 10 453 0
	movq	-8(%rbp), %rax
	addq	$16, %rax
	leave
	ret
LFE2368:
	.align 1
.globl __ZNSt8_Rb_treeI6EValueSt4pairIKS0_PK4CityESt10_Select1stIS6_ESt4lessIS0_ESaIS6_EE12_M_rightmostEv
	.weak_definition __ZNSt8_Rb_treeI6EValueSt4pairIKS0_PK4CityESt10_Select1stIS6_ESt4lessIS0_ESaIS6_EE12_M_rightmostEv
__ZNSt8_Rb_treeI6EValueSt4pairIKS0_PK4CityESt10_Select1stIS6_ESt4lessIS0_ESaIS6_EE12_M_rightmostEv:
LFB2369:
	.loc 10 468 0
	pushq	%rbp
LCFI262:
	movq	%rsp, %rbp
LCFI263:
	movq	%rdi, -8(%rbp)
	.loc 10 469 0
	movq	-8(%rbp), %rax
	addq	$32, %rax
	leave
	ret
LFE2369:
	.align 1
.globl __ZN9__gnu_cxx13new_allocatorISt13_Rb_tree_nodeISt4pairIK6EValuePK4CityEEEC2Ev
	.weak_definition __ZN9__gnu_cxx13new_allocatorISt13_Rb_tree_nodeISt4pairIK6EValuePK4CityEEEC2Ev
__ZN9__gnu_cxx13new_allocatorISt13_Rb_tree_nodeISt4pairIK6EValuePK4CityEEEC2Ev:
LFB2372:
	.loc 14 68 0
	pushq	%rbp
LCFI264:
	movq	%rsp, %rbp
LCFI265:
	movq	%rdi, -8(%rbp)
	.loc 14 68 0
	leave
	ret
LFE2372:
	.align 1
.globl __ZNSaISt13_Rb_tree_nodeISt4pairIK6EValuePK4CityEEEC1IS6_EERKSaIT_E
	.weak_definition __ZNSaISt13_Rb_tree_nodeISt4pairIK6EValuePK4CityEEEC1IS6_EERKSaIT_E
__ZNSaISt13_Rb_tree_nodeISt4pairIK6EValuePK4CityEEEC1IS6_EERKSaIT_E:
LFB2315:
	.loc 15 106 0
	pushq	%rbp
LCFI266:
	movq	%rsp, %rbp
LCFI267:
	subq	$16, %rsp
LCFI268:
	movq	%rdi, -8(%rbp)
	movq	%rsi, -16(%rbp)
	.loc 15 106 0
	movq	-8(%rbp), %rdi
	call	__ZN9__gnu_cxx13new_allocatorISt13_Rb_tree_nodeISt4pairIK6EValuePK4CityEEEC2Ev
	leave
	ret
LFE2315:
	.align 1
.globl __ZNSt4pairIK6EValuePK4CityED1Ev
	.weak_definition __ZNSt4pairIK6EValuePK4CityED1Ev
__ZNSt4pairIK6EValuePK4CityED1Ev:
LFB2381:
	.loc 9 69 0
	pushq	%rbp
LCFI269:
	movq	%rsp, %rbp
LCFI270:
	movq	%rdi, -8(%rbp)
	.loc 9 69 0
	leave
	ret
LFE2381:
	.align 1
.globl __ZN9__gnu_cxx13new_allocatorISt4pairIK6EValuePK4CityEE7destroyEPS7_
	.weak_definition __ZN9__gnu_cxx13new_allocatorISt4pairIK6EValuePK4CityEE7destroyEPS7_
__ZN9__gnu_cxx13new_allocatorISt4pairIK6EValuePK4CityEE7destroyEPS7_:
LFB2378:
	.loc 14 110 0
	pushq	%rbp
LCFI271:
	movq	%rsp, %rbp
LCFI272:
	subq	$16, %rsp
LCFI273:
	movq	%rdi, -8(%rbp)
	movq	%rsi, -16(%rbp)
	.loc 14 110 0
	movq	-16(%rbp), %rdi
	call	__ZNSt4pairIK6EValuePK4CityED1Ev
	leave
	ret
LFE2378:
.globl __ZNSt8_Rb_treeI6EValueSt4pairIKS0_PK4CityESt10_Select1stIS6_ESt4lessIS0_ESaIS6_EE8_S_valueEPKSt13_Rb_tree_nodeIS6_E
	.weak_definition __ZNSt8_Rb_treeI6EValueSt4pairIKS0_PK4CityESt10_Select1stIS6_ESt4lessIS0_ESaIS6_EE8_S_valueEPKSt13_Rb_tree_nodeIS6_E
__ZNSt8_Rb_treeI6EValueSt4pairIKS0_PK4CityESt10_Select1stIS6_ESt4lessIS0_ESaIS6_EE8_S_valueEPKSt13_Rb_tree_nodeIS6_E:
LFB2383:
	.loc 10 495 0
	pushq	%rbp
LCFI274:
	movq	%rsp, %rbp
LCFI275:
	movq	%rdi, -8(%rbp)
	.loc 10 496 0
	movq	-8(%rbp), %rax
	addq	$32, %rax
	leave
	ret
LFE2383:
.globl __ZNSt8_Rb_treeI6EValueSt4pairIKS0_PK4CityESt10_Select1stIS6_ESt4lessIS0_ESaIS6_EE6_S_keyEPKSt13_Rb_tree_nodeIS6_E
	.weak_definition __ZNSt8_Rb_treeI6EValueSt4pairIKS0_PK4CityESt10_Select1stIS6_ESt4lessIS0_ESaIS6_EE6_S_keyEPKSt13_Rb_tree_nodeIS6_E
__ZNSt8_Rb_treeI6EValueSt4pairIKS0_PK4CityESt10_Select1stIS6_ESt4lessIS0_ESaIS6_EE6_S_keyEPKSt13_Rb_tree_nodeIS6_E:
LFB2327:
	.loc 10 499 0
	pushq	%rbp
LCFI276:
	movq	%rsp, %rbp
LCFI277:
	pushq	%rbx
LCFI278:
	subq	$40, %rsp
LCFI279:
	movq	%rdi, -40(%rbp)
	.loc 10 500 0
	movq	-40(%rbp), %rdi
	call	__ZNSt8_Rb_treeI6EValueSt4pairIKS0_PK4CityESt10_Select1stIS6_ESt4lessIS0_ESaIS6_EE8_S_valueEPKSt13_Rb_tree_nodeIS6_E
	movq	%rax, %rbx
	leaq	-17(%rbp), %rdi
	call	__ZNSt10_Select1stISt4pairIK6EValuePK4CityEEC1Ev
	leaq	-17(%rbp), %rdi
	movq	%rbx, %rsi
	call	__ZNKSt10_Select1stISt4pairIK6EValuePK4CityEEclERKS6_
	addq	$40, %rsp
	popq	%rbx
	leave
	ret
LFE2327:
.globl __ZSt13__destroy_auxIPPK10ConnectionEvT_S4_St11__true_type
	.weak_definition __ZSt13__destroy_auxIPPK10ConnectionEvT_S4_St11__true_type
__ZSt13__destroy_auxIPPK10ConnectionEvT_S4_St11__true_type:
LFB2386:
	.file 17 "/usr/include/c++/4.2.1/bits/stl_construct.h"
	.loc 17 136 0
	pushq	%rbp
LCFI280:
	movq	%rsp, %rbp
LCFI281:
	movq	%rdi, -8(%rbp)
	movq	%rsi, -16(%rbp)
	.loc 17 137 0
	leave
	ret
LFE2386:
.globl __ZSt8_DestroyIPPK10ConnectionEvT_S4_
	.weak_definition __ZSt8_DestroyIPPK10ConnectionEvT_S4_
__ZSt8_DestroyIPPK10ConnectionEvT_S4_:
LFB2333:
	.loc 17 148 0
	pushq	%rbp
LCFI282:
	movq	%rsp, %rbp
LCFI283:
	subq	$48, %rsp
LCFI284:
	movq	%rdi, -8(%rbp)
	movq	%rsi, -16(%rbp)
LBB25:
	.loc 17 155 0
	movq	-16(%rbp), %rsi
	movq	-8(%rbp), %rdi
	movzbl	-17(%rbp), %eax
	movb	%al, (%rsp)
	call	__ZSt13__destroy_auxIPPK10ConnectionEvT_S4_St11__true_type
LBE25:
	leave
	ret
LFE2333:
.globl __ZSt8_DestroyIPPK10ConnectionS2_EvT_S4_SaIT0_E
	.weak_definition __ZSt8_DestroyIPPK10ConnectionS2_EvT_S4_SaIT0_E
__ZSt8_DestroyIPPK10ConnectionS2_EvT_S4_SaIT0_E:
LFB2220:
	.loc 17 180 0
	pushq	%rbp
LCFI285:
	movq	%rsp, %rbp
LCFI286:
	subq	$32, %rsp
LCFI287:
	movq	%rdi, -8(%rbp)
	movq	%rsi, -16(%rbp)
	movq	%rdx, -24(%rbp)
	.loc 17 182 0
	movq	-16(%rbp), %rsi
	movq	-8(%rbp), %rdi
	call	__ZSt8_DestroyIPPK10ConnectionEvT_S4_
	leave
	ret
LFE2220:
	.align 1
.globl __ZNSt6vectorIPK10ConnectionSaIS2_EE15_M_erase_at_endEPS2_
	.weak_definition __ZNSt6vectorIPK10ConnectionSaIS2_EE15_M_erase_at_endEPS2_
__ZNSt6vectorIPK10ConnectionSaIS2_EE15_M_erase_at_endEPS2_:
LFB2228:
	.loc 11 922 0
	pushq	%rbp
LCFI288:
	movq	%rsp, %rbp
LCFI289:
	subq	$32, %rsp
LCFI290:
	movq	%rdi, -24(%rbp)
	movq	%rsi, -32(%rbp)
	.loc 11 924 0
	movq	-24(%rbp), %rdi
	call	__ZNSt12_Vector_baseIPK10ConnectionSaIS2_EE19_M_get_Tp_allocatorEv
	movq	%rax, %rsi
	leaq	-1(%rbp), %rdi
	call	__ZNSaIPK10ConnectionEC1ERKS2_
	movq	-24(%rbp), %rax
	movq	8(%rax), %rsi
	leaq	-1(%rbp), %rdx
	movq	-32(%rbp), %rdi
	call	__ZSt8_DestroyIPPK10ConnectionS2_EvT_S4_SaIT0_E
	leaq	-1(%rbp), %rdi
	call	__ZNSaIPK10ConnectionED1Ev
	.loc 11 925 0
	movq	-24(%rbp), %rdx
	movq	-32(%rbp), %rax
	movq	%rax, 8(%rdx)
	leave
	ret
LFE2228:
	.align 1
.globl __ZNSt6vectorIPK10ConnectionSaIS2_EE5clearEv
	.weak_definition __ZNSt6vectorIPK10ConnectionSaIS2_EE5clearEv
__ZNSt6vectorIPK10ConnectionSaIS2_EE5clearEv:
LFB2126:
	.loc 11 751 0
	pushq	%rbp
LCFI291:
	movq	%rsp, %rbp
LCFI292:
	subq	$16, %rsp
LCFI293:
	movq	%rdi, -8(%rbp)
	.loc 11 752 0
	movq	-8(%rbp), %rax
	movq	(%rax), %rsi
	movq	-8(%rbp), %rdi
	call	__ZNSt6vectorIPK10ConnectionSaIS2_EE15_M_erase_at_endEPS2_
	leave
	ret
LFE2126:
	.align 1
.globl __ZNK9__gnu_cxx17__normal_iteratorIPKPK10ConnectionSt6vectorIS3_SaIS3_EEE4baseEv
	.weak_definition __ZNK9__gnu_cxx17__normal_iteratorIPKPK10ConnectionSt6vectorIS3_SaIS3_EEE4baseEv
__ZNK9__gnu_cxx17__normal_iteratorIPKPK10ConnectionSt6vectorIS3_SaIS3_EEE4baseEv:
LFB2389:
	.loc 12 717 0
	pushq	%rbp
LCFI294:
	movq	%rsp, %rbp
LCFI295:
	movq	%rdi, -8(%rbp)
	.loc 12 718 0
	movq	-8(%rbp), %rax
	leave
	ret
LFE2389:
.globl __ZSt13__destroy_auxIN9__gnu_cxx17__normal_iteratorIPPK10ConnectionSt6vectorIS4_SaIS4_EEEEEvT_SA_St11__true_type
	.weak_definition __ZSt13__destroy_auxIN9__gnu_cxx17__normal_iteratorIPPK10ConnectionSt6vectorIS4_SaIS4_EEEEEvT_SA_St11__true_type
__ZSt13__destroy_auxIN9__gnu_cxx17__normal_iteratorIPPK10ConnectionSt6vectorIS4_SaIS4_EEEEEvT_SA_St11__true_type:
LFB2391:
	.loc 17 136 0
	pushq	%rbp
LCFI296:
	movq	%rsp, %rbp
LCFI297:
	movq	%rdi, -8(%rbp)
	movq	%rsi, -16(%rbp)
	.loc 17 137 0
	leave
	ret
LFE2391:
.globl __ZSt8_DestroyIN9__gnu_cxx17__normal_iteratorIPPK10ConnectionSt6vectorIS4_SaIS4_EEEEEvT_SA_
	.weak_definition __ZSt8_DestroyIN9__gnu_cxx17__normal_iteratorIPPK10ConnectionSt6vectorIS4_SaIS4_EEEEEvT_SA_
__ZSt8_DestroyIN9__gnu_cxx17__normal_iteratorIPPK10ConnectionSt6vectorIS4_SaIS4_EEEEEvT_SA_:
LFB2344:
	.loc 17 148 0
	pushq	%rbp
LCFI298:
	movq	%rsp, %rbp
LCFI299:
	subq	$48, %rsp
LCFI300:
	movq	%rdi, -8(%rbp)
	movq	%rsi, -16(%rbp)
LBB26:
	.loc 17 155 0
	movq	-16(%rbp), %rsi
	movq	-8(%rbp), %rdi
	movzbl	-17(%rbp), %eax
	movb	%al, (%rsp)
	call	__ZSt13__destroy_auxIN9__gnu_cxx17__normal_iteratorIPPK10ConnectionSt6vectorIS4_SaIS4_EEEEEvT_SA_St11__true_type
LBE26:
	leave
	ret
LFE2344:
.globl __ZSt8_DestroyIN9__gnu_cxx17__normal_iteratorIPPK10ConnectionSt6vectorIS4_SaIS4_EEEES4_EvT_SA_SaIT0_E
	.weak_definition __ZSt8_DestroyIN9__gnu_cxx17__normal_iteratorIPPK10ConnectionSt6vectorIS4_SaIS4_EEEES4_EvT_SA_SaIT0_E
__ZSt8_DestroyIN9__gnu_cxx17__normal_iteratorIPPK10ConnectionSt6vectorIS4_SaIS4_EEEES4_EvT_SA_SaIT0_E:
LFB2233:
	.loc 17 180 0
	pushq	%rbp
LCFI301:
	movq	%rsp, %rbp
LCFI302:
	subq	$32, %rsp
LCFI303:
	movq	%rdi, -8(%rbp)
	movq	%rsi, -16(%rbp)
	movq	%rdx, -24(%rbp)
	.loc 17 182 0
	movq	-16(%rbp), %rsi
	movq	-8(%rbp), %rdi
	call	__ZSt8_DestroyIN9__gnu_cxx17__normal_iteratorIPPK10ConnectionSt6vectorIS4_SaIS4_EEEEEvT_SA_
	leave
	ret
LFE2233:
.globl __ZSt13__destroy_auxIPPK10CoordinateEvT_S4_St11__true_type
	.weak_definition __ZSt13__destroy_auxIPPK10CoordinateEvT_S4_St11__true_type
__ZSt13__destroy_auxIPPK10CoordinateEvT_S4_St11__true_type:
LFB2394:
	.loc 17 136 0
	pushq	%rbp
LCFI304:
	movq	%rsp, %rbp
LCFI305:
	movq	%rdi, -8(%rbp)
	movq	%rsi, -16(%rbp)
	.loc 17 137 0
	leave
	ret
LFE2394:
.globl __ZSt8_DestroyIPPK10CoordinateEvT_S4_
	.weak_definition __ZSt8_DestroyIPPK10CoordinateEvT_S4_
__ZSt8_DestroyIPPK10CoordinateEvT_S4_:
LFB2350:
	.loc 17 148 0
	pushq	%rbp
LCFI306:
	movq	%rsp, %rbp
LCFI307:
	subq	$48, %rsp
LCFI308:
	movq	%rdi, -8(%rbp)
	movq	%rsi, -16(%rbp)
LBB27:
	.loc 17 155 0
	movq	-16(%rbp), %rsi
	movq	-8(%rbp), %rdi
	movzbl	-17(%rbp), %eax
	movb	%al, (%rsp)
	call	__ZSt13__destroy_auxIPPK10CoordinateEvT_S4_St11__true_type
LBE27:
	leave
	ret
LFE2350:
.globl __ZSt8_DestroyIPPK10CoordinateS2_EvT_S4_SaIT0_E
	.weak_definition __ZSt8_DestroyIPPK10CoordinateS2_EvT_S4_SaIT0_E
__ZSt8_DestroyIPPK10CoordinateS2_EvT_S4_SaIT0_E:
LFB2255:
	.loc 17 180 0
	pushq	%rbp
LCFI309:
	movq	%rsp, %rbp
LCFI310:
	subq	$32, %rsp
LCFI311:
	movq	%rdi, -8(%rbp)
	movq	%rsi, -16(%rbp)
	movq	%rdx, -24(%rbp)
	.loc 17 182 0
	movq	-16(%rbp), %rsi
	movq	-8(%rbp), %rdi
	call	__ZSt8_DestroyIPPK10CoordinateEvT_S4_
	leave
	ret
LFE2255:
	.align 1
.globl __ZNSt6vectorIPK10CoordinateSaIS2_EE15_M_erase_at_endEPS2_
	.weak_definition __ZNSt6vectorIPK10CoordinateSaIS2_EE15_M_erase_at_endEPS2_
__ZNSt6vectorIPK10CoordinateSaIS2_EE15_M_erase_at_endEPS2_:
LFB2271:
	.loc 11 922 0
	pushq	%rbp
LCFI312:
	movq	%rsp, %rbp
LCFI313:
	subq	$32, %rsp
LCFI314:
	movq	%rdi, -24(%rbp)
	movq	%rsi, -32(%rbp)
	.loc 11 924 0
	movq	-24(%rbp), %rdi
	call	__ZNSt12_Vector_baseIPK10CoordinateSaIS2_EE19_M_get_Tp_allocatorEv
	movq	%rax, %rsi
	leaq	-1(%rbp), %rdi
	call	__ZNSaIPK10CoordinateEC1ERKS2_
	movq	-24(%rbp), %rax
	movq	8(%rax), %rsi
	leaq	-1(%rbp), %rdx
	movq	-32(%rbp), %rdi
	call	__ZSt8_DestroyIPPK10CoordinateS2_EvT_S4_SaIT0_E
	leaq	-1(%rbp), %rdi
	call	__ZNSaIPK10CoordinateED1Ev
	.loc 11 925 0
	movq	-24(%rbp), %rdx
	movq	-32(%rbp), %rax
	movq	%rax, 8(%rdx)
	leave
	ret
LFE2271:
	.align 1
.globl __ZNSt6vectorIPK10CoordinateSaIS2_EE5clearEv
	.weak_definition __ZNSt6vectorIPK10CoordinateSaIS2_EE5clearEv
__ZNSt6vectorIPK10CoordinateSaIS2_EE5clearEv:
LFB2154:
	.loc 11 751 0
	pushq	%rbp
LCFI315:
	movq	%rsp, %rbp
LCFI316:
	subq	$16, %rsp
LCFI317:
	movq	%rdi, -8(%rbp)
	.loc 11 752 0
	movq	-8(%rbp), %rax
	movq	(%rax), %rsi
	movq	-8(%rbp), %rdi
	call	__ZNSt6vectorIPK10CoordinateSaIS2_EE15_M_erase_at_endEPS2_
	leave
	ret
LFE2154:
	.align 1
.globl __ZNKSt12_Vector_baseIPK10CoordinateSaIS2_EE19_M_get_Tp_allocatorEv
	.weak_definition __ZNKSt12_Vector_baseIPK10CoordinateSaIS2_EE19_M_get_Tp_allocatorEv
__ZNKSt12_Vector_baseIPK10CoordinateSaIS2_EE19_M_get_Tp_allocatorEv:
LFB2396:
	.loc 11 100 0
	pushq	%rbp
LCFI318:
	movq	%rsp, %rbp
LCFI319:
	movq	%rdi, -8(%rbp)
	.loc 11 101 0
	movq	-8(%rbp), %rax
	leave
	ret
LFE2396:
	.align 1
.globl __ZNK9__gnu_cxx13new_allocatorIPK10CoordinateE8max_sizeEv
	.weak_definition __ZNK9__gnu_cxx13new_allocatorIPK10CoordinateE8max_sizeEv
__ZNK9__gnu_cxx13new_allocatorIPK10CoordinateE8max_sizeEv:
LFB2397:
	.loc 14 100 0
	pushq	%rbp
LCFI320:
	movq	%rsp, %rbp
LCFI321:
	movq	%rdi, -8(%rbp)
	.loc 14 101 0
	movabsq	$2305843009213693951, %rax
	leave
	ret
LFE2397:
	.align 1
.globl __ZNKSt6vectorIPK10CoordinateSaIS2_EE8max_sizeEv
	.weak_definition __ZNKSt6vectorIPK10CoordinateSaIS2_EE8max_sizeEv
__ZNKSt6vectorIPK10CoordinateSaIS2_EE8max_sizeEv:
LFB2352:
	.loc 11 404 0
	pushq	%rbp
LCFI322:
	movq	%rsp, %rbp
LCFI323:
	subq	$16, %rsp
LCFI324:
	movq	%rdi, -8(%rbp)
	.loc 11 405 0
	movq	-8(%rbp), %rdi
	call	__ZNKSt12_Vector_baseIPK10CoordinateSaIS2_EE19_M_get_Tp_allocatorEv
	movq	%rax, %rdi
	call	__ZNK9__gnu_cxx13new_allocatorIPK10CoordinateE8max_sizeEv
	leave
	ret
LFE2352:
	.align 1
.globl __ZNK9__gnu_cxx17__normal_iteratorIPKPK10CoordinateSt6vectorIS3_SaIS3_EEE4baseEv
	.weak_definition __ZNK9__gnu_cxx17__normal_iteratorIPKPK10CoordinateSt6vectorIS3_SaIS3_EEE4baseEv
__ZNK9__gnu_cxx17__normal_iteratorIPKPK10CoordinateSt6vectorIS3_SaIS3_EEE4baseEv:
LFB2400:
	.loc 12 717 0
	pushq	%rbp
LCFI325:
	movq	%rsp, %rbp
LCFI326:
	movq	%rdi, -8(%rbp)
	.loc 12 718 0
	movq	-8(%rbp), %rax
	leave
	ret
LFE2400:
.globl __ZSt13__destroy_auxIN9__gnu_cxx17__normal_iteratorIPPK10CoordinateSt6vectorIS4_SaIS4_EEEEEvT_SA_St11__true_type
	.weak_definition __ZSt13__destroy_auxIN9__gnu_cxx17__normal_iteratorIPPK10CoordinateSt6vectorIS4_SaIS4_EEEEEvT_SA_St11__true_type
__ZSt13__destroy_auxIN9__gnu_cxx17__normal_iteratorIPPK10CoordinateSt6vectorIS4_SaIS4_EEEEEvT_SA_St11__true_type:
LFB2402:
	.loc 17 136 0
	pushq	%rbp
LCFI327:
	movq	%rsp, %rbp
LCFI328:
	movq	%rdi, -8(%rbp)
	movq	%rsi, -16(%rbp)
	.loc 17 137 0
	leave
	ret
LFE2402:
.globl __ZSt8_DestroyIN9__gnu_cxx17__normal_iteratorIPPK10CoordinateSt6vectorIS4_SaIS4_EEEEEvT_SA_
	.weak_definition __ZSt8_DestroyIN9__gnu_cxx17__normal_iteratorIPPK10CoordinateSt6vectorIS4_SaIS4_EEEEEvT_SA_
__ZSt8_DestroyIN9__gnu_cxx17__normal_iteratorIPPK10CoordinateSt6vectorIS4_SaIS4_EEEEEvT_SA_:
LFB2360:
	.loc 17 148 0
	pushq	%rbp
LCFI329:
	movq	%rsp, %rbp
LCFI330:
	subq	$48, %rsp
LCFI331:
	movq	%rdi, -8(%rbp)
	movq	%rsi, -16(%rbp)
LBB28:
	.loc 17 155 0
	movq	-16(%rbp), %rsi
	movq	-8(%rbp), %rdi
	movzbl	-17(%rbp), %eax
	movb	%al, (%rsp)
	call	__ZSt13__destroy_auxIN9__gnu_cxx17__normal_iteratorIPPK10CoordinateSt6vectorIS4_SaIS4_EEEEEvT_SA_St11__true_type
LBE28:
	leave
	ret
LFE2360:
.globl __ZSt8_DestroyIN9__gnu_cxx17__normal_iteratorIPPK10CoordinateSt6vectorIS4_SaIS4_EEEES4_EvT_SA_SaIT0_E
	.weak_definition __ZSt8_DestroyIN9__gnu_cxx17__normal_iteratorIPPK10CoordinateSt6vectorIS4_SaIS4_EEEES4_EvT_SA_SaIT0_E
__ZSt8_DestroyIN9__gnu_cxx17__normal_iteratorIPPK10CoordinateSt6vectorIS4_SaIS4_EEEES4_EvT_SA_SaIT0_E:
LFB2268:
	.loc 17 180 0
	pushq	%rbp
LCFI332:
	movq	%rsp, %rbp
LCFI333:
	subq	$32, %rsp
LCFI334:
	movq	%rdi, -8(%rbp)
	movq	%rsi, -16(%rbp)
	movq	%rdx, -24(%rbp)
	.loc 17 182 0
	movq	-16(%rbp), %rsi
	movq	-8(%rbp), %rdi
	call	__ZSt8_DestroyIN9__gnu_cxx17__normal_iteratorIPPK10CoordinateSt6vectorIS4_SaIS4_EEEEEvT_SA_
	leave
	ret
LFE2268:
	.align 1
.globl __ZNK9__gnu_cxx13new_allocatorIPK10ConnectionE8max_sizeEv
	.weak_definition __ZNK9__gnu_cxx13new_allocatorIPK10ConnectionE8max_sizeEv
__ZNK9__gnu_cxx13new_allocatorIPK10ConnectionE8max_sizeEv:
LFB2406:
	.loc 14 100 0
	pushq	%rbp
LCFI335:
	movq	%rsp, %rbp
LCFI336:
	movq	%rdi, -8(%rbp)
	.loc 14 101 0
	movabsq	$2305843009213693951, %rax
	leave
	ret
LFE2406:
	.align 1
.globl __ZNKSt6vectorIPK10ConnectionSaIS2_EE8max_sizeEv
	.weak_definition __ZNKSt6vectorIPK10ConnectionSaIS2_EE8max_sizeEv
__ZNKSt6vectorIPK10ConnectionSaIS2_EE8max_sizeEv:
LFB2366:
	.loc 11 404 0
	pushq	%rbp
LCFI337:
	movq	%rsp, %rbp
LCFI338:
	subq	$16, %rsp
LCFI339:
	movq	%rdi, -8(%rbp)
	.loc 11 405 0
	movq	-8(%rbp), %rdi
	call	__ZNKSt12_Vector_baseIPK10ConnectionSaIS2_EE19_M_get_Tp_allocatorEv
	movq	%rax, %rdi
	call	__ZNK9__gnu_cxx13new_allocatorIPK10ConnectionE8max_sizeEv
	leave
	ret
LFE2366:
.globl __ZN9__gnu_cxxneIPPK10ConnectionSt6vectorIS3_SaIS3_EEEEbRKNS_17__normal_iteratorIT_T0_EESD_
	.weak_definition __ZN9__gnu_cxxneIPPK10ConnectionSt6vectorIS3_SaIS3_EEEEbRKNS_17__normal_iteratorIT_T0_EESD_
__ZN9__gnu_cxxneIPPK10ConnectionSt6vectorIS3_SaIS3_EEEEbRKNS_17__normal_iteratorIT_T0_EESD_:
LFB2407:
	.loc 12 751 0
	pushq	%rbp
LCFI340:
	movq	%rsp, %rbp
LCFI341:
	pushq	%rbx
LCFI342:
	subq	$24, %rsp
LCFI343:
	movq	%rdi, -24(%rbp)
	movq	%rsi, -32(%rbp)
	.loc 12 752 0
	movq	-24(%rbp), %rdi
	call	__ZNK9__gnu_cxx17__normal_iteratorIPPK10ConnectionSt6vectorIS3_SaIS3_EEE4baseEv
	movq	(%rax), %rbx
	movq	-32(%rbp), %rdi
	call	__ZNK9__gnu_cxx17__normal_iteratorIPPK10ConnectionSt6vectorIS3_SaIS3_EEE4baseEv
	movq	(%rax), %rax
	cmpq	%rax, %rbx
	setne	%al
	movzbl	%al, %eax
	addq	$24, %rsp
	popq	%rbx
	leave
	ret
LFE2407:
.globl __ZN9__gnu_cxxmiIPPK10ConnectionSt6vectorIS3_SaIS3_EEEENS_17__normal_iteratorIT_T0_E15difference_typeERKSB_SE_
	.weak_definition __ZN9__gnu_cxxmiIPPK10ConnectionSt6vectorIS3_SaIS3_EEEENS_17__normal_iteratorIT_T0_E15difference_typeERKSB_SE_
__ZN9__gnu_cxxmiIPPK10ConnectionSt6vectorIS3_SaIS3_EEEENS_17__normal_iteratorIT_T0_E15difference_typeERKSB_SE_:
LFB2409:
	.loc 12 816 0
	pushq	%rbp
LCFI344:
	movq	%rsp, %rbp
LCFI345:
	pushq	%rbx
LCFI346:
	subq	$24, %rsp
LCFI347:
	movq	%rdi, -24(%rbp)
	movq	%rsi, -32(%rbp)
	.loc 12 817 0
	movq	-24(%rbp), %rdi
	call	__ZNK9__gnu_cxx17__normal_iteratorIPPK10ConnectionSt6vectorIS3_SaIS3_EEE4baseEv
	movq	(%rax), %rax
	movq	%rax, %rbx
	movq	-32(%rbp), %rdi
	call	__ZNK9__gnu_cxx17__normal_iteratorIPPK10ConnectionSt6vectorIS3_SaIS3_EEE4baseEv
	movq	(%rax), %rax
	movq	%rbx, %rdx
	subq	%rax, %rdx
	movq	%rdx, %rax
	sarq	$3, %rax
	addq	$24, %rsp
	popq	%rbx
	leave
	ret
LFE2409:
.globl __ZSt3maxImERKT_S2_S2_
	.weak_definition __ZSt3maxImERKT_S2_S2_
__ZSt3maxImERKT_S2_S2_:
LFB2413:
	.loc 6 204 0
	pushq	%rbp
LCFI348:
	movq	%rsp, %rbp
LCFI349:
	movq	%rdi, -8(%rbp)
	movq	%rsi, -16(%rbp)
	.loc 6 209 0
	movq	-8(%rbp), %rax
	movq	(%rax), %rdx
	movq	-16(%rbp), %rax
	movq	(%rax), %rax
	cmpq	%rax, %rdx
	jae	L324
	.loc 6 210 0
	movq	-16(%rbp), %rax
	movq	%rax, -24(%rbp)
	jmp	L326
L324:
	.loc 6 211 0
	movq	-8(%rbp), %rax
	movq	%rax, -24(%rbp)
L326:
	movq	-24(%rbp), %rax
	leave
	ret
LFE2413:
	.align 1
.globl __ZN9__gnu_cxx13new_allocatorISt13_Rb_tree_nodeISt4pairIK6EValuePK4CityEEEC2ERKSA_
	.weak_definition __ZN9__gnu_cxx13new_allocatorISt13_Rb_tree_nodeISt4pairIK6EValuePK4CityEEEC2ERKSA_
__ZN9__gnu_cxx13new_allocatorISt13_Rb_tree_nodeISt4pairIK6EValuePK4CityEEEC2ERKSA_:
LFB2415:
	.loc 14 70 0
	pushq	%rbp
LCFI350:
	movq	%rsp, %rbp
LCFI351:
	movq	%rdi, -8(%rbp)
	movq	%rsi, -16(%rbp)
	.loc 14 70 0
	leave
	ret
LFE2415:
	.align 1
.globl __ZNSaISt13_Rb_tree_nodeISt4pairIK6EValuePK4CityEEEC2ERKS8_
	.weak_definition __ZNSaISt13_Rb_tree_nodeISt4pairIK6EValuePK4CityEEEC2ERKS8_
__ZNSaISt13_Rb_tree_nodeISt4pairIK6EValuePK4CityEEEC2ERKS8_:
LFB2375:
	.loc 15 102 0
	pushq	%rbp
LCFI352:
	movq	%rsp, %rbp
LCFI353:
	subq	$16, %rsp
LCFI354:
	movq	%rdi, -8(%rbp)
	movq	%rsi, -16(%rbp)
	.loc 15 103 0
	movq	-16(%rbp), %rsi
	movq	-8(%rbp), %rdi
	call	__ZN9__gnu_cxx13new_allocatorISt13_Rb_tree_nodeISt4pairIK6EValuePK4CityEEEC2ERKSA_
	leave
	ret
LFE2375:
	.align 1
.globl __ZNSt8_Rb_treeI6EValueSt4pairIKS0_PK4CityESt10_Select1stIS6_ESt4lessIS0_ESaIS6_EE13_Rb_tree_implISA_Lb0EEC1ERKSaISt13_Rb_tree_nodeIS6_EERKSA_
	.weak_definition __ZNSt8_Rb_treeI6EValueSt4pairIKS0_PK4CityESt10_Select1stIS6_ESt4lessIS0_ESaIS6_EE13_Rb_tree_implISA_Lb0EEC1ERKSaISt13_Rb_tree_nodeIS6_EERKSA_
__ZNSt8_Rb_treeI6EValueSt4pairIKS0_PK4CityESt10_Select1stIS6_ESt4lessIS0_ESaIS6_EE13_Rb_tree_implISA_Lb0EEC1ERKSaISt13_Rb_tree_nodeIS6_EERKSA_:
LFB2318:
	.loc 10 416 0
	pushq	%rbp
LCFI355:
	movq	%rsp, %rbp
LCFI356:
	subq	$32, %rsp
LCFI357:
	movq	%rdi, -8(%rbp)
	movq	%rsi, -16(%rbp)
	movq	%rdx, -24(%rbp)
LBB29:
	.loc 10 418 0
	movq	-8(%rbp), %rdi
	movq	-16(%rbp), %rsi
	call	__ZNSaISt13_Rb_tree_nodeISt4pairIK6EValuePK4CityEEEC2ERKS8_
	movq	-8(%rbp), %rax
	movl	$0, 8(%rax)
	movq	-8(%rbp), %rax
	movq	$0, 16(%rax)
	movq	-8(%rbp), %rax
	movq	$0, 24(%rax)
	movq	-8(%rbp), %rax
	movq	$0, 32(%rax)
	movq	-8(%rbp), %rax
	movq	$0, 40(%rax)
	.loc 10 420 0
	movq	-8(%rbp), %rax
	movl	$0, 8(%rax)
	.loc 10 421 0
	movq	-8(%rbp), %rax
	movq	$0, 16(%rax)
	.loc 10 422 0
	movq	-8(%rbp), %rdx
	addq	$8, %rdx
	movq	-8(%rbp), %rax
	movq	%rdx, 24(%rax)
	.loc 10 423 0
	movq	-8(%rbp), %rdx
	addq	$8, %rdx
	movq	-8(%rbp), %rax
	movq	%rdx, 32(%rax)
LBE29:
	leave
	ret
LFE2318:
	.align 1
.globl __ZNSt8_Rb_treeI6EValueSt4pairIKS0_PK4CityESt10_Select1stIS6_ESt4lessIS0_ESaIS6_EEC1ERKSA_RKSB_
	.weak_definition __ZNSt8_Rb_treeI6EValueSt4pairIKS0_PK4CityESt10_Select1stIS6_ESt4lessIS0_ESaIS6_EEC1ERKSA_RKSB_
__ZNSt8_Rb_treeI6EValueSt4pairIKS0_PK4CityESt10_Select1stIS6_ESt4lessIS0_ESaIS6_EEC1ERKSA_RKSB_:
LFB2198:
	.loc 10 577 0
	pushq	%rbp
LCFI358:
	movq	%rsp, %rbp
LCFI359:
	subq	$48, %rsp
LCFI360:
	movq	%rdi, -24(%rbp)
	movq	%rsi, -32(%rbp)
	movq	%rdx, -40(%rbp)
LBB30:
	.loc 10 578 0
	movq	-40(%rbp), %rsi
	leaq	-1(%rbp), %rdi
	call	__ZNSaISt13_Rb_tree_nodeISt4pairIK6EValuePK4CityEEEC1IS6_EERKSaIT_E
	movq	-24(%rbp), %rdi
	movq	-32(%rbp), %rdx
	leaq	-1(%rbp), %rsi
	call	__ZNSt8_Rb_treeI6EValueSt4pairIKS0_PK4CityESt10_Select1stIS6_ESt4lessIS0_ESaIS6_EE13_Rb_tree_implISA_Lb0EEC1ERKSaISt13_Rb_tree_nodeIS6_EERKSA_
	leaq	-1(%rbp), %rdi
	call	__ZNSaISt13_Rb_tree_nodeISt4pairIK6EValuePK4CityEEED1Ev
LBE30:
	.loc 10 579 0
	leave
	ret
LFE2198:
	.align 1
.globl __ZNSt8multimapI6EValuePK4CitySt4lessIS0_ESaISt4pairIKS0_S3_EEEC1Ev
	.weak_definition __ZNSt8multimapI6EValuePK4CitySt4lessIS0_ESaISt4pairIKS0_S3_EEEC1Ev
__ZNSt8multimapI6EValuePK4CitySt4lessIS0_ESaISt4pairIKS0_S3_EEEC1Ev:
LFB2100:
	.loc 13 154 0
	pushq	%rbp
LCFI361:
	movq	%rsp, %rbp
LCFI362:
	subq	$32, %rsp
LCFI363:
	movq	%rdi, -24(%rbp)
LBB31:
	.loc 13 155 0
	leaq	-1(%rbp), %rdi
	call	__ZNSaISt4pairIK6EValuePK4CityEEC1Ev
	leaq	-2(%rbp), %rdi
	call	__ZNSt4lessI6EValueEC1Ev
	movq	-24(%rbp), %rdi
	leaq	-1(%rbp), %rdx
	leaq	-2(%rbp), %rsi
	call	__ZNSt8_Rb_treeI6EValueSt4pairIKS0_PK4CityESt10_Select1stIS6_ESt4lessIS0_ESaIS6_EEC1ERKSA_RKSB_
	leaq	-1(%rbp), %rdi
	call	__ZNSaISt4pairIK6EValuePK4CityEED1Ev
LBE31:
	leave
	ret
LFE2100:
	.align 1
.globl __ZNKSt8_Rb_treeI6EValueSt4pairIKS0_PK4CityESt10_Select1stIS6_ESt4lessIS0_ESaIS6_EE21_M_get_Node_allocatorEv
	.weak_definition __ZNKSt8_Rb_treeI6EValueSt4pairIKS0_PK4CityESt10_Select1stIS6_ESt4lessIS0_ESaIS6_EE21_M_get_Node_allocatorEv
__ZNKSt8_Rb_treeI6EValueSt4pairIKS0_PK4CityESt10_Select1stIS6_ESt4lessIS0_ESaIS6_EE21_M_get_Node_allocatorEv:
LFB2417:
	.loc 10 359 0
	pushq	%rbp
LCFI364:
	movq	%rsp, %rbp
LCFI365:
	movq	%rdi, -8(%rbp)
	.loc 10 360 0
	movq	-8(%rbp), %rax
	leave
	ret
LFE2417:
	.align 1
.globl __ZNSaISt4pairIK6EValuePK4CityEEC1ISt13_Rb_tree_nodeIS5_EEERKSaIT_E
	.weak_definition __ZNSaISt4pairIK6EValuePK4CityEEC1ISt13_Rb_tree_nodeIS5_EEERKSaIT_E
__ZNSaISt4pairIK6EValuePK4CityEEC1ISt13_Rb_tree_nodeIS5_EEERKSaIT_E:
LFB2420:
	.loc 15 106 0
	pushq	%rbp
LCFI366:
	movq	%rsp, %rbp
LCFI367:
	subq	$16, %rsp
LCFI368:
	movq	%rdi, -8(%rbp)
	movq	%rsi, -16(%rbp)
	.loc 15 106 0
	movq	-8(%rbp), %rdi
	call	__ZN9__gnu_cxx13new_allocatorISt4pairIK6EValuePK4CityEEC2Ev
	leave
	ret
LFE2420:
	.align 1
.globl __ZNKSt8_Rb_treeI6EValueSt4pairIKS0_PK4CityESt10_Select1stIS6_ESt4lessIS0_ESaIS6_EE13get_allocatorEv
	.weak_definition __ZNKSt8_Rb_treeI6EValueSt4pairIKS0_PK4CityESt10_Select1stIS6_ESt4lessIS0_ESaIS6_EE13get_allocatorEv
__ZNKSt8_Rb_treeI6EValueSt4pairIKS0_PK4CityESt10_Select1stIS6_ESt4lessIS0_ESaIS6_EE13get_allocatorEv:
LFB2377:
	.loc 10 363 0
	pushq	%rbp
LCFI369:
	movq	%rsp, %rbp
LCFI370:
	pushq	%r12
LCFI371:
	pushq	%rbx
LCFI372:
	subq	$16, %rsp
LCFI373:
	movq	%rdi, %rbx
	movq	%rsi, -24(%rbp)
	.loc 10 364 0
	movq	%rbx, %r12
	movq	-24(%rbp), %rdi
	call	__ZNKSt8_Rb_treeI6EValueSt4pairIKS0_PK4CityESt10_Select1stIS6_ESt4lessIS0_ESaIS6_EE21_M_get_Node_allocatorEv
	movq	%rax, %rsi
	movq	%r12, %rdi
	call	__ZNSaISt4pairIK6EValuePK4CityEEC1ISt13_Rb_tree_nodeIS5_EEERKSaIT_E
	movq	%rbx, %rax
	addq	$16, %rsp
	popq	%rbx
	popq	%r12
	leave
	ret
LFE2377:
.globl __ZNSt8_Rb_treeI6EValueSt4pairIKS0_PK4CityESt10_Select1stIS6_ESt4lessIS0_ESaIS6_EE8_S_valueEPKSt18_Rb_tree_node_base
	.weak_definition __ZNSt8_Rb_treeI6EValueSt4pairIKS0_PK4CityESt10_Select1stIS6_ESt4lessIS0_ESaIS6_EE8_S_valueEPKSt18_Rb_tree_node_base
__ZNSt8_Rb_treeI6EValueSt4pairIKS0_PK4CityESt10_Select1stIS6_ESt4lessIS0_ESaIS6_EE8_S_valueEPKSt18_Rb_tree_node_base:
LFB2422:
	.loc 10 519 0
	pushq	%rbp
LCFI374:
	movq	%rsp, %rbp
LCFI375:
	movq	%rdi, -8(%rbp)
	.loc 10 520 0
	movq	-8(%rbp), %rax
	addq	$32, %rax
	leave
	ret
LFE2422:
.globl __ZNSt8_Rb_treeI6EValueSt4pairIKS0_PK4CityESt10_Select1stIS6_ESt4lessIS0_ESaIS6_EE6_S_keyEPKSt18_Rb_tree_node_base
	.weak_definition __ZNSt8_Rb_treeI6EValueSt4pairIKS0_PK4CityESt10_Select1stIS6_ESt4lessIS0_ESaIS6_EE6_S_keyEPKSt18_Rb_tree_node_base
__ZNSt8_Rb_treeI6EValueSt4pairIKS0_PK4CityESt10_Select1stIS6_ESt4lessIS0_ESaIS6_EE6_S_keyEPKSt18_Rb_tree_node_base:
LFB2384:
	.loc 10 523 0
	pushq	%rbp
LCFI376:
	movq	%rsp, %rbp
LCFI377:
	pushq	%rbx
LCFI378:
	subq	$40, %rsp
LCFI379:
	movq	%rdi, -40(%rbp)
	.loc 10 524 0
	movq	-40(%rbp), %rdi
	call	__ZNSt8_Rb_treeI6EValueSt4pairIKS0_PK4CityESt10_Select1stIS6_ESt4lessIS0_ESaIS6_EE8_S_valueEPKSt18_Rb_tree_node_base
	movq	%rax, %rbx
	leaq	-17(%rbp), %rdi
	call	__ZNSt10_Select1stISt4pairIK6EValuePK4CityEEC1Ev
	leaq	-17(%rbp), %rdi
	movq	%rbx, %rsi
	call	__ZNKSt10_Select1stISt4pairIK6EValuePK4CityEEclERKS6_
	addq	$40, %rsp
	popq	%rbx
	leave
	ret
LFE2384:
	.align 1
.globl __ZN9__gnu_cxx13new_allocatorISt4pairIK6EValuePK4CityEE9constructEPS7_RKS7_
	.weak_definition __ZN9__gnu_cxx13new_allocatorISt4pairIK6EValuePK4CityEE9constructEPS7_RKS7_
__ZN9__gnu_cxx13new_allocatorISt4pairIK6EValuePK4CityEE9constructEPS7_RKS7_:
LFB2424:
	.loc 14 106 0
	pushq	%rbp
LCFI380:
	movq	%rsp, %rbp
LCFI381:
	subq	$32, %rsp
LCFI382:
	movq	%rdi, -8(%rbp)
	movq	%rsi, -16(%rbp)
	movq	%rdx, -24(%rbp)
	.loc 14 107 0
	movq	-16(%rbp), %rsi
	movl	$16, %edi
	call	__ZnwmPv
	movq	%rax, -32(%rbp)
	cmpq	$0, -32(%rbp)
	je	L352
	movq	-24(%rbp), %rax
	movq	(%rax), %rdx
	movq	-32(%rbp), %rcx
	movq	%rdx, (%rcx)
	movq	8(%rax), %rax
	movq	-32(%rbp), %rdx
	movq	%rax, 8(%rdx)
L352:
	leave
	ret
LFE2424:
.globl __ZSt19__iterator_categoryIN9__gnu_cxx17__normal_iteratorIPPK10ConnectionSt6vectorIS4_SaIS4_EEEEENSt15iterator_traitsIT_E17iterator_categoryERKSB_
	.weak_definition __ZSt19__iterator_categoryIN9__gnu_cxx17__normal_iteratorIPPK10ConnectionSt6vectorIS4_SaIS4_EEEEENSt15iterator_traitsIT_E17iterator_categoryERKSB_
__ZSt19__iterator_categoryIN9__gnu_cxx17__normal_iteratorIPPK10ConnectionSt6vectorIS4_SaIS4_EEEEENSt15iterator_traitsIT_E17iterator_categoryERKSB_:
LFB2431:
	.loc 16 164 0
	pushq	%rbp
LCFI383:
	movq	%rsp, %rbp
LCFI384:
	subq	$32, %rsp
LCFI385:
	movq	%rdi, -24(%rbp)
	.loc 16 165 0
	leaq	-1(%rbp), %rdi
	call	__ZNSt26random_access_iterator_tagC1Ev
	movzbl	-25(%rbp), %eax
	leave
	ret
LFE2431:
.globl __ZSt10__distanceIN9__gnu_cxx17__normal_iteratorIPPK10ConnectionSt6vectorIS4_SaIS4_EEEEENSt15iterator_traitsIT_E15difference_typeESB_SB_St26random_access_iterator_tag
	.weak_definition __ZSt10__distanceIN9__gnu_cxx17__normal_iteratorIPPK10ConnectionSt6vectorIS4_SaIS4_EEEEENSt15iterator_traitsIT_E15difference_typeESB_SB_St26random_access_iterator_tag
__ZSt10__distanceIN9__gnu_cxx17__normal_iteratorIPPK10ConnectionSt6vectorIS4_SaIS4_EEEEENSt15iterator_traitsIT_E15difference_typeESB_SB_St26random_access_iterator_tag:
LFB2432:
	.file 18 "/usr/include/c++/4.2.1/bits/stl_iterator_base_funcs.h"
	.loc 18 93 0
	pushq	%rbp
LCFI386:
	movq	%rsp, %rbp
LCFI387:
	subq	$16, %rsp
LCFI388:
	movq	%rdi, -8(%rbp)
	movq	%rsi, -16(%rbp)
	.loc 18 98 0
	leaq	-8(%rbp), %rsi
	leaq	-16(%rbp), %rdi
	call	__ZN9__gnu_cxxmiIPPK10ConnectionSt6vectorIS3_SaIS3_EEEENS_17__normal_iteratorIT_T0_E15difference_typeERKSB_SE_
	leave
	ret
LFE2432:
.globl __ZSt8distanceIN9__gnu_cxx17__normal_iteratorIPPK10ConnectionSt6vectorIS4_SaIS4_EEEEENSt15iterator_traitsIT_E15difference_typeESB_SB_
	.weak_definition __ZSt8distanceIN9__gnu_cxx17__normal_iteratorIPPK10ConnectionSt6vectorIS4_SaIS4_EEEEENSt15iterator_traitsIT_E15difference_typeESB_SB_
__ZSt8distanceIN9__gnu_cxx17__normal_iteratorIPPK10ConnectionSt6vectorIS4_SaIS4_EEEEENSt15iterator_traitsIT_E15difference_typeESB_SB_:
LFB2408:
	.loc 18 115 0
	pushq	%rbp
LCFI389:
	movq	%rsp, %rbp
LCFI390:
	subq	$48, %rsp
LCFI391:
	movq	%rdi, -8(%rbp)
	movq	%rsi, -16(%rbp)
	.loc 18 119 0
	leaq	-8(%rbp), %rdi
	call	__ZSt19__iterator_categoryIN9__gnu_cxx17__normal_iteratorIPPK10ConnectionSt6vectorIS4_SaIS4_EEEEENSt15iterator_traitsIT_E17iterator_categoryERKSB_
	movq	-16(%rbp), %rsi
	movq	-8(%rbp), %rdi
	movzbl	-17(%rbp), %eax
	movb	%al, (%rsp)
	call	__ZSt10__distanceIN9__gnu_cxx17__normal_iteratorIPPK10ConnectionSt6vectorIS4_SaIS4_EEEEENSt15iterator_traitsIT_E15difference_typeESB_SB_St26random_access_iterator_tag
	leave
	ret
LFE2408:
	.align 1
.globl __ZN9__gnu_cxx17__normal_iteratorIPPK10ConnectionSt6vectorIS3_SaIS3_EEEpLERKl
	.weak_definition __ZN9__gnu_cxx17__normal_iteratorIPPK10ConnectionSt6vectorIS3_SaIS3_EEEpLERKl
__ZN9__gnu_cxx17__normal_iteratorIPPK10ConnectionSt6vectorIS3_SaIS3_EEEpLERKl:
LFB2441:
	.loc 12 701 0
	pushq	%rbp
LCFI392:
	movq	%rsp, %rbp
LCFI393:
	movq	%rdi, -8(%rbp)
	movq	%rsi, -16(%rbp)
	.loc 12 702 0
	movq	-8(%rbp), %rax
	movq	(%rax), %rdx
	movq	-16(%rbp), %rax
	movq	(%rax), %rax
	salq	$3, %rax
	addq	%rax, %rdx
	movq	-8(%rbp), %rax
	movq	%rdx, (%rax)
	movq	-8(%rbp), %rax
	leave
	ret
LFE2441:
.globl __ZSt9__advanceIN9__gnu_cxx17__normal_iteratorIPPK10ConnectionSt6vectorIS4_SaIS4_EEEElEvRT_T0_St26random_access_iterator_tag
	.weak_definition __ZSt9__advanceIN9__gnu_cxx17__normal_iteratorIPPK10ConnectionSt6vectorIS4_SaIS4_EEEElEvRT_T0_St26random_access_iterator_tag
__ZSt9__advanceIN9__gnu_cxx17__normal_iteratorIPPK10ConnectionSt6vectorIS4_SaIS4_EEEElEvRT_T0_St26random_access_iterator_tag:
LFB2434:
	.loc 18 151 0
	pushq	%rbp
LCFI394:
	movq	%rsp, %rbp
LCFI395:
	subq	$16, %rsp
LCFI396:
	movq	%rdi, -8(%rbp)
	movq	%rsi, -16(%rbp)
	.loc 18 156 0
	leaq	-16(%rbp), %rsi
	movq	-8(%rbp), %rdi
	call	__ZN9__gnu_cxx17__normal_iteratorIPPK10ConnectionSt6vectorIS3_SaIS3_EEEpLERKl
	leave
	ret
LFE2434:
.globl __ZSt7advanceIN9__gnu_cxx17__normal_iteratorIPPK10ConnectionSt6vectorIS4_SaIS4_EEEEmEvRT_T0_
	.weak_definition __ZSt7advanceIN9__gnu_cxx17__normal_iteratorIPPK10ConnectionSt6vectorIS4_SaIS4_EEEEmEvRT_T0_
__ZSt7advanceIN9__gnu_cxx17__normal_iteratorIPPK10ConnectionSt6vectorIS4_SaIS4_EEEEmEvRT_T0_:
LFB2411:
	.loc 18 173 0
	pushq	%rbp
LCFI397:
	movq	%rsp, %rbp
LCFI398:
	subq	$64, %rsp
LCFI399:
	movq	%rdi, -24(%rbp)
	movq	%rsi, -32(%rbp)
LBB32:
	.loc 18 176 0
	movq	-32(%rbp), %rax
	movq	%rax, -8(%rbp)
	.loc 18 177 0
	movq	-24(%rbp), %rdi
	call	__ZSt19__iterator_categoryIN9__gnu_cxx17__normal_iteratorIPPK10ConnectionSt6vectorIS4_SaIS4_EEEEENSt15iterator_traitsIT_E17iterator_categoryERKSB_
	movq	-8(%rbp), %rsi
	movq	-24(%rbp), %rdi
	movzbl	-33(%rbp), %eax
	movb	%al, (%rsp)
	call	__ZSt9__advanceIN9__gnu_cxx17__normal_iteratorIPPK10ConnectionSt6vectorIS4_SaIS4_EEEElEvRT_T0_St26random_access_iterator_tag
LBE32:
	leave
	ret
LFE2411:
	.align 1
.globl __ZNK9__gnu_cxx13new_allocatorISt13_Rb_tree_nodeISt4pairIK6EValuePK4CityEEE8max_sizeEv
	.weak_definition __ZNK9__gnu_cxx13new_allocatorISt13_Rb_tree_nodeISt4pairIK6EValuePK4CityEEE8max_sizeEv
__ZNK9__gnu_cxx13new_allocatorISt13_Rb_tree_nodeISt4pairIK6EValuePK4CityEEE8max_sizeEv:
LFB2443:
	.loc 14 100 0
	pushq	%rbp
LCFI400:
	movq	%rsp, %rbp
LCFI401:
	movq	%rdi, -8(%rbp)
	.loc 14 101 0
	movabsq	$384307168202282325, %rax
	leave
	ret
LFE2443:
	.text
___tcf_1:
LFB2449:
	.file 19 "../localAIs/local/../../hdr/game/boardSettings/standard/standardConstants.h"
	.loc 19 21 0
	pushq	%rbp
LCFI402:
	movq	%rsp, %rbp
LCFI403:
	subq	$16, %rsp
LCFI404:
	movq	%rdi, -8(%rbp)
	.loc 19 21 0
	leaq	__ZL9BOARDNAME(%rip), %rdi
	call	__ZNSsD1Ev
	leave
	ret
LFE2449:
	.cstring
	.align 3
LC0:
	.ascii "hdr/game/boardSettings/standard/\0"
	.section __TEXT,__StaticInit,regular,pure_instructions
__Z41__static_initialization_and_destruction_0ii:
LFB2447:
	.loc 4 300 0
	pushq	%rbp
LCFI405:
	movq	%rsp, %rbp
LCFI406:
	pushq	%rbx
LCFI407:
	subq	$40, %rsp
LCFI408:
	movl	%edi, -36(%rbp)
	movl	%esi, -40(%rbp)
	.loc 4 300 0
	cmpl	$1, -36(%rbp)
	jne	L374
	cmpl	$65535, -40(%rbp)
	jne	L374
	.file 20 "/usr/include/c++/4.2.1/iostream"
	.loc 20 77 0
	leaq	__ZStL8__ioinit(%rip), %rdi
LEHB0:
	call	__ZNSt8ios_base4InitC1Ev
LEHE0:
	movq	___dso_handle@GOTPCREL(%rip), %rdx
	movl	$0, %esi
	leaq	___tcf_0(%rip), %rdi
	call	___cxa_atexit
	.loc 19 21 0
	leaq	-17(%rbp), %rdi
	call	__ZNSaIcEC1Ev
	leaq	-17(%rbp), %rdx
	leaq	LC0(%rip), %rsi
	leaq	__ZL9BOARDNAME(%rip), %rdi
LEHB1:
	call	__ZNSsC1EPKcRKSaIcE
LEHE1:
	leaq	-17(%rbp), %rdi
	call	__ZNSaIcED1Ev
	movq	___dso_handle@GOTPCREL(%rip), %rdx
	movl	$0, %esi
	leaq	___tcf_1(%rip), %rdi
	call	___cxa_atexit
	jmp	L374
L375:
	movq	%rax, -48(%rbp)
L373:
	movq	-48(%rbp), %rbx
	leaq	-17(%rbp), %rdi
	call	__ZNSaIcED1Ev
	movq	%rbx, -48(%rbp)
	movq	-48(%rbp), %rdi
LEHB2:
	call	__Unwind_Resume
LEHE2:
L374:
	.loc 4 300 0
	addq	$40, %rsp
	popq	%rbx
	leave
	ret
LFE2447:
	.section __TEXT,__gcc_except_tab
GCC_except_table0:
LLSDA2447:
	.byte	0xff
	.byte	0xff
	.byte	0x3
	.byte	0x27
	.set L$set$0,LEHB0-LFB2447
	.long L$set$0
	.set L$set$1,LEHE0-LEHB0
	.long L$set$1
	.long	0x0
	.byte	0x0
	.set L$set$2,LEHB1-LFB2447
	.long L$set$2
	.set L$set$3,LEHE1-LEHB1
	.long L$set$3
	.set L$set$4,L375-LFB2447
	.long L$set$4
	.byte	0x0
	.set L$set$5,LEHB2-LFB2447
	.long L$set$5
	.set L$set$6,LEHE2-LEHB2
	.long L$set$6
	.long	0x0
	.byte	0x0
	.section __TEXT,__StaticInit,regular,pure_instructions
__GLOBAL__I__ZN7DavidAIC2E11PLAYERCOLOR:
LFB2450:
	.loc 4 301 0
	pushq	%rbp
LCFI409:
	movq	%rsp, %rbp
LCFI410:
	.loc 4 301 0
	movl	$65535, %esi
	movl	$1, %edi
	call	__Z41__static_initialization_and_destruction_0ii
	leave
	ret
LFE2450:
	.text
___tcf_0:
LFB2448:
	.loc 20 77 0
	pushq	%rbp
LCFI411:
	movq	%rsp, %rbp
LCFI412:
	subq	$16, %rsp
LCFI413:
	movq	%rdi, -8(%rbp)
	.loc 20 77 0
	leaq	__ZStL8__ioinit(%rip), %rdi
	call	__ZNSt8ios_base4InitD1Ev
	leave
	ret
LFE2448:
	.section __TEXT,__textcoal_nt,coalesced,pure_instructions
	.align 1
.globl __ZN9__gnu_cxx13new_allocatorIPK10ConnectionE10deallocateEPS3_m
	.weak_definition __ZN9__gnu_cxx13new_allocatorIPK10ConnectionE10deallocateEPS3_m
__ZN9__gnu_cxx13new_allocatorIPK10ConnectionE10deallocateEPS3_m:
LFB2342:
	.loc 14 96 0
	pushq	%rbp
LCFI414:
	movq	%rsp, %rbp
LCFI415:
	subq	$32, %rsp
LCFI416:
	movq	%rdi, -8(%rbp)
	movq	%rsi, -16(%rbp)
	movq	%rdx, -24(%rbp)
	.loc 14 97 0
	movq	-16(%rbp), %rdi
	call	__ZdlPv
	leave
	ret
LFE2342:
	.align 1
.globl __ZNSt12_Vector_baseIPK10ConnectionSaIS2_EE13_M_deallocateEPS2_m
	.weak_definition __ZNSt12_Vector_baseIPK10ConnectionSaIS2_EE13_M_deallocateEPS2_m
__ZNSt12_Vector_baseIPK10ConnectionSaIS2_EE13_M_deallocateEPS2_m:
LFB2231:
	.loc 11 134 0
	pushq	%rbp
LCFI417:
	movq	%rsp, %rbp
LCFI418:
	subq	$32, %rsp
LCFI419:
	movq	%rdi, -8(%rbp)
	movq	%rsi, -16(%rbp)
	movq	%rdx, -24(%rbp)
	.loc 11 136 0
	cmpq	$0, -16(%rbp)
	je	L385
	.loc 11 137 0
	movq	-8(%rbp), %rax
	movq	%rax, %rdi
	movq	-24(%rbp), %rdx
	movq	-16(%rbp), %rsi
	call	__ZN9__gnu_cxx13new_allocatorIPK10ConnectionE10deallocateEPS3_m
L385:
	leave
	ret
LFE2231:
	.align 1
.globl __ZNSt12_Vector_baseIPK10ConnectionSaIS2_EED2Ev
	.weak_definition __ZNSt12_Vector_baseIPK10ConnectionSaIS2_EED2Ev
__ZNSt12_Vector_baseIPK10ConnectionSaIS2_EED2Ev:
LFB2217:
	.loc 11 122 0
	pushq	%rbp
LCFI420:
	movq	%rsp, %rbp
LCFI421:
	subq	$16, %rsp
LCFI422:
	movq	%rdi, -8(%rbp)
	.loc 11 123 0
	movq	-8(%rbp), %rax
	movq	16(%rax), %rax
	movq	%rax, %rdx
	movq	-8(%rbp), %rax
	movq	(%rax), %rax
	movq	%rdx, %rcx
	subq	%rax, %rcx
	movq	%rcx, %rax
	sarq	$3, %rax
	movq	%rax, %rdx
	movq	-8(%rbp), %rax
	movq	(%rax), %rsi
	movq	-8(%rbp), %rdi
	call	__ZNSt12_Vector_baseIPK10ConnectionSaIS2_EE13_M_deallocateEPS2_m
	movq	-8(%rbp), %rdi
	call	__ZNSt12_Vector_baseIPK10ConnectionSaIS2_EE12_Vector_implD1Ev
	leave
	ret
LFE2217:
	.align 1
.globl __ZNSt6vectorIPK10ConnectionSaIS2_EED1Ev
	.weak_definition __ZNSt6vectorIPK10ConnectionSaIS2_EED1Ev
__ZNSt6vectorIPK10ConnectionSaIS2_EED1Ev:
LFB2120:
	.loc 11 270 0
	pushq	%rbp
LCFI423:
	movq	%rsp, %rbp
LCFI424:
	subq	$32, %rsp
LCFI425:
	movq	%rdi, -24(%rbp)
	.loc 11 271 0
	movq	-24(%rbp), %rdi
	call	__ZNSt12_Vector_baseIPK10ConnectionSaIS2_EE19_M_get_Tp_allocatorEv
	movq	%rax, %rsi
	leaq	-1(%rbp), %rdi
	call	__ZNSaIPK10ConnectionEC1ERKS2_
	movq	-24(%rbp), %rax
	movq	8(%rax), %rsi
	movq	-24(%rbp), %rax
	movq	(%rax), %rdi
	leaq	-1(%rbp), %rdx
	call	__ZSt8_DestroyIPPK10ConnectionS2_EvT_S4_SaIT0_E
	leaq	-1(%rbp), %rdi
	call	__ZNSaIPK10ConnectionED1Ev
	movq	-24(%rbp), %rdi
	call	__ZNSt12_Vector_baseIPK10ConnectionSaIS2_EED2Ev
	leave
	ret
LFE2120:
	.align 1
.globl __ZN9__gnu_cxx13new_allocatorISt13_Rb_tree_nodeISt4pairIK6EValuePK4CityEEE10deallocateEPS9_m
	.weak_definition __ZN9__gnu_cxx13new_allocatorISt13_Rb_tree_nodeISt4pairIK6EValuePK4CityEEE10deallocateEPS9_m
__ZN9__gnu_cxx13new_allocatorISt13_Rb_tree_nodeISt4pairIK6EValuePK4CityEEE10deallocateEPS9_m:
LFB2421:
	.loc 14 96 0
	pushq	%rbp
LCFI426:
	movq	%rsp, %rbp
LCFI427:
	subq	$32, %rsp
LCFI428:
	movq	%rdi, -8(%rbp)
	movq	%rsi, -16(%rbp)
	movq	%rdx, -24(%rbp)
	.loc 14 97 0
	movq	-16(%rbp), %rdi
	call	__ZdlPv
	leave
	ret
LFE2421:
	.align 1
.globl __ZNSt8_Rb_treeI6EValueSt4pairIKS0_PK4CityESt10_Select1stIS6_ESt4lessIS0_ESaIS6_EE11_M_put_nodeEPSt13_Rb_tree_nodeIS6_E
	.weak_definition __ZNSt8_Rb_treeI6EValueSt4pairIKS0_PK4CityESt10_Select1stIS6_ESt4lessIS0_ESaIS6_EE11_M_put_nodeEPSt13_Rb_tree_nodeIS6_E
__ZNSt8_Rb_treeI6EValueSt4pairIKS0_PK4CityESt10_Select1stIS6_ESt4lessIS0_ESaIS6_EE11_M_put_nodeEPSt13_Rb_tree_nodeIS6_E:
LFB2382:
	.loc 10 372 0
	pushq	%rbp
LCFI429:
	movq	%rsp, %rbp
LCFI430:
	subq	$16, %rsp
LCFI431:
	movq	%rdi, -8(%rbp)
	movq	%rsi, -16(%rbp)
	.loc 10 373 0
	movq	-8(%rbp), %rax
	movq	%rax, %rdi
	movq	-16(%rbp), %rsi
	movl	$1, %edx
	call	__ZN9__gnu_cxx13new_allocatorISt13_Rb_tree_nodeISt4pairIK6EValuePK4CityEEE10deallocateEPS9_m
	leave
	ret
LFE2382:
	.align 1
.globl __ZNSt8_Rb_treeI6EValueSt4pairIKS0_PK4CityESt10_Select1stIS6_ESt4lessIS0_ESaIS6_EE15_M_destroy_nodeEPSt13_Rb_tree_nodeIS6_E
	.weak_definition __ZNSt8_Rb_treeI6EValueSt4pairIKS0_PK4CityESt10_Select1stIS6_ESt4lessIS0_ESaIS6_EE15_M_destroy_nodeEPSt13_Rb_tree_nodeIS6_E
__ZNSt8_Rb_treeI6EValueSt4pairIKS0_PK4CityESt10_Select1stIS6_ESt4lessIS0_ESaIS6_EE15_M_destroy_nodeEPSt13_Rb_tree_nodeIS6_E:
LFB2324:
	.loc 10 400 0
	pushq	%rbp
LCFI432:
	movq	%rsp, %rbp
LCFI433:
	pushq	%rbx
LCFI434:
	subq	$40, %rsp
LCFI435:
	movq	%rdi, -40(%rbp)
	movq	%rsi, -48(%rbp)
	.loc 10 402 0
	movq	-48(%rbp), %rbx
	addq	$32, %rbx
	leaq	-17(%rbp), %rdi
	movq	-40(%rbp), %rsi
	call	__ZNKSt8_Rb_treeI6EValueSt4pairIKS0_PK4CityESt10_Select1stIS6_ESt4lessIS0_ESaIS6_EE13get_allocatorEv
	leaq	-17(%rbp), %rdi
	movq	%rbx, %rsi
	call	__ZN9__gnu_cxx13new_allocatorISt4pairIK6EValuePK4CityEE7destroyEPS7_
	leaq	-17(%rbp), %rdi
	call	__ZNSaISt4pairIK6EValuePK4CityEED1Ev
	.loc 10 403 0
	movq	-48(%rbp), %rsi
	movq	-40(%rbp), %rdi
	call	__ZNSt8_Rb_treeI6EValueSt4pairIKS0_PK4CityESt10_Select1stIS6_ESt4lessIS0_ESaIS6_EE11_M_put_nodeEPSt13_Rb_tree_nodeIS6_E
	addq	$40, %rsp
	popq	%rbx
	leave
	ret
LFE2324:
	.align 1
.globl __ZNSt8_Rb_treeI6EValueSt4pairIKS0_PK4CityESt10_Select1stIS6_ESt4lessIS0_ESaIS6_EE8_M_eraseEPSt13_Rb_tree_nodeIS6_E
	.weak_definition __ZNSt8_Rb_treeI6EValueSt4pairIKS0_PK4CityESt10_Select1stIS6_ESt4lessIS0_ESaIS6_EE8_M_eraseEPSt13_Rb_tree_nodeIS6_E
__ZNSt8_Rb_treeI6EValueSt4pairIKS0_PK4CityESt10_Select1stIS6_ESt4lessIS0_ESaIS6_EE8_M_eraseEPSt13_Rb_tree_nodeIS6_E:
LFB2202:
	.loc 10 1320 0
	pushq	%rbp
LCFI436:
	movq	%rsp, %rbp
LCFI437:
	subq	$32, %rsp
LCFI438:
	movq	%rdi, -24(%rbp)
	movq	%rsi, -32(%rbp)
LBB33:
LBB34:
	.loc 10 1323 0
	jmp	L399
L400:
	.loc 10 1325 0
	movq	-32(%rbp), %rdi
	call	__ZNSt8_Rb_treeI6EValueSt4pairIKS0_PK4CityESt10_Select1stIS6_ESt4lessIS0_ESaIS6_EE8_S_rightEPSt18_Rb_tree_node_base
	movq	%rax, %rsi
	movq	-24(%rbp), %rdi
	call	__ZNSt8_Rb_treeI6EValueSt4pairIKS0_PK4CityESt10_Select1stIS6_ESt4lessIS0_ESaIS6_EE8_M_eraseEPSt13_Rb_tree_nodeIS6_E
	.loc 10 1326 0
	movq	-32(%rbp), %rdi
	call	__ZNSt8_Rb_treeI6EValueSt4pairIKS0_PK4CityESt10_Select1stIS6_ESt4lessIS0_ESaIS6_EE7_S_leftEPSt18_Rb_tree_node_base
	movq	%rax, -8(%rbp)
	.loc 10 1327 0
	movq	-32(%rbp), %rsi
	movq	-24(%rbp), %rdi
	call	__ZNSt8_Rb_treeI6EValueSt4pairIKS0_PK4CityESt10_Select1stIS6_ESt4lessIS0_ESaIS6_EE15_M_destroy_nodeEPSt13_Rb_tree_nodeIS6_E
	.loc 10 1328 0
	movq	-8(%rbp), %rax
	movq	%rax, -32(%rbp)
L399:
LBE34:
	.loc 10 1323 0
	cmpq	$0, -32(%rbp)
	jne	L400
LBE33:
	.loc 10 1328 0
	leave
	ret
LFE2202:
	.align 1
.globl __ZNSt8_Rb_treeI6EValueSt4pairIKS0_PK4CityESt10_Select1stIS6_ESt4lessIS0_ESaIS6_EE5clearEv
	.weak_definition __ZNSt8_Rb_treeI6EValueSt4pairIKS0_PK4CityESt10_Select1stIS6_ESt4lessIS0_ESaIS6_EE5clearEv
__ZNSt8_Rb_treeI6EValueSt4pairIKS0_PK4CityESt10_Select1stIS6_ESt4lessIS0_ESaIS6_EE5clearEv:
LFB2286:
	.loc 10 711 0
	pushq	%rbp
LCFI439:
	movq	%rsp, %rbp
LCFI440:
	pushq	%rbx
LCFI441:
	subq	$24, %rsp
LCFI442:
	movq	%rdi, -24(%rbp)
	.loc 10 713 0
	movq	-24(%rbp), %rdi
	call	__ZNSt8_Rb_treeI6EValueSt4pairIKS0_PK4CityESt10_Select1stIS6_ESt4lessIS0_ESaIS6_EE8_M_beginEv
	movq	%rax, %rsi
	movq	-24(%rbp), %rdi
	call	__ZNSt8_Rb_treeI6EValueSt4pairIKS0_PK4CityESt10_Select1stIS6_ESt4lessIS0_ESaIS6_EE8_M_eraseEPSt13_Rb_tree_nodeIS6_E
	.loc 10 714 0
	movq	-24(%rbp), %rdi
	call	__ZNSt8_Rb_treeI6EValueSt4pairIKS0_PK4CityESt10_Select1stIS6_ESt4lessIS0_ESaIS6_EE11_M_leftmostEv
	movq	%rax, %rbx
	movq	-24(%rbp), %rdi
	call	__ZNSt8_Rb_treeI6EValueSt4pairIKS0_PK4CityESt10_Select1stIS6_ESt4lessIS0_ESaIS6_EE6_M_endEv
	movq	%rax, (%rbx)
	.loc 10 715 0
	movq	-24(%rbp), %rdi
	call	__ZNSt8_Rb_treeI6EValueSt4pairIKS0_PK4CityESt10_Select1stIS6_ESt4lessIS0_ESaIS6_EE7_M_rootEv
	movq	$0, (%rax)
	.loc 10 716 0
	movq	-24(%rbp), %rdi
	call	__ZNSt8_Rb_treeI6EValueSt4pairIKS0_PK4CityESt10_Select1stIS6_ESt4lessIS0_ESaIS6_EE12_M_rightmostEv
	movq	%rax, %rbx
	movq	-24(%rbp), %rdi
	call	__ZNSt8_Rb_treeI6EValueSt4pairIKS0_PK4CityESt10_Select1stIS6_ESt4lessIS0_ESaIS6_EE6_M_endEv
	movq	%rax, (%rbx)
	.loc 10 717 0
	movq	-24(%rbp), %rax
	movq	$0, 40(%rax)
	addq	$24, %rsp
	popq	%rbx
	leave
	ret
LFE2286:
	.align 1
.globl __ZNSt8multimapI6EValuePK4CitySt4lessIS0_ESaISt4pairIKS0_S3_EEE5clearEv
	.weak_definition __ZNSt8multimapI6EValuePK4CitySt4lessIS0_ESaISt4pairIKS0_S3_EEE5clearEv
__ZNSt8multimapI6EValuePK4CitySt4lessIS0_ESaISt4pairIKS0_S3_EEE5clearEv:
LFB2168:
	.loc 13 445 0
	pushq	%rbp
LCFI443:
	movq	%rsp, %rbp
LCFI444:
	subq	$16, %rsp
LCFI445:
	movq	%rdi, -8(%rbp)
	.loc 13 446 0
	movq	-8(%rbp), %rdi
	call	__ZNSt8_Rb_treeI6EValueSt4pairIKS0_PK4CityESt10_Select1stIS6_ESt4lessIS0_ESaIS6_EE5clearEv
	leave
	ret
LFE2168:
	.align 1
.globl __ZNSt8_Rb_treeI6EValueSt4pairIKS0_PK4CityESt10_Select1stIS6_ESt4lessIS0_ESaIS6_EED1Ev
	.weak_definition __ZNSt8_Rb_treeI6EValueSt4pairIKS0_PK4CityESt10_Select1stIS6_ESt4lessIS0_ESaIS6_EED1Ev
__ZNSt8_Rb_treeI6EValueSt4pairIKS0_PK4CityESt10_Select1stIS6_ESt4lessIS0_ESaIS6_EED1Ev:
LFB2106:
	.loc 10 593 0
	pushq	%rbp
LCFI446:
	movq	%rsp, %rbp
LCFI447:
	pushq	%rbx
LCFI448:
	subq	$40, %rsp
LCFI449:
	movq	%rdi, -24(%rbp)
	.loc 10 594 0
	movq	-24(%rbp), %rdi
	call	__ZNSt8_Rb_treeI6EValueSt4pairIKS0_PK4CityESt10_Select1stIS6_ESt4lessIS0_ESaIS6_EE8_M_beginEv
	movq	%rax, %rsi
	movq	-24(%rbp), %rdi
LEHB3:
	call	__ZNSt8_Rb_treeI6EValueSt4pairIKS0_PK4CityESt10_Select1stIS6_ESt4lessIS0_ESaIS6_EE8_M_eraseEPSt13_Rb_tree_nodeIS6_E
LEHE3:
	movq	-24(%rbp), %rax
	movq	%rax, -32(%rbp)
	movq	-32(%rbp), %rdi
	call	__ZNSt8_Rb_treeI6EValueSt4pairIKS0_PK4CityESt10_Select1stIS6_ESt4lessIS0_ESaIS6_EE13_Rb_tree_implISA_Lb0EED1Ev
	jmp	L410
L411:
	movq	%rax, -40(%rbp)
L409:
	movq	-40(%rbp), %rbx
	movq	-24(%rbp), %rax
	movq	%rax, -32(%rbp)
	movq	-32(%rbp), %rdi
	call	__ZNSt8_Rb_treeI6EValueSt4pairIKS0_PK4CityESt10_Select1stIS6_ESt4lessIS0_ESaIS6_EE13_Rb_tree_implISA_Lb0EED1Ev
	movq	%rbx, -40(%rbp)
	movq	-40(%rbp), %rdi
LEHB4:
	call	__Unwind_Resume
LEHE4:
L410:
	addq	$40, %rsp
	popq	%rbx
	leave
	ret
LFE2106:
	.section __TEXT,__gcc_except_tab
GCC_except_table1:
LLSDA2106:
	.byte	0xff
	.byte	0xff
	.byte	0x3
	.byte	0x1a
	.set L$set$7,LEHB3-LFB2106
	.long L$set$7
	.set L$set$8,LEHE3-LEHB3
	.long L$set$8
	.set L$set$9,L411-LFB2106
	.long L$set$9
	.byte	0x0
	.set L$set$10,LEHB4-LFB2106
	.long L$set$10
	.set L$set$11,LEHE4-LEHB4
	.long L$set$11
	.long	0x0
	.byte	0x0
	.section __TEXT,__textcoal_nt,coalesced,pure_instructions
	.align 1
.globl __ZNSt8multimapI6EValuePK4CitySt4lessIS0_ESaISt4pairIKS0_S3_EEED1Ev
	.weak_definition __ZNSt8multimapI6EValuePK4CitySt4lessIS0_ESaISt4pairIKS0_S3_EEED1Ev
__ZNSt8multimapI6EValuePK4CitySt4lessIS0_ESaISt4pairIKS0_S3_EEED1Ev:
LFB2061:
	.loc 13 93 0
	pushq	%rbp
LCFI450:
	movq	%rsp, %rbp
LCFI451:
	subq	$16, %rsp
LCFI452:
	movq	%rdi, -8(%rbp)
	.loc 13 93 0
	movq	-8(%rbp), %rdi
	call	__ZNSt8_Rb_treeI6EValueSt4pairIKS0_PK4CityESt10_Select1stIS6_ESt4lessIS0_ESaIS6_EED1Ev
	leave
	ret
LFE2061:
	.align 1
.globl __ZN9__gnu_cxx13new_allocatorIPK10CoordinateE10deallocateEPS3_m
	.weak_definition __ZN9__gnu_cxx13new_allocatorIPK10CoordinateE10deallocateEPS3_m
__ZN9__gnu_cxx13new_allocatorIPK10CoordinateE10deallocateEPS3_m:
LFB2358:
	.loc 14 96 0
	pushq	%rbp
LCFI453:
	movq	%rsp, %rbp
LCFI454:
	subq	$32, %rsp
LCFI455:
	movq	%rdi, -8(%rbp)
	movq	%rsi, -16(%rbp)
	movq	%rdx, -24(%rbp)
	.loc 14 97 0
	movq	-16(%rbp), %rdi
	call	__ZdlPv
	leave
	ret
LFE2358:
	.align 1
.globl __ZNSt12_Vector_baseIPK10CoordinateSaIS2_EE13_M_deallocateEPS2_m
	.weak_definition __ZNSt12_Vector_baseIPK10CoordinateSaIS2_EE13_M_deallocateEPS2_m
__ZNSt12_Vector_baseIPK10CoordinateSaIS2_EE13_M_deallocateEPS2_m:
LFB2266:
	.loc 11 134 0
	pushq	%rbp
LCFI456:
	movq	%rsp, %rbp
LCFI457:
	subq	$32, %rsp
LCFI458:
	movq	%rdi, -8(%rbp)
	movq	%rsi, -16(%rbp)
	movq	%rdx, -24(%rbp)
	.loc 11 136 0
	cmpq	$0, -16(%rbp)
	je	L420
	.loc 11 137 0
	movq	-8(%rbp), %rax
	movq	%rax, %rdi
	movq	-24(%rbp), %rdx
	movq	-16(%rbp), %rsi
	call	__ZN9__gnu_cxx13new_allocatorIPK10CoordinateE10deallocateEPS3_m
L420:
	leave
	ret
LFE2266:
	.align 1
.globl __ZNSt12_Vector_baseIPK10CoordinateSaIS2_EED2Ev
	.weak_definition __ZNSt12_Vector_baseIPK10CoordinateSaIS2_EED2Ev
__ZNSt12_Vector_baseIPK10CoordinateSaIS2_EED2Ev:
LFB2252:
	.loc 11 122 0
	pushq	%rbp
LCFI459:
	movq	%rsp, %rbp
LCFI460:
	subq	$16, %rsp
LCFI461:
	movq	%rdi, -8(%rbp)
	.loc 11 123 0
	movq	-8(%rbp), %rax
	movq	16(%rax), %rax
	movq	%rax, %rdx
	movq	-8(%rbp), %rax
	movq	(%rax), %rax
	movq	%rdx, %rcx
	subq	%rax, %rcx
	movq	%rcx, %rax
	sarq	$3, %rax
	movq	%rax, %rdx
	movq	-8(%rbp), %rax
	movq	(%rax), %rsi
	movq	-8(%rbp), %rdi
	call	__ZNSt12_Vector_baseIPK10CoordinateSaIS2_EE13_M_deallocateEPS2_m
	movq	-8(%rbp), %rdi
	call	__ZNSt12_Vector_baseIPK10CoordinateSaIS2_EE12_Vector_implD1Ev
	leave
	ret
LFE2252:
	.align 1
.globl __ZNSt6vectorIPK10CoordinateSaIS2_EED1Ev
	.weak_definition __ZNSt6vectorIPK10CoordinateSaIS2_EED1Ev
__ZNSt6vectorIPK10CoordinateSaIS2_EED1Ev:
LFB2142:
	.loc 11 270 0
	pushq	%rbp
LCFI462:
	movq	%rsp, %rbp
LCFI463:
	subq	$32, %rsp
LCFI464:
	movq	%rdi, -24(%rbp)
	.loc 11 271 0
	movq	-24(%rbp), %rdi
	call	__ZNSt12_Vector_baseIPK10CoordinateSaIS2_EE19_M_get_Tp_allocatorEv
	movq	%rax, %rsi
	leaq	-1(%rbp), %rdi
	call	__ZNSaIPK10CoordinateEC1ERKS2_
	movq	-24(%rbp), %rax
	movq	8(%rax), %rsi
	movq	-24(%rbp), %rax
	movq	(%rax), %rdi
	leaq	-1(%rbp), %rdx
	call	__ZSt8_DestroyIPPK10CoordinateS2_EvT_S4_SaIT0_E
	leaq	-1(%rbp), %rdi
	call	__ZNSaIPK10CoordinateED1Ev
	movq	-24(%rbp), %rdi
	call	__ZNSt12_Vector_baseIPK10CoordinateSaIS2_EED2Ev
	leave
	ret
LFE2142:
.globl __ZNSt15__copy_backwardILb1ESt26random_access_iterator_tagE8__copy_bIPK10ConnectionEEPT_PKS6_S9_S7_
	.weak_definition __ZNSt15__copy_backwardILb1ESt26random_access_iterator_tagE8__copy_bIPK10ConnectionEEPT_PKS6_S9_S7_
__ZNSt15__copy_backwardILb1ESt26random_access_iterator_tagE8__copy_bIPK10ConnectionEEPT_PKS6_S9_S7_:
LFB2440:
	.loc 6 443 0
	pushq	%rbp
LCFI465:
	movq	%rsp, %rbp
LCFI466:
	subq	$48, %rsp
LCFI467:
	movq	%rdi, -24(%rbp)
	movq	%rsi, -32(%rbp)
	movq	%rdx, -40(%rbp)
LBB35:
	.loc 6 445 0
	movq	-32(%rbp), %rdx
	movq	-24(%rbp), %rax
	movq	%rdx, %rcx
	subq	%rax, %rcx
	movq	%rcx, %rax
	sarq	$3, %rax
	movq	%rax, -8(%rbp)
	.loc 6 446 0
	movq	-8(%rbp), %rax
	leaq	0(,%rax,8), %rcx
	movq	-8(%rbp), %rax
	salq	$3, %rax
	movq	%rax, %rdx
	movq	-40(%rbp), %rax
	movq	%rax, %rdi
	subq	%rdx, %rdi
	movq	-24(%rbp), %rsi
	movq	%rcx, %rdx
	call	_memmove
	.loc 6 447 0
	movq	-8(%rbp), %rax
	salq	$3, %rax
	movq	%rax, %rdx
	movq	-40(%rbp), %rax
	subq	%rdx, %rax
LBE35:
	leave
	ret
LFE2440:
.globl __ZSt19__copy_backward_auxIPPK10ConnectionS3_ET0_T_S5_S4_
	.weak_definition __ZSt19__copy_backward_auxIPPK10ConnectionS3_ET0_T_S5_S4_
__ZSt19__copy_backward_auxIPPK10ConnectionS3_ET0_T_S5_S4_:
LFB2430:
	.loc 6 453 0
	pushq	%rbp
LCFI468:
	movq	%rsp, %rbp
LCFI469:
	subq	$48, %rsp
LCFI470:
	movq	%rdi, -24(%rbp)
	movq	%rsi, -32(%rbp)
	movq	%rdx, -40(%rbp)
LBB36:
	.loc 6 461 0
	movb	$1, -1(%rbp)
	.loc 6 465 0
	movq	-40(%rbp), %rdx
	movq	-32(%rbp), %rsi
	movq	-24(%rbp), %rdi
	call	__ZNSt15__copy_backwardILb1ESt26random_access_iterator_tagE8__copy_bIPK10ConnectionEEPT_PKS6_S9_S7_
LBE36:
	leave
	ret
LFE2430:
.globl __ZNSt22__copy_backward_normalILb0ELb0EE10__copy_b_nIPPK10ConnectionS5_EET0_T_S7_S6_
	.weak_definition __ZNSt22__copy_backward_normalILb0ELb0EE10__copy_b_nIPPK10ConnectionS5_EET0_T_S7_S6_
__ZNSt22__copy_backward_normalILb0ELb0EE10__copy_b_nIPPK10ConnectionS5_EET0_T_S7_S6_:
LFB2405:
	.loc 6 473 0
	pushq	%rbp
LCFI471:
	movq	%rsp, %rbp
LCFI472:
	subq	$32, %rsp
LCFI473:
	movq	%rdi, -8(%rbp)
	movq	%rsi, -16(%rbp)
	movq	%rdx, -24(%rbp)
	.loc 6 474 0
	movq	-24(%rbp), %rdx
	movq	-16(%rbp), %rsi
	movq	-8(%rbp), %rdi
	call	__ZSt19__copy_backward_auxIPPK10ConnectionS3_ET0_T_S5_S4_
	leave
	ret
LFE2405:
.globl __ZSt13copy_backwardIPPK10ConnectionS3_ET0_T_S5_S4_
	.weak_definition __ZSt13copy_backwardIPPK10ConnectionS3_ET0_T_S5_S4_
__ZSt13copy_backwardIPPK10ConnectionS3_ET0_T_S5_S4_:
LFB2364:
	.loc 6 526 0
	pushq	%rbp
LCFI474:
	movq	%rsp, %rbp
LCFI475:
	subq	$48, %rsp
LCFI476:
	movq	%rdi, -24(%rbp)
	movq	%rsi, -32(%rbp)
	movq	%rdx, -40(%rbp)
LBB37:
	.loc 6 536 0
	movb	$0, -1(%rbp)
	.loc 6 537 0
	movb	$0, -2(%rbp)
	.loc 6 540 0
	movq	-40(%rbp), %rdx
	movq	-32(%rbp), %rsi
	movq	-24(%rbp), %rdi
	call	__ZNSt22__copy_backward_normalILb0ELb0EE10__copy_b_nIPPK10ConnectionS5_EET0_T_S7_S6_
LBE37:
	leave
	ret
LFE2364:
.globl __ZNSt6__copyILb1ESt26random_access_iterator_tagE4copyIPK10ConnectionEEPT_PKS6_S9_S7_
	.weak_definition __ZNSt6__copyILb1ESt26random_access_iterator_tagE4copyIPK10ConnectionEEPT_PKS6_S9_S7_
__ZNSt6__copyILb1ESt26random_access_iterator_tagE4copyIPK10ConnectionEEPT_PKS6_S9_S7_:
LFB2426:
	.loc 6 296 0
	pushq	%rbp
LCFI477:
	movq	%rsp, %rbp
LCFI478:
	subq	$32, %rsp
LCFI479:
	movq	%rdi, -8(%rbp)
	movq	%rsi, -16(%rbp)
	movq	%rdx, -24(%rbp)
	.loc 6 298 0
	movq	-16(%rbp), %rdx
	movq	-8(%rbp), %rax
	movq	%rdx, %rcx
	subq	%rax, %rcx
	movq	%rcx, %rax
	sarq	$3, %rax
	leaq	0(,%rax,8), %rdx
	movq	-8(%rbp), %rsi
	movq	-24(%rbp), %rdi
	call	_memmove
	.loc 6 299 0
	movq	-16(%rbp), %rdx
	movq	-8(%rbp), %rax
	movq	%rdx, %rcx
	subq	%rax, %rcx
	movq	%rcx, %rax
	sarq	$3, %rax
	salq	$3, %rax
	addq	-24(%rbp), %rax
	leave
	ret
LFE2426:
.globl __ZSt10__copy_auxIPPK10ConnectionS3_ET0_T_S5_S4_
	.weak_definition __ZSt10__copy_auxIPPK10ConnectionS3_ET0_T_S5_S4_
__ZSt10__copy_auxIPPK10ConnectionS3_ET0_T_S5_S4_:
LFB2392:
	.loc 6 305 0
	pushq	%rbp
LCFI480:
	movq	%rsp, %rbp
LCFI481:
	subq	$48, %rsp
LCFI482:
	movq	%rdi, -24(%rbp)
	movq	%rsi, -32(%rbp)
	movq	%rdx, -40(%rbp)
LBB38:
	.loc 6 313 0
	movb	$1, -1(%rbp)
	.loc 6 315 0
	movq	-40(%rbp), %rdx
	movq	-32(%rbp), %rsi
	movq	-24(%rbp), %rdi
	call	__ZNSt6__copyILb1ESt26random_access_iterator_tagE4copyIPK10ConnectionEEPT_PKS6_S9_S7_
LBE38:
	leave
	ret
LFE2392:
.globl __ZNSt13__copy_normalILb1ELb1EE8__copy_nIN9__gnu_cxx17__normal_iteratorIPPK10ConnectionSt6vectorIS6_SaIS6_EEEESB_EET0_T_SD_SC_
	.weak_definition __ZNSt13__copy_normalILb1ELb1EE8__copy_nIN9__gnu_cxx17__normal_iteratorIPPK10ConnectionSt6vectorIS6_SaIS6_EEEESB_EET0_T_SD_SC_
__ZNSt13__copy_normalILb1ELb1EE8__copy_nIN9__gnu_cxx17__normal_iteratorIPPK10ConnectionSt6vectorIS6_SaIS6_EEEESB_EET0_T_SD_SC_:
LFB2433:
	.loc 6 366 0
	pushq	%rbp
LCFI483:
	movq	%rsp, %rbp
LCFI484:
	pushq	%r12
LCFI485:
	pushq	%rbx
LCFI486:
	subq	$48, %rsp
LCFI487:
	movq	%rdi, -40(%rbp)
	movq	%rsi, -48(%rbp)
	movq	%rdx, -56(%rbp)
	.loc 6 368 0
	leaq	-56(%rbp), %rdi
	call	__ZNK9__gnu_cxx17__normal_iteratorIPPK10ConnectionSt6vectorIS3_SaIS3_EEE4baseEv
	movq	(%rax), %r12
	leaq	-48(%rbp), %rdi
	call	__ZNK9__gnu_cxx17__normal_iteratorIPPK10ConnectionSt6vectorIS3_SaIS3_EEE4baseEv
	movq	(%rax), %rbx
	leaq	-40(%rbp), %rdi
	call	__ZNK9__gnu_cxx17__normal_iteratorIPPK10ConnectionSt6vectorIS3_SaIS3_EEE4baseEv
	movq	(%rax), %rdi
	movq	%r12, %rdx
	movq	%rbx, %rsi
	call	__ZSt10__copy_auxIPPK10ConnectionS3_ET0_T_S5_S4_
	movq	%rax, -24(%rbp)
	leaq	-24(%rbp), %rsi
	leaq	-32(%rbp), %rdi
	call	__ZN9__gnu_cxx17__normal_iteratorIPPK10ConnectionSt6vectorIS3_SaIS3_EEEC1ERKS4_
	movq	-32(%rbp), %rax
	addq	$48, %rsp
	popq	%rbx
	popq	%r12
	leave
	ret
LFE2433:
.globl __ZSt4copyIN9__gnu_cxx17__normal_iteratorIPPK10ConnectionSt6vectorIS4_SaIS4_EEEES9_ET0_T_SB_SA_
	.weak_definition __ZSt4copyIN9__gnu_cxx17__normal_iteratorIPPK10ConnectionSt6vectorIS4_SaIS4_EEEES9_ET0_T_SB_SA_
__ZSt4copyIN9__gnu_cxx17__normal_iteratorIPPK10ConnectionSt6vectorIS4_SaIS4_EEEES9_ET0_T_SB_SA_:
LFB2410:
	.loc 6 390 0
	pushq	%rbp
LCFI488:
	movq	%rsp, %rbp
LCFI489:
	subq	$48, %rsp
LCFI490:
	movq	%rdi, -24(%rbp)
	movq	%rsi, -32(%rbp)
	movq	%rdx, -40(%rbp)
LBB39:
	.loc 6 398 0
	movb	$1, -1(%rbp)
	.loc 6 399 0
	movb	$1, -2(%rbp)
	.loc 6 401 0
	movq	-40(%rbp), %rdx
	movq	-32(%rbp), %rsi
	movq	-24(%rbp), %rdi
	call	__ZNSt13__copy_normalILb1ELb1EE8__copy_nIN9__gnu_cxx17__normal_iteratorIPPK10ConnectionSt6vectorIS6_SaIS6_EEEESB_EET0_T_SD_SC_
LBE39:
	leave
	ret
LFE2410:
.globl __ZNSt13__copy_normalILb1ELb0EE8__copy_nIN9__gnu_cxx17__normal_iteratorIPPK10ConnectionSt6vectorIS6_SaIS6_EEEES7_EET0_T_SD_SC_
	.weak_definition __ZNSt13__copy_normalILb1ELb0EE8__copy_nIN9__gnu_cxx17__normal_iteratorIPPK10ConnectionSt6vectorIS6_SaIS6_EEEES7_EET0_T_SD_SC_
__ZNSt13__copy_normalILb1ELb0EE8__copy_nIN9__gnu_cxx17__normal_iteratorIPPK10ConnectionSt6vectorIS6_SaIS6_EEEES7_EET0_T_SD_SC_:
LFB2446:
	.loc 6 348 0
	pushq	%rbp
LCFI491:
	movq	%rsp, %rbp
LCFI492:
	pushq	%rbx
LCFI493:
	subq	$40, %rsp
LCFI494:
	movq	%rdi, -24(%rbp)
	movq	%rsi, -32(%rbp)
	movq	%rdx, -40(%rbp)
	.loc 6 349 0
	leaq	-32(%rbp), %rdi
	call	__ZNK9__gnu_cxx17__normal_iteratorIPPK10ConnectionSt6vectorIS3_SaIS3_EEE4baseEv
	movq	(%rax), %rbx
	leaq	-24(%rbp), %rdi
	call	__ZNK9__gnu_cxx17__normal_iteratorIPPK10ConnectionSt6vectorIS3_SaIS3_EEE4baseEv
	movq	(%rax), %rdi
	movq	-40(%rbp), %rdx
	movq	%rbx, %rsi
	call	__ZSt10__copy_auxIPPK10ConnectionS3_ET0_T_S5_S4_
	addq	$40, %rsp
	popq	%rbx
	leave
	ret
LFE2446:
.globl __ZSt4copyIN9__gnu_cxx17__normal_iteratorIPPK10ConnectionSt6vectorIS4_SaIS4_EEEES5_ET0_T_SB_SA_
	.weak_definition __ZSt4copyIN9__gnu_cxx17__normal_iteratorIPPK10ConnectionSt6vectorIS4_SaIS4_EEEES5_ET0_T_SB_SA_
__ZSt4copyIN9__gnu_cxx17__normal_iteratorIPPK10ConnectionSt6vectorIS4_SaIS4_EEEES5_ET0_T_SB_SA_:
LFB2445:
	.loc 6 390 0
	pushq	%rbp
LCFI495:
	movq	%rsp, %rbp
LCFI496:
	subq	$48, %rsp
LCFI497:
	movq	%rdi, -24(%rbp)
	movq	%rsi, -32(%rbp)
	movq	%rdx, -40(%rbp)
LBB40:
	.loc 6 398 0
	movb	$1, -1(%rbp)
	.loc 6 399 0
	movb	$0, -2(%rbp)
	.loc 6 401 0
	movq	-40(%rbp), %rdx
	movq	-32(%rbp), %rsi
	movq	-24(%rbp), %rdi
	call	__ZNSt13__copy_normalILb1ELb0EE8__copy_nIN9__gnu_cxx17__normal_iteratorIPPK10ConnectionSt6vectorIS6_SaIS6_EEEES7_EET0_T_SD_SC_
LBE40:
	leave
	ret
LFE2445:
.globl __ZSt24__uninitialized_copy_auxIN9__gnu_cxx17__normal_iteratorIPPK10ConnectionSt6vectorIS4_SaIS4_EEEES5_ET0_T_SB_SA_St11__true_type
	.weak_definition __ZSt24__uninitialized_copy_auxIN9__gnu_cxx17__normal_iteratorIPPK10ConnectionSt6vectorIS4_SaIS4_EEEES5_ET0_T_SB_SA_St11__true_type
__ZSt24__uninitialized_copy_auxIN9__gnu_cxx17__normal_iteratorIPPK10ConnectionSt6vectorIS4_SaIS4_EEEES5_ET0_T_SB_SA_St11__true_type:
LFB2442:
	.file 21 "/usr/include/c++/4.2.1/bits/stl_uninitialized.h"
	.loc 21 74 0
	pushq	%rbp
LCFI498:
	movq	%rsp, %rbp
LCFI499:
	subq	$32, %rsp
LCFI500:
	movq	%rdi, -8(%rbp)
	movq	%rsi, -16(%rbp)
	movq	%rdx, -24(%rbp)
	.loc 21 75 0
	movq	-24(%rbp), %rdx
	movq	-16(%rbp), %rsi
	movq	-8(%rbp), %rdi
	call	__ZSt4copyIN9__gnu_cxx17__normal_iteratorIPPK10ConnectionSt6vectorIS4_SaIS4_EEEES5_ET0_T_SB_SA_
	leave
	ret
LFE2442:
.globl __ZSt18uninitialized_copyIN9__gnu_cxx17__normal_iteratorIPPK10ConnectionSt6vectorIS4_SaIS4_EEEES5_ET0_T_SB_SA_
	.weak_definition __ZSt18uninitialized_copyIN9__gnu_cxx17__normal_iteratorIPPK10ConnectionSt6vectorIS4_SaIS4_EEEES5_ET0_T_SB_SA_
__ZSt18uninitialized_copyIN9__gnu_cxx17__normal_iteratorIPPK10ConnectionSt6vectorIS4_SaIS4_EEEES5_ET0_T_SB_SA_:
LFB2435:
	.loc 21 109 0
	pushq	%rbp
LCFI501:
	movq	%rsp, %rbp
LCFI502:
	subq	$48, %rsp
LCFI503:
	movq	%rdi, -8(%rbp)
	movq	%rsi, -16(%rbp)
	movq	%rdx, -24(%rbp)
LBB41:
	.loc 21 114 0
	movq	-24(%rbp), %rdx
	movq	-16(%rbp), %rsi
	movq	-8(%rbp), %rdi
	movzbl	-25(%rbp), %eax
	movb	%al, (%rsp)
	call	__ZSt24__uninitialized_copy_auxIN9__gnu_cxx17__normal_iteratorIPPK10ConnectionSt6vectorIS4_SaIS4_EEEES5_ET0_T_SB_SA_St11__true_type
LBE41:
	leave
	ret
LFE2435:
.globl __ZSt22__uninitialized_copy_aIN9__gnu_cxx17__normal_iteratorIPPK10ConnectionSt6vectorIS4_SaIS4_EEEES5_S4_ET0_T_SB_SA_SaIT1_E
	.weak_definition __ZSt22__uninitialized_copy_aIN9__gnu_cxx17__normal_iteratorIPPK10ConnectionSt6vectorIS4_SaIS4_EEEES5_S4_ET0_T_SB_SA_SaIT1_E
__ZSt22__uninitialized_copy_aIN9__gnu_cxx17__normal_iteratorIPPK10ConnectionSt6vectorIS4_SaIS4_EEEES5_S4_ET0_T_SB_SA_SaIT1_E:
LFB2412:
	.loc 21 253 0
	pushq	%rbp
LCFI504:
	movq	%rsp, %rbp
LCFI505:
	subq	$32, %rsp
LCFI506:
	movq	%rdi, -8(%rbp)
	movq	%rsi, -16(%rbp)
	movq	%rdx, -24(%rbp)
	movq	%rcx, -32(%rbp)
	.loc 21 254 0
	movq	-24(%rbp), %rdx
	movq	-16(%rbp), %rsi
	movq	-8(%rbp), %rdi
	call	__ZSt18uninitialized_copyIN9__gnu_cxx17__normal_iteratorIPPK10ConnectionSt6vectorIS4_SaIS4_EEEES5_ET0_T_SB_SA_
	leave
	ret
LFE2412:
.globl __ZNSt13__copy_normalILb0ELb0EE8__copy_nIPPK10ConnectionS5_EET0_T_S7_S6_
	.weak_definition __ZNSt13__copy_normalILb0ELb0EE8__copy_nIPPK10ConnectionS5_EET0_T_S7_S6_
__ZNSt13__copy_normalILb0ELb0EE8__copy_nIPPK10ConnectionS5_EET0_T_S7_S6_:
LFB2345:
	.loc 6 339 0
	pushq	%rbp
LCFI507:
	movq	%rsp, %rbp
LCFI508:
	subq	$32, %rsp
LCFI509:
	movq	%rdi, -8(%rbp)
	movq	%rsi, -16(%rbp)
	movq	%rdx, -24(%rbp)
	.loc 6 340 0
	movq	-24(%rbp), %rdx
	movq	-16(%rbp), %rsi
	movq	-8(%rbp), %rdi
	call	__ZSt10__copy_auxIPPK10ConnectionS3_ET0_T_S5_S4_
	leave
	ret
LFE2345:
.globl __ZSt4copyIPPK10ConnectionS3_ET0_T_S5_S4_
	.weak_definition __ZSt4copyIPPK10ConnectionS3_ET0_T_S5_S4_
__ZSt4copyIPPK10ConnectionS3_ET0_T_S5_S4_:
LFB2234:
	.loc 6 390 0
	pushq	%rbp
LCFI510:
	movq	%rsp, %rbp
LCFI511:
	subq	$48, %rsp
LCFI512:
	movq	%rdi, -24(%rbp)
	movq	%rsi, -32(%rbp)
	movq	%rdx, -40(%rbp)
LBB42:
	.loc 6 398 0
	movb	$0, -1(%rbp)
	.loc 6 399 0
	movb	$0, -2(%rbp)
	.loc 6 401 0
	movq	-40(%rbp), %rdx
	movq	-32(%rbp), %rsi
	movq	-24(%rbp), %rdi
	call	__ZNSt13__copy_normalILb0ELb0EE8__copy_nIPPK10ConnectionS5_EET0_T_S7_S6_
LBE42:
	leave
	ret
LFE2234:
.globl __ZSt24__uninitialized_copy_auxIPPK10ConnectionS3_ET0_T_S5_S4_St11__true_type
	.weak_definition __ZSt24__uninitialized_copy_auxIPPK10ConnectionS3_ET0_T_S5_S4_St11__true_type
__ZSt24__uninitialized_copy_auxIPPK10ConnectionS3_ET0_T_S5_S4_St11__true_type:
LFB2393:
	.loc 21 74 0
	pushq	%rbp
LCFI513:
	movq	%rsp, %rbp
LCFI514:
	subq	$32, %rsp
LCFI515:
	movq	%rdi, -8(%rbp)
	movq	%rsi, -16(%rbp)
	movq	%rdx, -24(%rbp)
	.loc 21 75 0
	movq	-24(%rbp), %rdx
	movq	-16(%rbp), %rsi
	movq	-8(%rbp), %rdi
	call	__ZSt4copyIPPK10ConnectionS3_ET0_T_S5_S4_
	leave
	ret
LFE2393:
.globl __ZSt18uninitialized_copyIPPK10ConnectionS3_ET0_T_S5_S4_
	.weak_definition __ZSt18uninitialized_copyIPPK10ConnectionS3_ET0_T_S5_S4_
__ZSt18uninitialized_copyIPPK10ConnectionS3_ET0_T_S5_S4_:
LFB2346:
	.loc 21 109 0
	pushq	%rbp
LCFI516:
	movq	%rsp, %rbp
LCFI517:
	subq	$48, %rsp
LCFI518:
	movq	%rdi, -8(%rbp)
	movq	%rsi, -16(%rbp)
	movq	%rdx, -24(%rbp)
LBB43:
	.loc 21 114 0
	movq	-24(%rbp), %rdx
	movq	-16(%rbp), %rsi
	movq	-8(%rbp), %rdi
	movzbl	-25(%rbp), %eax
	movb	%al, (%rsp)
	call	__ZSt24__uninitialized_copy_auxIPPK10ConnectionS3_ET0_T_S5_S4_St11__true_type
LBE43:
	leave
	ret
LFE2346:
.globl __ZSt22__uninitialized_copy_aIPPK10ConnectionS3_S2_ET0_T_S5_S4_SaIT1_E
	.weak_definition __ZSt22__uninitialized_copy_aIPPK10ConnectionS3_S2_ET0_T_S5_S4_SaIT1_E
__ZSt22__uninitialized_copy_aIPPK10ConnectionS3_S2_ET0_T_S5_S4_SaIT1_E:
LFB2235:
	.loc 21 253 0
	pushq	%rbp
LCFI519:
	movq	%rsp, %rbp
LCFI520:
	subq	$32, %rsp
LCFI521:
	movq	%rdi, -8(%rbp)
	movq	%rsi, -16(%rbp)
	movq	%rdx, -24(%rbp)
	movq	%rcx, -32(%rbp)
	.loc 21 254 0
	movq	-24(%rbp), %rdx
	movq	-16(%rbp), %rsi
	movq	-8(%rbp), %rdi
	call	__ZSt18uninitialized_copyIPPK10ConnectionS3_ET0_T_S5_S4_
	leave
	ret
LFE2235:
.globl __ZSt10__copy_auxIPKPK10ConnectionPS2_ET0_T_S7_S6_
	.weak_definition __ZSt10__copy_auxIPKPK10ConnectionPS2_ET0_T_S7_S6_
__ZSt10__copy_auxIPKPK10ConnectionPS2_ET0_T_S7_S6_:
LFB2390:
	.loc 6 305 0
	pushq	%rbp
LCFI522:
	movq	%rsp, %rbp
LCFI523:
	subq	$48, %rsp
LCFI524:
	movq	%rdi, -24(%rbp)
	movq	%rsi, -32(%rbp)
	movq	%rdx, -40(%rbp)
LBB44:
	.loc 6 313 0
	movb	$1, -1(%rbp)
	.loc 6 315 0
	movq	-40(%rbp), %rdx
	movq	-32(%rbp), %rsi
	movq	-24(%rbp), %rdi
	call	__ZNSt6__copyILb1ESt26random_access_iterator_tagE4copyIPK10ConnectionEEPT_PKS6_S9_S7_
LBE44:
	leave
	ret
LFE2390:
.globl __ZNSt13__copy_normalILb1ELb0EE8__copy_nIN9__gnu_cxx17__normal_iteratorIPKPK10ConnectionSt6vectorIS6_SaIS6_EEEEPS6_EET0_T_SF_SE_
	.weak_definition __ZNSt13__copy_normalILb1ELb0EE8__copy_nIN9__gnu_cxx17__normal_iteratorIPKPK10ConnectionSt6vectorIS6_SaIS6_EEEEPS6_EET0_T_SF_SE_
__ZNSt13__copy_normalILb1ELb0EE8__copy_nIN9__gnu_cxx17__normal_iteratorIPKPK10ConnectionSt6vectorIS6_SaIS6_EEEEPS6_EET0_T_SF_SE_:
LFB2437:
	.loc 6 348 0
	pushq	%rbp
LCFI525:
	movq	%rsp, %rbp
LCFI526:
	pushq	%rbx
LCFI527:
	subq	$40, %rsp
LCFI528:
	movq	%rdi, -24(%rbp)
	movq	%rsi, -32(%rbp)
	movq	%rdx, -40(%rbp)
	.loc 6 349 0
	leaq	-32(%rbp), %rdi
	call	__ZNK9__gnu_cxx17__normal_iteratorIPKPK10ConnectionSt6vectorIS3_SaIS3_EEE4baseEv
	movq	(%rax), %rbx
	leaq	-24(%rbp), %rdi
	call	__ZNK9__gnu_cxx17__normal_iteratorIPKPK10ConnectionSt6vectorIS3_SaIS3_EEE4baseEv
	movq	(%rax), %rdi
	movq	-40(%rbp), %rdx
	movq	%rbx, %rsi
	call	__ZSt10__copy_auxIPKPK10ConnectionPS2_ET0_T_S7_S6_
	addq	$40, %rsp
	popq	%rbx
	leave
	ret
LFE2437:
.globl __ZSt4copyIN9__gnu_cxx17__normal_iteratorIPKPK10ConnectionSt6vectorIS4_SaIS4_EEEEPS4_ET0_T_SD_SC_
	.weak_definition __ZSt4copyIN9__gnu_cxx17__normal_iteratorIPKPK10ConnectionSt6vectorIS4_SaIS4_EEEEPS4_ET0_T_SD_SC_
__ZSt4copyIN9__gnu_cxx17__normal_iteratorIPKPK10ConnectionSt6vectorIS4_SaIS4_EEEEPS4_ET0_T_SD_SC_:
LFB2425:
	.loc 6 390 0
	pushq	%rbp
LCFI529:
	movq	%rsp, %rbp
LCFI530:
	subq	$48, %rsp
LCFI531:
	movq	%rdi, -24(%rbp)
	movq	%rsi, -32(%rbp)
	movq	%rdx, -40(%rbp)
LBB45:
	.loc 6 398 0
	movb	$1, -1(%rbp)
	.loc 6 399 0
	movb	$0, -2(%rbp)
	.loc 6 401 0
	movq	-40(%rbp), %rdx
	movq	-32(%rbp), %rsi
	movq	-24(%rbp), %rdi
	call	__ZNSt13__copy_normalILb1ELb0EE8__copy_nIN9__gnu_cxx17__normal_iteratorIPKPK10ConnectionSt6vectorIS6_SaIS6_EEEEPS6_EET0_T_SF_SE_
LBE45:
	leave
	ret
LFE2425:
.globl __ZSt24__uninitialized_copy_auxIN9__gnu_cxx17__normal_iteratorIPKPK10ConnectionSt6vectorIS4_SaIS4_EEEEPS4_ET0_T_SD_SC_St11__true_type
	.weak_definition __ZSt24__uninitialized_copy_auxIN9__gnu_cxx17__normal_iteratorIPKPK10ConnectionSt6vectorIS4_SaIS4_EEEEPS4_ET0_T_SD_SC_St11__true_type
__ZSt24__uninitialized_copy_auxIN9__gnu_cxx17__normal_iteratorIPKPK10ConnectionSt6vectorIS4_SaIS4_EEEEPS4_ET0_T_SD_SC_St11__true_type:
LFB2388:
	.loc 21 74 0
	pushq	%rbp
LCFI532:
	movq	%rsp, %rbp
LCFI533:
	subq	$32, %rsp
LCFI534:
	movq	%rdi, -8(%rbp)
	movq	%rsi, -16(%rbp)
	movq	%rdx, -24(%rbp)
	.loc 21 75 0
	movq	-24(%rbp), %rdx
	movq	-16(%rbp), %rsi
	movq	-8(%rbp), %rdi
	call	__ZSt4copyIN9__gnu_cxx17__normal_iteratorIPKPK10ConnectionSt6vectorIS4_SaIS4_EEEEPS4_ET0_T_SD_SC_
	leave
	ret
LFE2388:
.globl __ZSt18uninitialized_copyIN9__gnu_cxx17__normal_iteratorIPKPK10ConnectionSt6vectorIS4_SaIS4_EEEEPS4_ET0_T_SD_SC_
	.weak_definition __ZSt18uninitialized_copyIN9__gnu_cxx17__normal_iteratorIPKPK10ConnectionSt6vectorIS4_SaIS4_EEEEPS4_ET0_T_SD_SC_
__ZSt18uninitialized_copyIN9__gnu_cxx17__normal_iteratorIPKPK10ConnectionSt6vectorIS4_SaIS4_EEEEPS4_ET0_T_SD_SC_:
LFB2341:
	.loc 21 109 0
	pushq	%rbp
LCFI535:
	movq	%rsp, %rbp
LCFI536:
	subq	$48, %rsp
LCFI537:
	movq	%rdi, -8(%rbp)
	movq	%rsi, -16(%rbp)
	movq	%rdx, -24(%rbp)
LBB46:
	.loc 21 114 0
	movq	-24(%rbp), %rdx
	movq	-16(%rbp), %rsi
	movq	-8(%rbp), %rdi
	movzbl	-25(%rbp), %eax
	movb	%al, (%rsp)
	call	__ZSt24__uninitialized_copy_auxIN9__gnu_cxx17__normal_iteratorIPKPK10ConnectionSt6vectorIS4_SaIS4_EEEEPS4_ET0_T_SD_SC_St11__true_type
LBE46:
	leave
	ret
LFE2341:
.globl __ZSt22__uninitialized_copy_aIN9__gnu_cxx17__normal_iteratorIPKPK10ConnectionSt6vectorIS4_SaIS4_EEEEPS4_S4_ET0_T_SD_SC_SaIT1_E
	.weak_definition __ZSt22__uninitialized_copy_aIN9__gnu_cxx17__normal_iteratorIPKPK10ConnectionSt6vectorIS4_SaIS4_EEEEPS4_S4_ET0_T_SD_SC_SaIT1_E
__ZSt22__uninitialized_copy_aIN9__gnu_cxx17__normal_iteratorIPKPK10ConnectionSt6vectorIS4_SaIS4_EEEEPS4_S4_ET0_T_SD_SC_SaIT1_E:
LFB2227:
	.loc 21 253 0
	pushq	%rbp
LCFI538:
	movq	%rsp, %rbp
LCFI539:
	subq	$32, %rsp
LCFI540:
	movq	%rdi, -8(%rbp)
	movq	%rsi, -16(%rbp)
	movq	%rdx, -24(%rbp)
	movq	%rcx, -32(%rbp)
	.loc 21 254 0
	movq	-24(%rbp), %rdx
	movq	-16(%rbp), %rsi
	movq	-8(%rbp), %rdi
	call	__ZSt18uninitialized_copyIN9__gnu_cxx17__normal_iteratorIPKPK10ConnectionSt6vectorIS4_SaIS4_EEEEPS4_ET0_T_SD_SC_
	leave
	ret
LFE2227:
.globl __ZNSt13__copy_normalILb1ELb1EE8__copy_nIN9__gnu_cxx17__normal_iteratorIPKPK10ConnectionSt6vectorIS6_SaIS6_EEEENS3_IPS6_SB_EEEET0_T_SG_SF_
	.weak_definition __ZNSt13__copy_normalILb1ELb1EE8__copy_nIN9__gnu_cxx17__normal_iteratorIPKPK10ConnectionSt6vectorIS6_SaIS6_EEEENS3_IPS6_SB_EEEET0_T_SG_SF_
__ZNSt13__copy_normalILb1ELb1EE8__copy_nIN9__gnu_cxx17__normal_iteratorIPKPK10ConnectionSt6vectorIS6_SaIS6_EEEENS3_IPS6_SB_EEEET0_T_SG_SF_:
LFB2343:
	.loc 6 366 0
	pushq	%rbp
LCFI541:
	movq	%rsp, %rbp
LCFI542:
	pushq	%r12
LCFI543:
	pushq	%rbx
LCFI544:
	subq	$48, %rsp
LCFI545:
	movq	%rdi, -40(%rbp)
	movq	%rsi, -48(%rbp)
	movq	%rdx, -56(%rbp)
	.loc 6 368 0
	leaq	-56(%rbp), %rdi
	call	__ZNK9__gnu_cxx17__normal_iteratorIPPK10ConnectionSt6vectorIS3_SaIS3_EEE4baseEv
	movq	(%rax), %r12
	leaq	-48(%rbp), %rdi
	call	__ZNK9__gnu_cxx17__normal_iteratorIPKPK10ConnectionSt6vectorIS3_SaIS3_EEE4baseEv
	movq	(%rax), %rbx
	leaq	-40(%rbp), %rdi
	call	__ZNK9__gnu_cxx17__normal_iteratorIPKPK10ConnectionSt6vectorIS3_SaIS3_EEE4baseEv
	movq	(%rax), %rdi
	movq	%r12, %rdx
	movq	%rbx, %rsi
	call	__ZSt10__copy_auxIPKPK10ConnectionPS2_ET0_T_S7_S6_
	movq	%rax, -24(%rbp)
	leaq	-24(%rbp), %rsi
	leaq	-32(%rbp), %rdi
	call	__ZN9__gnu_cxx17__normal_iteratorIPPK10ConnectionSt6vectorIS3_SaIS3_EEEC1ERKS4_
	movq	-32(%rbp), %rax
	addq	$48, %rsp
	popq	%rbx
	popq	%r12
	leave
	ret
LFE2343:
.globl __ZSt4copyIN9__gnu_cxx17__normal_iteratorIPKPK10ConnectionSt6vectorIS4_SaIS4_EEEENS1_IPS4_S9_EEET0_T_SE_SD_
	.weak_definition __ZSt4copyIN9__gnu_cxx17__normal_iteratorIPKPK10ConnectionSt6vectorIS4_SaIS4_EEEENS1_IPS4_S9_EEET0_T_SE_SD_
__ZSt4copyIN9__gnu_cxx17__normal_iteratorIPKPK10ConnectionSt6vectorIS4_SaIS4_EEEENS1_IPS4_S9_EEET0_T_SE_SD_:
LFB2232:
	.loc 6 390 0
	pushq	%rbp
LCFI546:
	movq	%rsp, %rbp
LCFI547:
	subq	$48, %rsp
LCFI548:
	movq	%rdi, -24(%rbp)
	movq	%rsi, -32(%rbp)
	movq	%rdx, -40(%rbp)
LBB47:
	.loc 6 398 0
	movb	$1, -1(%rbp)
	.loc 6 399 0
	movb	$1, -2(%rbp)
	.loc 6 401 0
	movq	-40(%rbp), %rdx
	movq	-32(%rbp), %rsi
	movq	-24(%rbp), %rdi
	call	__ZNSt13__copy_normalILb1ELb1EE8__copy_nIN9__gnu_cxx17__normal_iteratorIPKPK10ConnectionSt6vectorIS6_SaIS6_EEEENS3_IPS6_SB_EEEET0_T_SG_SF_
LBE47:
	leave
	ret
LFE2232:
.globl __ZNSt15__copy_backwardILb1ESt26random_access_iterator_tagE8__copy_bIPK10CoordinateEEPT_PKS6_S9_S7_
	.weak_definition __ZNSt15__copy_backwardILb1ESt26random_access_iterator_tagE8__copy_bIPK10CoordinateEEPT_PKS6_S9_S7_
__ZNSt15__copy_backwardILb1ESt26random_access_iterator_tagE8__copy_bIPK10CoordinateEEPT_PKS6_S9_S7_:
LFB2438:
	.loc 6 443 0
	pushq	%rbp
LCFI549:
	movq	%rsp, %rbp
LCFI550:
	subq	$48, %rsp
LCFI551:
	movq	%rdi, -24(%rbp)
	movq	%rsi, -32(%rbp)
	movq	%rdx, -40(%rbp)
LBB48:
	.loc 6 445 0
	movq	-32(%rbp), %rdx
	movq	-24(%rbp), %rax
	movq	%rdx, %rcx
	subq	%rax, %rcx
	movq	%rcx, %rax
	sarq	$3, %rax
	movq	%rax, -8(%rbp)
	.loc 6 446 0
	movq	-8(%rbp), %rax
	leaq	0(,%rax,8), %rcx
	movq	-8(%rbp), %rax
	salq	$3, %rax
	movq	%rax, %rdx
	movq	-40(%rbp), %rax
	movq	%rax, %rdi
	subq	%rdx, %rdi
	movq	-24(%rbp), %rsi
	movq	%rcx, %rdx
	call	_memmove
	.loc 6 447 0
	movq	-8(%rbp), %rax
	salq	$3, %rax
	movq	%rax, %rdx
	movq	-40(%rbp), %rax
	subq	%rdx, %rax
LBE48:
	leave
	ret
LFE2438:
.globl __ZSt19__copy_backward_auxIPPK10CoordinateS3_ET0_T_S5_S4_
	.weak_definition __ZSt19__copy_backward_auxIPPK10CoordinateS3_ET0_T_S5_S4_
__ZSt19__copy_backward_auxIPPK10CoordinateS3_ET0_T_S5_S4_:
LFB2427:
	.loc 6 453 0
	pushq	%rbp
LCFI552:
	movq	%rsp, %rbp
LCFI553:
	subq	$48, %rsp
LCFI554:
	movq	%rdi, -24(%rbp)
	movq	%rsi, -32(%rbp)
	movq	%rdx, -40(%rbp)
LBB49:
	.loc 6 461 0
	movb	$1, -1(%rbp)
	.loc 6 465 0
	movq	-40(%rbp), %rdx
	movq	-32(%rbp), %rsi
	movq	-24(%rbp), %rdi
	call	__ZNSt15__copy_backwardILb1ESt26random_access_iterator_tagE8__copy_bIPK10CoordinateEEPT_PKS6_S9_S7_
LBE49:
	leave
	ret
LFE2427:
.globl __ZNSt22__copy_backward_normalILb0ELb0EE10__copy_b_nIPPK10CoordinateS5_EET0_T_S7_S6_
	.weak_definition __ZNSt22__copy_backward_normalILb0ELb0EE10__copy_b_nIPPK10CoordinateS5_EET0_T_S7_S6_
__ZNSt22__copy_backward_normalILb0ELb0EE10__copy_b_nIPPK10CoordinateS5_EET0_T_S7_S6_:
LFB2395:
	.loc 6 473 0
	pushq	%rbp
LCFI555:
	movq	%rsp, %rbp
LCFI556:
	subq	$32, %rsp
LCFI557:
	movq	%rdi, -8(%rbp)
	movq	%rsi, -16(%rbp)
	movq	%rdx, -24(%rbp)
	.loc 6 474 0
	movq	-24(%rbp), %rdx
	movq	-16(%rbp), %rsi
	movq	-8(%rbp), %rdi
	call	__ZSt19__copy_backward_auxIPPK10CoordinateS3_ET0_T_S5_S4_
	leave
	ret
LFE2395:
.globl __ZSt13copy_backwardIPPK10CoordinateS3_ET0_T_S5_S4_
	.weak_definition __ZSt13copy_backwardIPPK10CoordinateS3_ET0_T_S5_S4_
__ZSt13copy_backwardIPPK10CoordinateS3_ET0_T_S5_S4_:
LFB2351:
	.loc 6 526 0
	pushq	%rbp
LCFI558:
	movq	%rsp, %rbp
LCFI559:
	subq	$48, %rsp
LCFI560:
	movq	%rdi, -24(%rbp)
	movq	%rsi, -32(%rbp)
	movq	%rdx, -40(%rbp)
LBB50:
	.loc 6 536 0
	movb	$0, -1(%rbp)
	.loc 6 537 0
	movb	$0, -2(%rbp)
	.loc 6 540 0
	movq	-40(%rbp), %rdx
	movq	-32(%rbp), %rsi
	movq	-24(%rbp), %rdi
	call	__ZNSt22__copy_backward_normalILb0ELb0EE10__copy_b_nIPPK10CoordinateS5_EET0_T_S7_S6_
LBE50:
	leave
	ret
LFE2351:
.globl __ZNSt6__copyILb1ESt26random_access_iterator_tagE4copyIPK10CoordinateEEPT_PKS6_S9_S7_
	.weak_definition __ZNSt6__copyILb1ESt26random_access_iterator_tagE4copyIPK10CoordinateEEPT_PKS6_S9_S7_
__ZNSt6__copyILb1ESt26random_access_iterator_tagE4copyIPK10CoordinateEEPT_PKS6_S9_S7_:
LFB2429:
	.loc 6 296 0
	pushq	%rbp
LCFI561:
	movq	%rsp, %rbp
LCFI562:
	subq	$32, %rsp
LCFI563:
	movq	%rdi, -8(%rbp)
	movq	%rsi, -16(%rbp)
	movq	%rdx, -24(%rbp)
	.loc 6 298 0
	movq	-16(%rbp), %rdx
	movq	-8(%rbp), %rax
	movq	%rdx, %rcx
	subq	%rax, %rcx
	movq	%rcx, %rax
	sarq	$3, %rax
	leaq	0(,%rax,8), %rdx
	movq	-8(%rbp), %rsi
	movq	-24(%rbp), %rdi
	call	_memmove
	.loc 6 299 0
	movq	-16(%rbp), %rdx
	movq	-8(%rbp), %rax
	movq	%rdx, %rcx
	subq	%rax, %rcx
	movq	%rcx, %rax
	sarq	$3, %rax
	salq	$3, %rax
	addq	-24(%rbp), %rax
	leave
	ret
LFE2429:
.globl __ZSt10__copy_auxIPPK10CoordinateS3_ET0_T_S5_S4_
	.weak_definition __ZSt10__copy_auxIPPK10CoordinateS3_ET0_T_S5_S4_
__ZSt10__copy_auxIPPK10CoordinateS3_ET0_T_S5_S4_:
LFB2403:
	.loc 6 305 0
	pushq	%rbp
LCFI564:
	movq	%rsp, %rbp
LCFI565:
	subq	$48, %rsp
LCFI566:
	movq	%rdi, -24(%rbp)
	movq	%rsi, -32(%rbp)
	movq	%rdx, -40(%rbp)
LBB51:
	.loc 6 313 0
	movb	$1, -1(%rbp)
	.loc 6 315 0
	movq	-40(%rbp), %rdx
	movq	-32(%rbp), %rsi
	movq	-24(%rbp), %rdi
	call	__ZNSt6__copyILb1ESt26random_access_iterator_tagE4copyIPK10CoordinateEEPT_PKS6_S9_S7_
LBE51:
	leave
	ret
LFE2403:
.globl __ZNSt13__copy_normalILb0ELb0EE8__copy_nIPPK10CoordinateS5_EET0_T_S7_S6_
	.weak_definition __ZNSt13__copy_normalILb0ELb0EE8__copy_nIPPK10CoordinateS5_EET0_T_S7_S6_
__ZNSt13__copy_normalILb0ELb0EE8__copy_nIPPK10CoordinateS5_EET0_T_S7_S6_:
LFB2361:
	.loc 6 339 0
	pushq	%rbp
LCFI567:
	movq	%rsp, %rbp
LCFI568:
	subq	$32, %rsp
LCFI569:
	movq	%rdi, -8(%rbp)
	movq	%rsi, -16(%rbp)
	movq	%rdx, -24(%rbp)
	.loc 6 340 0
	movq	-24(%rbp), %rdx
	movq	-16(%rbp), %rsi
	movq	-8(%rbp), %rdi
	call	__ZSt10__copy_auxIPPK10CoordinateS3_ET0_T_S5_S4_
	leave
	ret
LFE2361:
.globl __ZSt4copyIPPK10CoordinateS3_ET0_T_S5_S4_
	.weak_definition __ZSt4copyIPPK10CoordinateS3_ET0_T_S5_S4_
__ZSt4copyIPPK10CoordinateS3_ET0_T_S5_S4_:
LFB2269:
	.loc 6 390 0
	pushq	%rbp
LCFI570:
	movq	%rsp, %rbp
LCFI571:
	subq	$48, %rsp
LCFI572:
	movq	%rdi, -24(%rbp)
	movq	%rsi, -32(%rbp)
	movq	%rdx, -40(%rbp)
LBB52:
	.loc 6 398 0
	movb	$0, -1(%rbp)
	.loc 6 399 0
	movb	$0, -2(%rbp)
	.loc 6 401 0
	movq	-40(%rbp), %rdx
	movq	-32(%rbp), %rsi
	movq	-24(%rbp), %rdi
	call	__ZNSt13__copy_normalILb0ELb0EE8__copy_nIPPK10CoordinateS5_EET0_T_S7_S6_
LBE52:
	leave
	ret
LFE2269:
.globl __ZSt24__uninitialized_copy_auxIPPK10CoordinateS3_ET0_T_S5_S4_St11__true_type
	.weak_definition __ZSt24__uninitialized_copy_auxIPPK10CoordinateS3_ET0_T_S5_S4_St11__true_type
__ZSt24__uninitialized_copy_auxIPPK10CoordinateS3_ET0_T_S5_S4_St11__true_type:
LFB2404:
	.loc 21 74 0
	pushq	%rbp
LCFI573:
	movq	%rsp, %rbp
LCFI574:
	subq	$32, %rsp
LCFI575:
	movq	%rdi, -8(%rbp)
	movq	%rsi, -16(%rbp)
	movq	%rdx, -24(%rbp)
	.loc 21 75 0
	movq	-24(%rbp), %rdx
	movq	-16(%rbp), %rsi
	movq	-8(%rbp), %rdi
	call	__ZSt4copyIPPK10CoordinateS3_ET0_T_S5_S4_
	leave
	ret
LFE2404:
.globl __ZSt18uninitialized_copyIPPK10CoordinateS3_ET0_T_S5_S4_
	.weak_definition __ZSt18uninitialized_copyIPPK10CoordinateS3_ET0_T_S5_S4_
__ZSt18uninitialized_copyIPPK10CoordinateS3_ET0_T_S5_S4_:
LFB2362:
	.loc 21 109 0
	pushq	%rbp
LCFI576:
	movq	%rsp, %rbp
LCFI577:
	subq	$48, %rsp
LCFI578:
	movq	%rdi, -8(%rbp)
	movq	%rsi, -16(%rbp)
	movq	%rdx, -24(%rbp)
LBB53:
	.loc 21 114 0
	movq	-24(%rbp), %rdx
	movq	-16(%rbp), %rsi
	movq	-8(%rbp), %rdi
	movzbl	-25(%rbp), %eax
	movb	%al, (%rsp)
	call	__ZSt24__uninitialized_copy_auxIPPK10CoordinateS3_ET0_T_S5_S4_St11__true_type
LBE53:
	leave
	ret
LFE2362:
.globl __ZSt22__uninitialized_copy_aIPPK10CoordinateS3_S2_ET0_T_S5_S4_SaIT1_E
	.weak_definition __ZSt22__uninitialized_copy_aIPPK10CoordinateS3_S2_ET0_T_S5_S4_SaIT1_E
__ZSt22__uninitialized_copy_aIPPK10CoordinateS3_S2_ET0_T_S5_S4_SaIT1_E:
LFB2270:
	.loc 21 253 0
	pushq	%rbp
LCFI579:
	movq	%rsp, %rbp
LCFI580:
	subq	$32, %rsp
LCFI581:
	movq	%rdi, -8(%rbp)
	movq	%rsi, -16(%rbp)
	movq	%rdx, -24(%rbp)
	movq	%rcx, -32(%rbp)
	.loc 21 254 0
	movq	-24(%rbp), %rdx
	movq	-16(%rbp), %rsi
	movq	-8(%rbp), %rdi
	call	__ZSt18uninitialized_copyIPPK10CoordinateS3_ET0_T_S5_S4_
	leave
	ret
LFE2270:
.globl __ZSt10__copy_auxIPKPK10CoordinatePS2_ET0_T_S7_S6_
	.weak_definition __ZSt10__copy_auxIPKPK10CoordinatePS2_ET0_T_S7_S6_
__ZSt10__copy_auxIPKPK10CoordinatePS2_ET0_T_S7_S6_:
LFB2401:
	.loc 6 305 0
	pushq	%rbp
LCFI582:
	movq	%rsp, %rbp
LCFI583:
	subq	$48, %rsp
LCFI584:
	movq	%rdi, -24(%rbp)
	movq	%rsi, -32(%rbp)
	movq	%rdx, -40(%rbp)
LBB54:
	.loc 6 313 0
	movb	$1, -1(%rbp)
	.loc 6 315 0
	movq	-40(%rbp), %rdx
	movq	-32(%rbp), %rsi
	movq	-24(%rbp), %rdi
	call	__ZNSt6__copyILb1ESt26random_access_iterator_tagE4copyIPK10CoordinateEEPT_PKS6_S9_S7_
LBE54:
	leave
	ret
LFE2401:
.globl __ZNSt13__copy_normalILb1ELb0EE8__copy_nIN9__gnu_cxx17__normal_iteratorIPKPK10CoordinateSt6vectorIS6_SaIS6_EEEEPS6_EET0_T_SF_SE_
	.weak_definition __ZNSt13__copy_normalILb1ELb0EE8__copy_nIN9__gnu_cxx17__normal_iteratorIPKPK10CoordinateSt6vectorIS6_SaIS6_EEEEPS6_EET0_T_SF_SE_
__ZNSt13__copy_normalILb1ELb0EE8__copy_nIN9__gnu_cxx17__normal_iteratorIPKPK10CoordinateSt6vectorIS6_SaIS6_EEEEPS6_EET0_T_SF_SE_:
LFB2444:
	.loc 6 348 0
	pushq	%rbp
LCFI585:
	movq	%rsp, %rbp
LCFI586:
	pushq	%rbx
LCFI587:
	subq	$40, %rsp
LCFI588:
	movq	%rdi, -24(%rbp)
	movq	%rsi, -32(%rbp)
	movq	%rdx, -40(%rbp)
	.loc 6 349 0
	leaq	-32(%rbp), %rdi
	call	__ZNK9__gnu_cxx17__normal_iteratorIPKPK10CoordinateSt6vectorIS3_SaIS3_EEE4baseEv
	movq	(%rax), %rbx
	leaq	-24(%rbp), %rdi
	call	__ZNK9__gnu_cxx17__normal_iteratorIPKPK10CoordinateSt6vectorIS3_SaIS3_EEE4baseEv
	movq	(%rax), %rdi
	movq	-40(%rbp), %rdx
	movq	%rbx, %rsi
	call	__ZSt10__copy_auxIPKPK10CoordinatePS2_ET0_T_S7_S6_
	addq	$40, %rsp
	popq	%rbx
	leave
	ret
LFE2444:
.globl __ZSt4copyIN9__gnu_cxx17__normal_iteratorIPKPK10CoordinateSt6vectorIS4_SaIS4_EEEEPS4_ET0_T_SD_SC_
	.weak_definition __ZSt4copyIN9__gnu_cxx17__normal_iteratorIPKPK10CoordinateSt6vectorIS4_SaIS4_EEEEPS4_ET0_T_SD_SC_
__ZSt4copyIN9__gnu_cxx17__normal_iteratorIPKPK10CoordinateSt6vectorIS4_SaIS4_EEEEPS4_ET0_T_SD_SC_:
LFB2439:
	.loc 6 390 0
	pushq	%rbp
LCFI589:
	movq	%rsp, %rbp
LCFI590:
	subq	$48, %rsp
LCFI591:
	movq	%rdi, -24(%rbp)
	movq	%rsi, -32(%rbp)
	movq	%rdx, -40(%rbp)
LBB55:
	.loc 6 398 0
	movb	$1, -1(%rbp)
	.loc 6 399 0
	movb	$0, -2(%rbp)
	.loc 6 401 0
	movq	-40(%rbp), %rdx
	movq	-32(%rbp), %rsi
	movq	-24(%rbp), %rdi
	call	__ZNSt13__copy_normalILb1ELb0EE8__copy_nIN9__gnu_cxx17__normal_iteratorIPKPK10CoordinateSt6vectorIS6_SaIS6_EEEEPS6_EET0_T_SF_SE_
LBE55:
	leave
	ret
LFE2439:
.globl __ZSt24__uninitialized_copy_auxIN9__gnu_cxx17__normal_iteratorIPKPK10CoordinateSt6vectorIS4_SaIS4_EEEEPS4_ET0_T_SD_SC_St11__true_type
	.weak_definition __ZSt24__uninitialized_copy_auxIN9__gnu_cxx17__normal_iteratorIPKPK10CoordinateSt6vectorIS4_SaIS4_EEEEPS4_ET0_T_SD_SC_St11__true_type
__ZSt24__uninitialized_copy_auxIN9__gnu_cxx17__normal_iteratorIPKPK10CoordinateSt6vectorIS4_SaIS4_EEEEPS4_ET0_T_SD_SC_St11__true_type:
LFB2428:
	.loc 21 74 0
	pushq	%rbp
LCFI592:
	movq	%rsp, %rbp
LCFI593:
	subq	$32, %rsp
LCFI594:
	movq	%rdi, -8(%rbp)
	movq	%rsi, -16(%rbp)
	movq	%rdx, -24(%rbp)
	.loc 21 75 0
	movq	-24(%rbp), %rdx
	movq	-16(%rbp), %rsi
	movq	-8(%rbp), %rdi
	call	__ZSt4copyIN9__gnu_cxx17__normal_iteratorIPKPK10CoordinateSt6vectorIS4_SaIS4_EEEEPS4_ET0_T_SD_SC_
	leave
	ret
LFE2428:
.globl __ZSt18uninitialized_copyIN9__gnu_cxx17__normal_iteratorIPKPK10CoordinateSt6vectorIS4_SaIS4_EEEEPS4_ET0_T_SD_SC_
	.weak_definition __ZSt18uninitialized_copyIN9__gnu_cxx17__normal_iteratorIPKPK10CoordinateSt6vectorIS4_SaIS4_EEEEPS4_ET0_T_SD_SC_
__ZSt18uninitialized_copyIN9__gnu_cxx17__normal_iteratorIPKPK10CoordinateSt6vectorIS4_SaIS4_EEEEPS4_ET0_T_SD_SC_:
LFB2399:
	.loc 21 109 0
	pushq	%rbp
LCFI595:
	movq	%rsp, %rbp
LCFI596:
	subq	$48, %rsp
LCFI597:
	movq	%rdi, -8(%rbp)
	movq	%rsi, -16(%rbp)
	movq	%rdx, -24(%rbp)
LBB56:
	.loc 21 114 0
	movq	-24(%rbp), %rdx
	movq	-16(%rbp), %rsi
	movq	-8(%rbp), %rdi
	movzbl	-25(%rbp), %eax
	movb	%al, (%rsp)
	call	__ZSt24__uninitialized_copy_auxIN9__gnu_cxx17__normal_iteratorIPKPK10CoordinateSt6vectorIS4_SaIS4_EEEEPS4_ET0_T_SD_SC_St11__true_type
LBE56:
	leave
	ret
LFE2399:
.globl __ZSt22__uninitialized_copy_aIN9__gnu_cxx17__normal_iteratorIPKPK10CoordinateSt6vectorIS4_SaIS4_EEEEPS4_S4_ET0_T_SD_SC_SaIT1_E
	.weak_definition __ZSt22__uninitialized_copy_aIN9__gnu_cxx17__normal_iteratorIPKPK10CoordinateSt6vectorIS4_SaIS4_EEEEPS4_S4_ET0_T_SD_SC_SaIT1_E
__ZSt22__uninitialized_copy_aIN9__gnu_cxx17__normal_iteratorIPKPK10CoordinateSt6vectorIS4_SaIS4_EEEEPS4_S4_ET0_T_SD_SC_SaIT1_E:
LFB2357:
	.loc 21 253 0
	pushq	%rbp
LCFI598:
	movq	%rsp, %rbp
LCFI599:
	subq	$32, %rsp
LCFI600:
	movq	%rdi, -8(%rbp)
	movq	%rsi, -16(%rbp)
	movq	%rdx, -24(%rbp)
	movq	%rcx, -32(%rbp)
	.loc 21 254 0
	movq	-24(%rbp), %rdx
	movq	-16(%rbp), %rsi
	movq	-8(%rbp), %rdi
	call	__ZSt18uninitialized_copyIN9__gnu_cxx17__normal_iteratorIPKPK10CoordinateSt6vectorIS4_SaIS4_EEEEPS4_ET0_T_SD_SC_
	leave
	ret
LFE2357:
.globl __ZNSt13__copy_normalILb1ELb1EE8__copy_nIN9__gnu_cxx17__normal_iteratorIPKPK10CoordinateSt6vectorIS6_SaIS6_EEEENS3_IPS6_SB_EEEET0_T_SG_SF_
	.weak_definition __ZNSt13__copy_normalILb1ELb1EE8__copy_nIN9__gnu_cxx17__normal_iteratorIPKPK10CoordinateSt6vectorIS6_SaIS6_EEEENS3_IPS6_SB_EEEET0_T_SG_SF_
__ZNSt13__copy_normalILb1ELb1EE8__copy_nIN9__gnu_cxx17__normal_iteratorIPKPK10CoordinateSt6vectorIS6_SaIS6_EEEENS3_IPS6_SB_EEEET0_T_SG_SF_:
LFB2359:
	.loc 6 366 0
	pushq	%rbp
LCFI601:
	movq	%rsp, %rbp
LCFI602:
	pushq	%r12
LCFI603:
	pushq	%rbx
LCFI604:
	subq	$48, %rsp
LCFI605:
	movq	%rdi, -40(%rbp)
	movq	%rsi, -48(%rbp)
	movq	%rdx, -56(%rbp)
	.loc 6 368 0
	leaq	-56(%rbp), %rdi
	call	__ZNK9__gnu_cxx17__normal_iteratorIPPK10CoordinateSt6vectorIS3_SaIS3_EEE4baseEv
	movq	(%rax), %r12
	leaq	-48(%rbp), %rdi
	call	__ZNK9__gnu_cxx17__normal_iteratorIPKPK10CoordinateSt6vectorIS3_SaIS3_EEE4baseEv
	movq	(%rax), %rbx
	leaq	-40(%rbp), %rdi
	call	__ZNK9__gnu_cxx17__normal_iteratorIPKPK10CoordinateSt6vectorIS3_SaIS3_EEE4baseEv
	movq	(%rax), %rdi
	movq	%r12, %rdx
	movq	%rbx, %rsi
	call	__ZSt10__copy_auxIPKPK10CoordinatePS2_ET0_T_S7_S6_
	movq	%rax, -24(%rbp)
	leaq	-24(%rbp), %rsi
	leaq	-32(%rbp), %rdi
	call	__ZN9__gnu_cxx17__normal_iteratorIPPK10CoordinateSt6vectorIS3_SaIS3_EEEC1ERKS4_
	movq	-32(%rbp), %rax
	addq	$48, %rsp
	popq	%rbx
	popq	%r12
	leave
	ret
LFE2359:
.globl __ZSt4copyIN9__gnu_cxx17__normal_iteratorIPKPK10CoordinateSt6vectorIS4_SaIS4_EEEENS1_IPS4_S9_EEET0_T_SE_SD_
	.weak_definition __ZSt4copyIN9__gnu_cxx17__normal_iteratorIPKPK10CoordinateSt6vectorIS4_SaIS4_EEEENS1_IPS4_S9_EEET0_T_SE_SD_
__ZSt4copyIN9__gnu_cxx17__normal_iteratorIPKPK10CoordinateSt6vectorIS4_SaIS4_EEEENS1_IPS4_S9_EEET0_T_SE_SD_:
LFB2267:
	.loc 6 390 0
	pushq	%rbp
LCFI606:
	movq	%rsp, %rbp
LCFI607:
	subq	$48, %rsp
LCFI608:
	movq	%rdi, -24(%rbp)
	movq	%rsi, -32(%rbp)
	movq	%rdx, -40(%rbp)
LBB57:
	.loc 6 398 0
	movb	$1, -1(%rbp)
	.loc 6 399 0
	movb	$1, -2(%rbp)
	.loc 6 401 0
	movq	-40(%rbp), %rdx
	movq	-32(%rbp), %rsi
	movq	-24(%rbp), %rdi
	call	__ZNSt13__copy_normalILb1ELb1EE8__copy_nIN9__gnu_cxx17__normal_iteratorIPKPK10CoordinateSt6vectorIS6_SaIS6_EEEENS3_IPS6_SB_EEEET0_T_SG_SF_
LBE57:
	leave
	ret
LFE2267:
	.align 1
.globl __ZN9__gnu_cxx13new_allocatorIPK10ConnectionE8allocateEmPKv
	.weak_definition __ZN9__gnu_cxx13new_allocatorIPK10ConnectionE8allocateEmPKv
__ZN9__gnu_cxx13new_allocatorIPK10ConnectionE8allocateEmPKv:
LFB2387:
	.loc 14 86 0
	pushq	%rbp
LCFI609:
	movq	%rsp, %rbp
LCFI610:
	subq	$32, %rsp
LCFI611:
	movq	%rdi, -8(%rbp)
	movq	%rsi, -16(%rbp)
	movq	%rdx, -24(%rbp)
	.loc 14 88 0
	movq	-8(%rbp), %rdi
	call	__ZNK9__gnu_cxx13new_allocatorIPK10ConnectionE8max_sizeEv
	cmpq	-16(%rbp), %rax
	setb	%al
	movzbl	%al, %eax
	testq	%rax, %rax
	setne	%al
	testb	%al, %al
	je	L518
	.loc 14 89 0
	call	__ZSt17__throw_bad_allocv
L518:
	.loc 14 91 0
	movq	-16(%rbp), %rax
	leaq	0(,%rax,8), %rdi
	call	__Znwm
	leave
	ret
LFE2387:
	.align 1
.globl __ZNSt12_Vector_baseIPK10ConnectionSaIS2_EE11_M_allocateEm
	.weak_definition __ZNSt12_Vector_baseIPK10ConnectionSaIS2_EE11_M_allocateEm
__ZNSt12_Vector_baseIPK10ConnectionSaIS2_EE11_M_allocateEm:
LFB2337:
	.loc 11 130 0
	pushq	%rbp
LCFI612:
	movq	%rsp, %rbp
LCFI613:
	subq	$16, %rsp
LCFI614:
	movq	%rdi, -8(%rbp)
	movq	%rsi, -16(%rbp)
	.loc 11 131 0
	movq	-8(%rbp), %rax
	movq	%rax, %rdi
	movq	-16(%rbp), %rsi
	movl	$0, %edx
	call	__ZN9__gnu_cxx13new_allocatorIPK10ConnectionE8allocateEmPKv
	leave
	ret
LFE2337:
	.cstring
LC1:
	.ascii "vector::_M_range_insert\0"
	.section __TEXT,__textcoal_nt,coalesced,pure_instructions
	.align 1
.globl __ZNSt6vectorIPK10ConnectionSaIS2_EE15_M_range_insertIN9__gnu_cxx17__normal_iteratorIPS2_S4_EEEEvS9_T_SA_St20forward_iterator_tag
	.weak_definition __ZNSt6vectorIPK10ConnectionSaIS2_EE15_M_range_insertIN9__gnu_cxx17__normal_iteratorIPS2_S4_EEEEvS9_T_SA_St20forward_iterator_tag
__ZNSt6vectorIPK10ConnectionSaIS2_EE15_M_range_insertIN9__gnu_cxx17__normal_iteratorIPS2_S4_EEEEvS9_T_SA_St20forward_iterator_tag:
LFB2370:
	.file 22 "/usr/include/c++/4.2.1/bits/vector.tcc"
	.loc 22 409 0
	pushq	%rbp
LCFI615:
	movq	%rsp, %rbp
LCFI616:
	pushq	%rbx
LCFI617:
	subq	$120, %rsp
LCFI618:
	movq	%rdi, -104(%rbp)
	movq	%rsi, -112(%rbp)
	movq	%rdx, -120(%rbp)
	movq	%rcx, -128(%rbp)
LBB58:
	.loc 22 411 0
	leaq	-128(%rbp), %rsi
	leaq	-120(%rbp), %rdi
	call	__ZN9__gnu_cxxneIPPK10ConnectionSt6vectorIS3_SaIS3_EEEEbRKNS_17__normal_iteratorIT_T0_EESD_
	testb	%al, %al
	je	L535
LBB59:
	.loc 22 413 0
	movq	-128(%rbp), %rsi
	movq	-120(%rbp), %rdi
	call	__ZSt8distanceIN9__gnu_cxx17__normal_iteratorIPPK10ConnectionSt6vectorIS4_SaIS4_EEEEENSt15iterator_traitsIT_E15difference_typeESB_SB_
	movq	%rax, -32(%rbp)
	.loc 22 414 0
	movq	-104(%rbp), %rax
	movq	16(%rax), %rax
	movq	%rax, %rdx
	movq	-104(%rbp), %rax
	movq	8(%rax), %rax
	movq	%rdx, %rcx
	subq	%rax, %rcx
	movq	%rcx, %rax
	sarq	$3, %rax
	movq	%rax, %rdx
	movq	-32(%rbp), %rax
	cmpq	%rax, %rdx
	jb	L526
LBB60:
	.loc 22 417 0
	movq	-104(%rbp), %rdi
	call	__ZNSt6vectorIPK10ConnectionSaIS2_EE3endEv
	movq	%rax, -48(%rbp)
	leaq	-112(%rbp), %rsi
	leaq	-48(%rbp), %rdi
	call	__ZN9__gnu_cxxmiIPPK10ConnectionSt6vectorIS3_SaIS3_EEEENS_17__normal_iteratorIT_T0_E15difference_typeERKSB_SE_
	movq	%rax, -40(%rbp)
	.loc 22 418 0
	movq	-104(%rbp), %rax
	movq	8(%rax), %rax
	movq	%rax, -56(%rbp)
	.loc 22 419 0
	movq	-32(%rbp), %rax
	cmpq	%rax, -40(%rbp)
	jbe	L528
	.loc 22 421 0
	movq	-104(%rbp), %rdi
	call	__ZNSt12_Vector_baseIPK10ConnectionSaIS2_EE19_M_get_Tp_allocatorEv
	movq	%rax, %rsi
	leaq	-17(%rbp), %rdi
	call	__ZNSaIPK10ConnectionEC1ERKS2_
	movq	-104(%rbp), %rax
	movq	8(%rax), %r8
	movq	-104(%rbp), %rax
	movq	8(%rax), %rsi
	movq	-104(%rbp), %rax
	movq	8(%rax), %rdx
	movq	-32(%rbp), %rax
	salq	$3, %rax
	movq	%rdx, %rdi
	subq	%rax, %rdi
	leaq	-17(%rbp), %rcx
	movq	%r8, %rdx
	call	__ZSt22__uninitialized_copy_aIPPK10ConnectionS3_S2_ET0_T_S5_S4_SaIT1_E
	leaq	-17(%rbp), %rdi
	call	__ZNSaIPK10ConnectionED1Ev
	.loc 22 425 0
	movq	-104(%rbp), %rax
	movq	8(%rax), %rdx
	movq	-32(%rbp), %rax
	salq	$3, %rax
	addq	%rax, %rdx
	movq	-104(%rbp), %rax
	movq	%rdx, 8(%rax)
	.loc 22 426 0
	movq	-32(%rbp), %rax
	salq	$3, %rax
	movq	%rax, %rdx
	movq	-56(%rbp), %rax
	movq	%rax, %rbx
	subq	%rdx, %rbx
	leaq	-112(%rbp), %rdi
	call	__ZNK9__gnu_cxx17__normal_iteratorIPPK10ConnectionSt6vectorIS3_SaIS3_EEE4baseEv
	movq	(%rax), %rdi
	movq	-56(%rbp), %rdx
	movq	%rbx, %rsi
	call	__ZSt13copy_backwardIPPK10ConnectionS3_ET0_T_S5_S4_
	.loc 22 428 0
	movq	-112(%rbp), %rdx
	movq	-128(%rbp), %rsi
	movq	-120(%rbp), %rdi
	call	__ZSt4copyIN9__gnu_cxx17__normal_iteratorIPPK10ConnectionSt6vectorIS4_SaIS4_EEEES9_ET0_T_SB_SA_
	jmp	L535
L528:
LBB61:
	.loc 22 432 0
	movq	-120(%rbp), %rax
	movq	%rax, -64(%rbp)
	.loc 22 433 0
	movq	-40(%rbp), %rsi
	leaq	-64(%rbp), %rdi
	call	__ZSt7advanceIN9__gnu_cxx17__normal_iteratorIPPK10ConnectionSt6vectorIS4_SaIS4_EEEEmEvRT_T0_
	.loc 22 434 0
	movq	-104(%rbp), %rdi
	call	__ZNSt12_Vector_baseIPK10ConnectionSaIS2_EE19_M_get_Tp_allocatorEv
	movq	%rax, %rsi
	leaq	-18(%rbp), %rdi
	call	__ZNSaIPK10ConnectionEC1ERKS2_
	movq	-104(%rbp), %rax
	movq	8(%rax), %rdx
	leaq	-18(%rbp), %rcx
	movq	-128(%rbp), %rsi
	movq	-64(%rbp), %rdi
	call	__ZSt22__uninitialized_copy_aIN9__gnu_cxx17__normal_iteratorIPPK10ConnectionSt6vectorIS4_SaIS4_EEEES5_S4_ET0_T_SB_SA_SaIT1_E
	leaq	-18(%rbp), %rdi
	call	__ZNSaIPK10ConnectionED1Ev
	.loc 22 437 0
	movq	-104(%rbp), %rax
	movq	8(%rax), %rdx
	movq	-32(%rbp), %rax
	subq	-40(%rbp), %rax
	salq	$3, %rax
	addq	%rax, %rdx
	movq	-104(%rbp), %rax
	movq	%rdx, 8(%rax)
	.loc 22 438 0
	movq	-104(%rbp), %rdi
	call	__ZNSt12_Vector_baseIPK10ConnectionSaIS2_EE19_M_get_Tp_allocatorEv
	movq	%rax, %rsi
	leaq	-19(%rbp), %rdi
	call	__ZNSaIPK10ConnectionEC1ERKS2_
	movq	-104(%rbp), %rax
	movq	8(%rax), %rbx
	leaq	-112(%rbp), %rdi
	call	__ZNK9__gnu_cxx17__normal_iteratorIPPK10ConnectionSt6vectorIS3_SaIS3_EEE4baseEv
	movq	(%rax), %rdi
	leaq	-19(%rbp), %rcx
	movq	-56(%rbp), %rsi
	movq	%rbx, %rdx
	call	__ZSt22__uninitialized_copy_aIPPK10ConnectionS3_S2_ET0_T_S5_S4_SaIT1_E
	leaq	-19(%rbp), %rdi
	call	__ZNSaIPK10ConnectionED1Ev
	.loc 22 442 0
	movq	-104(%rbp), %rax
	movq	8(%rax), %rdx
	movq	-40(%rbp), %rax
	salq	$3, %rax
	addq	%rax, %rdx
	movq	-104(%rbp), %rax
	movq	%rdx, 8(%rax)
	.loc 22 443 0
	movq	-112(%rbp), %rdx
	movq	-64(%rbp), %rsi
	movq	-120(%rbp), %rdi
	call	__ZSt4copyIN9__gnu_cxx17__normal_iteratorIPPK10ConnectionSt6vectorIS4_SaIS4_EEEES9_ET0_T_SB_SA_
	jmp	L535
L526:
LBE61:
LBE60:
LBB62:
	.loc 22 448 0
	movq	-104(%rbp), %rdi
	call	__ZNKSt6vectorIPK10ConnectionSaIS2_EE4sizeEv
	movq	%rax, -72(%rbp)
	.loc 22 449 0
	movq	-104(%rbp), %rdi
	call	__ZNKSt6vectorIPK10ConnectionSaIS2_EE8max_sizeEv
	movq	%rax, %rdx
	movq	-72(%rbp), %rax
	subq	%rax, %rdx
	movq	-32(%rbp), %rax
	cmpq	%rax, %rdx
	setb	%al
	testb	%al, %al
	je	L531
	.loc 22 450 0
	leaq	LC1(%rip), %rdi
	call	__ZSt20__throw_length_errorPKc
L531:
	.loc 22 453 0
	leaq	-32(%rbp), %rsi
	leaq	-72(%rbp), %rdi
	call	__ZSt3maxImERKT_S2_S2_
	movq	(%rax), %rdx
	movq	-72(%rbp), %rax
	leaq	(%rdx,%rax), %rax
	movq	%rax, -80(%rbp)
	.loc 22 454 0
	movq	-72(%rbp), %rax
	cmpq	%rax, -80(%rbp)
	jae	L533
	.loc 22 455 0
	movq	-104(%rbp), %rdi
	call	__ZNKSt6vectorIPK10ConnectionSaIS2_EE8max_sizeEv
	movq	%rax, -80(%rbp)
L533:
	.loc 22 457 0
	movq	-104(%rbp), %rdi
	movq	-80(%rbp), %rsi
	call	__ZNSt12_Vector_baseIPK10ConnectionSaIS2_EE11_M_allocateEm
	movq	%rax, -88(%rbp)
	.loc 22 458 0
	movq	-88(%rbp), %rax
	movq	%rax, -96(%rbp)
	.loc 22 461 0
	movq	-104(%rbp), %rdi
	call	__ZNSt12_Vector_baseIPK10ConnectionSaIS2_EE19_M_get_Tp_allocatorEv
	movq	%rax, %rsi
	leaq	-20(%rbp), %rdi
	call	__ZNSaIPK10ConnectionEC1ERKS2_
	leaq	-112(%rbp), %rdi
	call	__ZNK9__gnu_cxx17__normal_iteratorIPPK10ConnectionSt6vectorIS3_SaIS3_EEE4baseEv
	movq	(%rax), %rsi
	movq	-104(%rbp), %rax
	movq	(%rax), %rdi
	leaq	-20(%rbp), %rcx
	movq	-88(%rbp), %rdx
	call	__ZSt22__uninitialized_copy_aIPPK10ConnectionS3_S2_ET0_T_S5_S4_SaIT1_E
	movq	%rax, -96(%rbp)
	leaq	-20(%rbp), %rdi
	call	__ZNSaIPK10ConnectionED1Ev
	.loc 22 466 0
	movq	-104(%rbp), %rdi
	call	__ZNSt12_Vector_baseIPK10ConnectionSaIS2_EE19_M_get_Tp_allocatorEv
	movq	%rax, %rsi
	leaq	-21(%rbp), %rdi
	call	__ZNSaIPK10ConnectionEC1ERKS2_
	leaq	-21(%rbp), %rcx
	movq	-96(%rbp), %rdx
	movq	-128(%rbp), %rsi
	movq	-120(%rbp), %rdi
	call	__ZSt22__uninitialized_copy_aIN9__gnu_cxx17__normal_iteratorIPPK10ConnectionSt6vectorIS4_SaIS4_EEEES5_S4_ET0_T_SB_SA_SaIT1_E
	movq	%rax, -96(%rbp)
	leaq	-21(%rbp), %rdi
	call	__ZNSaIPK10ConnectionED1Ev
	.loc 22 469 0
	movq	-104(%rbp), %rdi
	call	__ZNSt12_Vector_baseIPK10ConnectionSaIS2_EE19_M_get_Tp_allocatorEv
	movq	%rax, %rsi
	leaq	-22(%rbp), %rdi
	call	__ZNSaIPK10ConnectionEC1ERKS2_
	movq	-104(%rbp), %rax
	movq	8(%rax), %rbx
	leaq	-112(%rbp), %rdi
	call	__ZNK9__gnu_cxx17__normal_iteratorIPPK10ConnectionSt6vectorIS3_SaIS3_EEE4baseEv
	movq	(%rax), %rdi
	leaq	-22(%rbp), %rcx
	movq	-96(%rbp), %rdx
	movq	%rbx, %rsi
	call	__ZSt22__uninitialized_copy_aIPPK10ConnectionS3_S2_ET0_T_S5_S4_SaIT1_E
	movq	%rax, -96(%rbp)
	leaq	-22(%rbp), %rdi
	call	__ZNSaIPK10ConnectionED1Ev
	.loc 22 482 0
	movq	-104(%rbp), %rdi
	call	__ZNSt12_Vector_baseIPK10ConnectionSaIS2_EE19_M_get_Tp_allocatorEv
	movq	%rax, %rsi
	leaq	-24(%rbp), %rdi
	call	__ZNSaIPK10ConnectionEC1ERKS2_
	movq	-104(%rbp), %rax
	movq	8(%rax), %rsi
	movq	-104(%rbp), %rax
	movq	(%rax), %rdi
	leaq	-24(%rbp), %rdx
	call	__ZSt8_DestroyIPPK10ConnectionS2_EvT_S4_SaIT0_E
	leaq	-24(%rbp), %rdi
	call	__ZNSaIPK10ConnectionED1Ev
	.loc 22 484 0
	movq	-104(%rbp), %rax
	movq	16(%rax), %rax
	movq	%rax, %rdx
	movq	-104(%rbp), %rax
	movq	(%rax), %rax
	movq	%rdx, %rcx
	subq	%rax, %rcx
	movq	%rcx, %rax
	sarq	$3, %rax
	movq	%rax, %rdx
	movq	-104(%rbp), %rax
	movq	(%rax), %rsi
	movq	-104(%rbp), %rdi
	call	__ZNSt12_Vector_baseIPK10ConnectionSaIS2_EE13_M_deallocateEPS2_m
	.loc 22 487 0
	movq	-104(%rbp), %rdx
	movq	-88(%rbp), %rax
	movq	%rax, (%rdx)
	.loc 22 488 0
	movq	-104(%rbp), %rdx
	movq	-96(%rbp), %rax
	movq	%rax, 8(%rdx)
	.loc 22 489 0
	movq	-80(%rbp), %rax
	salq	$3, %rax
	movq	%rax, %rdx
	addq	-88(%rbp), %rdx
	movq	-104(%rbp), %rax
	movq	%rdx, 16(%rax)
L535:
LBE62:
LBE59:
LBE58:
	addq	$120, %rsp
	popq	%rbx
	leave
	ret
LFE2370:
	.align 1
.globl __ZNSt6vectorIPK10ConnectionSaIS2_EE18_M_insert_dispatchIN9__gnu_cxx17__normal_iteratorIPS2_S4_EEEEvS9_T_SA_St12__false_type
	.weak_definition __ZNSt6vectorIPK10ConnectionSaIS2_EE18_M_insert_dispatchIN9__gnu_cxx17__normal_iteratorIPS2_S4_EEEEvS9_T_SA_St12__false_type
__ZNSt6vectorIPK10ConnectionSaIS2_EE18_M_insert_dispatchIN9__gnu_cxx17__normal_iteratorIPS2_S4_EEEEvS9_T_SA_St12__false_type:
LFB2290:
	.loc 11 889 0
	pushq	%rbp
LCFI619:
	movq	%rsp, %rbp
LCFI620:
	subq	$80, %rsp
LCFI621:
	movq	%rdi, -24(%rbp)
	movq	%rsi, -32(%rbp)
	movq	%rdx, -40(%rbp)
	movq	%rcx, -48(%rbp)
LBB63:
	.loc 11 893 0
	leaq	-1(%rbp), %rdi
	call	__ZNSt26random_access_iterator_tagC1Ev
	movq	-48(%rbp), %rcx
	movq	-40(%rbp), %rdx
	movq	-32(%rbp), %rsi
	movq	-24(%rbp), %rdi
	movzbl	-49(%rbp), %eax
	movb	%al, (%rsp)
	call	__ZNSt6vectorIPK10ConnectionSaIS2_EE15_M_range_insertIN9__gnu_cxx17__normal_iteratorIPS2_S4_EEEEvS9_T_SA_St20forward_iterator_tag
LBE63:
	leave
	ret
LFE2290:
	.align 1
.globl __ZNSt6vectorIPK10ConnectionSaIS2_EE6insertIN9__gnu_cxx17__normal_iteratorIPS2_S4_EEEEvS9_T_SA_
	.weak_definition __ZNSt6vectorIPK10ConnectionSaIS2_EE6insertIN9__gnu_cxx17__normal_iteratorIPS2_S4_EEEEvS9_T_SA_
__ZNSt6vectorIPK10ConnectionSaIS2_EE6insertIN9__gnu_cxx17__normal_iteratorIPS2_S4_EEEEvS9_T_SA_:
LFB2171:
	.loc 11 675 0
	pushq	%rbp
LCFI622:
	movq	%rsp, %rbp
LCFI623:
	subq	$64, %rsp
LCFI624:
	movq	%rdi, -8(%rbp)
	movq	%rsi, -16(%rbp)
	movq	%rdx, -24(%rbp)
	movq	%rcx, -32(%rbp)
LBB64:
	.loc 11 679 0
	movq	-32(%rbp), %rcx
	movq	-24(%rbp), %rdx
	movq	-16(%rbp), %rsi
	movq	-8(%rbp), %rdi
	movzbl	-33(%rbp), %eax
	movb	%al, (%rsp)
	call	__ZNSt6vectorIPK10ConnectionSaIS2_EE18_M_insert_dispatchIN9__gnu_cxx17__normal_iteratorIPS2_S4_EEEEvS9_T_SA_St12__false_type
LBE64:
	leave
	ret
LFE2171:
	.align 1
.globl __ZNSt12_Vector_baseIPK10ConnectionSaIS2_EEC2EmRKS3_
	.weak_definition __ZNSt12_Vector_baseIPK10ConnectionSaIS2_EEC2EmRKS3_
__ZNSt12_Vector_baseIPK10ConnectionSaIS2_EEC2EmRKS3_:
LFB2223:
	.loc 11 111 0
	pushq	%rbp
LCFI625:
	movq	%rsp, %rbp
LCFI626:
	pushq	%rbx
LCFI627:
	subq	$40, %rsp
LCFI628:
	movq	%rdi, -24(%rbp)
	movq	%rsi, -32(%rbp)
	movq	%rdx, -40(%rbp)
LBB65:
	.loc 11 112 0
	movq	-24(%rbp), %rdi
	movq	-40(%rbp), %rsi
	call	__ZNSt12_Vector_baseIPK10ConnectionSaIS2_EE12_Vector_implC1ERKS3_
	.loc 11 114 0
	cmpq	$0, -32(%rbp)
	je	L544
	.loc 11 116 0
	movq	-32(%rbp), %rsi
	movq	-24(%rbp), %rdi
LEHB5:
	call	__ZNSt12_Vector_baseIPK10ConnectionSaIS2_EE11_M_allocateEm
LEHE5:
	movq	%rax, %rdx
	movq	-24(%rbp), %rax
	movq	%rdx, (%rax)
	.loc 11 117 0
	movq	-24(%rbp), %rax
	movq	(%rax), %rdx
	movq	-24(%rbp), %rax
	movq	%rdx, 8(%rax)
	.loc 11 118 0
	movq	-24(%rbp), %rax
	movq	(%rax), %rdx
	movq	-32(%rbp), %rax
	salq	$3, %rax
	addq	%rax, %rdx
	movq	-24(%rbp), %rax
	movq	%rdx, 16(%rax)
	jmp	L544
L545:
	movq	%rax, -48(%rbp)
L543:
	movq	-48(%rbp), %rbx
	movq	-24(%rbp), %rdi
	call	__ZNSt12_Vector_baseIPK10ConnectionSaIS2_EE12_Vector_implD1Ev
	movq	%rbx, -48(%rbp)
	movq	-48(%rbp), %rdi
LEHB6:
	call	__Unwind_Resume
LEHE6:
L544:
LBE65:
	addq	$40, %rsp
	popq	%rbx
	leave
	ret
LFE2223:
	.section __TEXT,__gcc_except_tab
GCC_except_table2:
LLSDA2223:
	.byte	0xff
	.byte	0xff
	.byte	0x3
	.byte	0x1a
	.set L$set$12,LEHB5-LFB2223
	.long L$set$12
	.set L$set$13,LEHE5-LEHB5
	.long L$set$13
	.set L$set$14,L545-LFB2223
	.long L$set$14
	.byte	0x0
	.set L$set$15,LEHB6-LFB2223
	.long L$set$15
	.set L$set$16,LEHE6-LEHB6
	.long L$set$16
	.long	0x0
	.byte	0x0
	.section __TEXT,__textcoal_nt,coalesced,pure_instructions
	.align 1
.globl __ZNSt6vectorIPK10ConnectionSaIS2_EEC1ERKS4_
	.weak_definition __ZNSt6vectorIPK10ConnectionSaIS2_EEC1ERKS4_
__ZNSt6vectorIPK10ConnectionSaIS2_EEC1ERKS4_:
LFB2123:
	.loc 11 231 0
	pushq	%rbp
LCFI629:
	movq	%rsp, %rbp
LCFI630:
	pushq	%r12
LCFI631:
	pushq	%rbx
LCFI632:
	subq	$32, %rsp
LCFI633:
	movq	%rdi, -40(%rbp)
	movq	%rsi, -48(%rbp)
LBB66:
	.loc 11 232 0
	movq	-48(%rbp), %rdi
	call	__ZNKSt12_Vector_baseIPK10ConnectionSaIS2_EE19_M_get_Tp_allocatorEv
	movq	%rax, %rbx
	movq	-48(%rbp), %rdi
	call	__ZNKSt6vectorIPK10ConnectionSaIS2_EE4sizeEv
	movq	%rax, %rsi
	movq	-40(%rbp), %rdi
	movq	%rbx, %rdx
	call	__ZNSt12_Vector_baseIPK10ConnectionSaIS2_EEC2EmRKS3_
	.loc 11 233 0
	movq	-40(%rbp), %rdi
	call	__ZNSt12_Vector_baseIPK10ConnectionSaIS2_EE19_M_get_Tp_allocatorEv
	movq	%rax, %rsi
	leaq	-17(%rbp), %rdi
	call	__ZNSaIPK10ConnectionEC1ERKS2_
	movq	-40(%rbp), %rax
	movq	(%rax), %r12
	movq	-48(%rbp), %rdi
	call	__ZNKSt6vectorIPK10ConnectionSaIS2_EE3endEv
	movq	%rax, %rbx
	movq	-48(%rbp), %rdi
	call	__ZNKSt6vectorIPK10ConnectionSaIS2_EE5beginEv
	movq	%rax, %rdi
	leaq	-17(%rbp), %rcx
	movq	%r12, %rdx
	movq	%rbx, %rsi
	call	__ZSt22__uninitialized_copy_aIN9__gnu_cxx17__normal_iteratorIPKPK10ConnectionSt6vectorIS4_SaIS4_EEEEPS4_S4_ET0_T_SD_SC_SaIT1_E
	movq	%rax, %rdx
	movq	-40(%rbp), %rax
	movq	%rdx, 8(%rax)
	leaq	-17(%rbp), %rdi
	call	__ZNSaIPK10ConnectionED1Ev
LBE66:
	addq	$32, %rsp
	popq	%rbx
	popq	%r12
	leave
	ret
LFE2123:
	.cstring
LC2:
	.ascii "vector::_M_insert_aux\0"
	.section __TEXT,__textcoal_nt,coalesced,pure_instructions
	.align 1
.globl __ZNSt6vectorIPK10ConnectionSaIS2_EE13_M_insert_auxEN9__gnu_cxx17__normal_iteratorIPS2_S4_EERKS2_
	.weak_definition __ZNSt6vectorIPK10ConnectionSaIS2_EE13_M_insert_auxEN9__gnu_cxx17__normal_iteratorIPS2_S4_EERKS2_
__ZNSt6vectorIPK10ConnectionSaIS2_EE13_M_insert_auxEN9__gnu_cxx17__normal_iteratorIPS2_S4_EERKS2_:
LFB2285:
	.loc 22 245 0
	pushq	%rbp
LCFI634:
	movq	%rsp, %rbp
LCFI635:
	pushq	%r12
LCFI636:
	pushq	%rbx
LCFI637:
	subq	$80, %rsp
LCFI638:
	movq	%rdi, -72(%rbp)
	movq	%rsi, -80(%rbp)
	movq	%rdx, -88(%rbp)
LBB67:
	.loc 22 247 0
	movq	-72(%rbp), %rax
	movq	8(%rax), %rdx
	movq	-72(%rbp), %rax
	movq	16(%rax), %rax
	cmpq	%rax, %rdx
	je	L549
LBB68:
	.loc 22 249 0
	movq	-72(%rbp), %rax
	movq	8(%rax), %rax
	leaq	-8(%rax), %rdx
	movq	-72(%rbp), %rax
	movq	8(%rax), %rsi
	movq	-72(%rbp), %rax
	movq	%rax, %rdi
	call	__ZN9__gnu_cxx13new_allocatorIPK10ConnectionE9constructEPS3_RKS3_
	.loc 22 251 0
	movq	-72(%rbp), %rax
	movq	8(%rax), %rax
	leaq	8(%rax), %rdx
	movq	-72(%rbp), %rax
	movq	%rdx, 8(%rax)
	.loc 22 252 0
	movq	-88(%rbp), %rax
	movq	(%rax), %rax
	movq	%rax, -32(%rbp)
	.loc 22 253 0
	movq	-72(%rbp), %rax
	movq	8(%rax), %rax
	leaq	-8(%rax), %rbx
	movq	-72(%rbp), %rax
	movq	8(%rax), %rax
	leaq	-16(%rax), %r12
	leaq	-80(%rbp), %rdi
	call	__ZNK9__gnu_cxx17__normal_iteratorIPPK10ConnectionSt6vectorIS3_SaIS3_EEE4baseEv
	movq	(%rax), %rdi
	movq	%rbx, %rdx
	movq	%r12, %rsi
	call	__ZSt13copy_backwardIPPK10ConnectionS3_ET0_T_S5_S4_
	.loc 22 256 0
	leaq	-80(%rbp), %rdi
	call	__ZNK9__gnu_cxx17__normal_iteratorIPPK10ConnectionSt6vectorIS3_SaIS3_EEEdeEv
	movq	%rax, %rdx
	movq	-32(%rbp), %rax
	movq	%rax, (%rdx)
	jmp	L559
L549:
LBE68:
LBB69:
	.loc 22 260 0
	movq	-72(%rbp), %rdi
	call	__ZNKSt6vectorIPK10ConnectionSaIS2_EE4sizeEv
	movq	%rax, -40(%rbp)
	.loc 22 261 0
	movq	-72(%rbp), %rdi
	call	__ZNKSt6vectorIPK10ConnectionSaIS2_EE8max_sizeEv
	cmpq	-40(%rbp), %rax
	sete	%al
	testb	%al, %al
	je	L552
	.loc 22 262 0
	leaq	LC2(%rip), %rdi
	call	__ZSt20__throw_length_errorPKc
L552:
	.loc 22 267 0
	cmpq	$0, -40(%rbp)
	je	L554
	movq	-40(%rbp), %rax
	addq	%rax, %rax
	movq	%rax, -96(%rbp)
	jmp	L556
L554:
	movq	$1, -96(%rbp)
L556:
	movq	-96(%rbp), %rax
	movq	%rax, -48(%rbp)
	.loc 22 268 0
	movq	-48(%rbp), %rax
	cmpq	-40(%rbp), %rax
	jae	L557
	.loc 22 269 0
	movq	-72(%rbp), %rdi
	call	__ZNKSt6vectorIPK10ConnectionSaIS2_EE8max_sizeEv
	movq	%rax, -48(%rbp)
L557:
	.loc 22 271 0
	movq	-72(%rbp), %rdi
	movq	-48(%rbp), %rsi
	call	__ZNSt12_Vector_baseIPK10ConnectionSaIS2_EE11_M_allocateEm
	movq	%rax, -56(%rbp)
	.loc 22 272 0
	movq	-56(%rbp), %rax
	movq	%rax, -64(%rbp)
	.loc 22 275 0
	movq	-72(%rbp), %rdi
	call	__ZNSt12_Vector_baseIPK10ConnectionSaIS2_EE19_M_get_Tp_allocatorEv
	movq	%rax, %rsi
	leaq	-17(%rbp), %rdi
	call	__ZNSaIPK10ConnectionEC1ERKS2_
	leaq	-80(%rbp), %rdi
	call	__ZNK9__gnu_cxx17__normal_iteratorIPPK10ConnectionSt6vectorIS3_SaIS3_EEE4baseEv
	movq	(%rax), %rsi
	movq	-72(%rbp), %rax
	movq	(%rax), %rdi
	leaq	-17(%rbp), %rcx
	movq	-56(%rbp), %rdx
	call	__ZSt22__uninitialized_copy_aIPPK10ConnectionS3_S2_ET0_T_S5_S4_SaIT1_E
	movq	%rax, -64(%rbp)
	leaq	-17(%rbp), %rdi
	call	__ZNSaIPK10ConnectionED1Ev
	.loc 22 279 0
	movq	-72(%rbp), %rax
	movq	%rax, %rdi
	movq	-88(%rbp), %rdx
	movq	-64(%rbp), %rsi
	call	__ZN9__gnu_cxx13new_allocatorIPK10ConnectionE9constructEPS3_RKS3_
	.loc 22 280 0
	addq	$8, -64(%rbp)
	.loc 22 281 0
	movq	-72(%rbp), %rdi
	call	__ZNSt12_Vector_baseIPK10ConnectionSaIS2_EE19_M_get_Tp_allocatorEv
	movq	%rax, %rsi
	leaq	-18(%rbp), %rdi
	call	__ZNSaIPK10ConnectionEC1ERKS2_
	movq	-72(%rbp), %rax
	movq	8(%rax), %rbx
	leaq	-80(%rbp), %rdi
	call	__ZNK9__gnu_cxx17__normal_iteratorIPPK10ConnectionSt6vectorIS3_SaIS3_EEE4baseEv
	movq	(%rax), %rdi
	leaq	-18(%rbp), %rcx
	movq	-64(%rbp), %rdx
	movq	%rbx, %rsi
	call	__ZSt22__uninitialized_copy_aIPPK10ConnectionS3_S2_ET0_T_S5_S4_SaIT1_E
	movq	%rax, -64(%rbp)
	leaq	-18(%rbp), %rdi
	call	__ZNSaIPK10ConnectionED1Ev
	.loc 22 293 0
	movq	-72(%rbp), %rdi
	call	__ZNSt12_Vector_baseIPK10ConnectionSaIS2_EE19_M_get_Tp_allocatorEv
	movq	%rax, %rsi
	leaq	-20(%rbp), %rdi
	call	__ZNSaIPK10ConnectionEC1ERKS2_
	movq	-72(%rbp), %rax
	movq	8(%rax), %rsi
	movq	-72(%rbp), %rax
	movq	(%rax), %rdi
	leaq	-20(%rbp), %rdx
	call	__ZSt8_DestroyIPPK10ConnectionS2_EvT_S4_SaIT0_E
	leaq	-20(%rbp), %rdi
	call	__ZNSaIPK10ConnectionED1Ev
	.loc 22 295 0
	movq	-72(%rbp), %rax
	movq	16(%rax), %rax
	movq	%rax, %rdx
	movq	-72(%rbp), %rax
	movq	(%rax), %rax
	movq	%rdx, %rcx
	subq	%rax, %rcx
	movq	%rcx, %rax
	sarq	$3, %rax
	movq	%rax, %rdx
	movq	-72(%rbp), %rax
	movq	(%rax), %rsi
	movq	-72(%rbp), %rdi
	call	__ZNSt12_Vector_baseIPK10ConnectionSaIS2_EE13_M_deallocateEPS2_m
	.loc 22 298 0
	movq	-72(%rbp), %rdx
	movq	-56(%rbp), %rax
	movq	%rax, (%rdx)
	.loc 22 299 0
	movq	-72(%rbp), %rdx
	movq	-64(%rbp), %rax
	movq	%rax, 8(%rdx)
	.loc 22 300 0
	movq	-48(%rbp), %rax
	salq	$3, %rax
	movq	%rax, %rdx
	addq	-56(%rbp), %rdx
	movq	-72(%rbp), %rax
	movq	%rdx, 16(%rax)
L559:
LBE69:
LBE67:
	addq	$80, %rsp
	popq	%rbx
	popq	%r12
	leave
	ret
LFE2285:
	.align 1
.globl __ZNSt6vectorIPK10ConnectionSaIS2_EE9push_backERKS2_
	.weak_definition __ZNSt6vectorIPK10ConnectionSaIS2_EE9push_backERKS2_
__ZNSt6vectorIPK10ConnectionSaIS2_EE9push_backERKS2_:
LFB2167:
	.loc 11 600 0
	pushq	%rbp
LCFI639:
	movq	%rsp, %rbp
LCFI640:
	subq	$16, %rsp
LCFI641:
	movq	%rdi, -8(%rbp)
	movq	%rsi, -16(%rbp)
	.loc 11 602 0
	movq	-8(%rbp), %rax
	movq	8(%rax), %rdx
	movq	-8(%rbp), %rax
	movq	16(%rax), %rax
	cmpq	%rax, %rdx
	je	L561
	.loc 11 604 0
	movq	-8(%rbp), %rax
	movq	8(%rax), %rsi
	movq	-8(%rbp), %rax
	movq	%rax, %rdi
	movq	-16(%rbp), %rdx
	call	__ZN9__gnu_cxx13new_allocatorIPK10ConnectionE9constructEPS3_RKS3_
	.loc 11 605 0
	movq	-8(%rbp), %rax
	movq	8(%rax), %rax
	leaq	8(%rax), %rdx
	movq	-8(%rbp), %rax
	movq	%rdx, 8(%rax)
	jmp	L564
L561:
	.loc 11 608 0
	movq	-8(%rbp), %rdi
	call	__ZNSt6vectorIPK10ConnectionSaIS2_EE3endEv
	movq	%rax, %rsi
	movq	-16(%rbp), %rdx
	movq	-8(%rbp), %rdi
	call	__ZNSt6vectorIPK10ConnectionSaIS2_EE13_M_insert_auxEN9__gnu_cxx17__normal_iteratorIPS2_S4_EERKS2_
L564:
	leave
	ret
LFE2167:
	.align 1
.globl __ZNSt6vectorIPK10ConnectionSaIS2_EE20_M_allocate_and_copyIN9__gnu_cxx17__normal_iteratorIPKS2_S4_EEEEPS2_mT_SC_
	.weak_definition __ZNSt6vectorIPK10ConnectionSaIS2_EE20_M_allocate_and_copyIN9__gnu_cxx17__normal_iteratorIPKS2_S4_EEEEPS2_mT_SC_
__ZNSt6vectorIPK10ConnectionSaIS2_EE20_M_allocate_and_copyIN9__gnu_cxx17__normal_iteratorIPKS2_S4_EEEEPS2_mT_SC_:
LFB2230:
	.loc 11 764 0
	pushq	%rbp
LCFI642:
	movq	%rsp, %rbp
LCFI643:
	subq	$48, %rsp
LCFI644:
	movq	%rdi, -24(%rbp)
	movq	%rsi, -32(%rbp)
	movq	%rdx, -40(%rbp)
	movq	%rcx, -48(%rbp)
LBB70:
	.loc 11 766 0
	movq	-24(%rbp), %rdi
	movq	-32(%rbp), %rsi
	call	__ZNSt12_Vector_baseIPK10ConnectionSaIS2_EE11_M_allocateEm
	movq	%rax, -16(%rbp)
	.loc 11 769 0
	movq	-24(%rbp), %rdi
	call	__ZNSt12_Vector_baseIPK10ConnectionSaIS2_EE19_M_get_Tp_allocatorEv
	movq	%rax, %rsi
	leaq	-1(%rbp), %rdi
	call	__ZNSaIPK10ConnectionEC1ERKS2_
	leaq	-1(%rbp), %rcx
	movq	-16(%rbp), %rdx
	movq	-48(%rbp), %rsi
	movq	-40(%rbp), %rdi
	call	__ZSt22__uninitialized_copy_aIN9__gnu_cxx17__normal_iteratorIPKPK10ConnectionSt6vectorIS4_SaIS4_EEEEPS4_S4_ET0_T_SD_SC_SaIT1_E
	leaq	-1(%rbp), %rdi
	call	__ZNSaIPK10ConnectionED1Ev
	.loc 11 771 0
	movq	-16(%rbp), %rax
LBE70:
	.loc 11 776 0
	leave
	ret
LFE2230:
	.align 1
.globl __ZNSt6vectorIPK10ConnectionSaIS2_EEaSERKS4_
	.weak_definition __ZNSt6vectorIPK10ConnectionSaIS2_EEaSERKS4_
__ZNSt6vectorIPK10ConnectionSaIS2_EEaSERKS4_:
LFB2127:
	.loc 22 132 0
	pushq	%rbp
LCFI645:
	movq	%rsp, %rbp
LCFI646:
	pushq	%r13
LCFI647:
	pushq	%r12
LCFI648:
	pushq	%rbx
LCFI649:
	subq	$56, %rsp
LCFI650:
	movq	%rdi, -72(%rbp)
	movq	%rsi, -80(%rbp)
LBB71:
	.loc 22 134 0
	movq	-80(%rbp), %rax
	cmpq	-72(%rbp), %rax
	je	L568
LBB72:
	.loc 22 136 0
	movq	-80(%rbp), %rdi
	call	__ZNKSt6vectorIPK10ConnectionSaIS2_EE4sizeEv
	movq	%rax, -48(%rbp)
	.loc 22 137 0
	movq	-72(%rbp), %rdi
	call	__ZNKSt6vectorIPK10ConnectionSaIS2_EE8capacityEv
	cmpq	-48(%rbp), %rax
	setb	%al
	testb	%al, %al
	je	L570
LBB73:
	.loc 22 140 0
	movq	-80(%rbp), %rdi
	call	__ZNKSt6vectorIPK10ConnectionSaIS2_EE3endEv
	movq	%rax, %rbx
	movq	-80(%rbp), %rdi
	call	__ZNKSt6vectorIPK10ConnectionSaIS2_EE5beginEv
	movq	%rax, %rdx
	movq	-48(%rbp), %rsi
	movq	-72(%rbp), %rdi
	movq	%rbx, %rcx
	call	__ZNSt6vectorIPK10ConnectionSaIS2_EE20_M_allocate_and_copyIN9__gnu_cxx17__normal_iteratorIPKS2_S4_EEEEPS2_mT_SC_
	movq	%rax, -56(%rbp)
	.loc 22 141 0
	movq	-72(%rbp), %rdi
	call	__ZNSt12_Vector_baseIPK10ConnectionSaIS2_EE19_M_get_Tp_allocatorEv
	movq	%rax, %rsi
	leaq	-33(%rbp), %rdi
	call	__ZNSaIPK10ConnectionEC1ERKS2_
	movq	-72(%rbp), %rax
	movq	8(%rax), %rsi
	movq	-72(%rbp), %rax
	movq	(%rax), %rdi
	leaq	-33(%rbp), %rdx
	call	__ZSt8_DestroyIPPK10ConnectionS2_EvT_S4_SaIT0_E
	leaq	-33(%rbp), %rdi
	call	__ZNSaIPK10ConnectionED1Ev
	.loc 22 143 0
	movq	-72(%rbp), %rax
	movq	16(%rax), %rax
	movq	%rax, %rdx
	movq	-72(%rbp), %rax
	movq	(%rax), %rax
	movq	%rdx, %rcx
	subq	%rax, %rcx
	movq	%rcx, %rax
	sarq	$3, %rax
	movq	%rax, %rdx
	movq	-72(%rbp), %rax
	movq	(%rax), %rsi
	movq	-72(%rbp), %rdi
	call	__ZNSt12_Vector_baseIPK10ConnectionSaIS2_EE13_M_deallocateEPS2_m
	.loc 22 146 0
	movq	-72(%rbp), %rdx
	movq	-56(%rbp), %rax
	movq	%rax, (%rdx)
	.loc 22 147 0
	movq	-72(%rbp), %rax
	movq	(%rax), %rdx
	movq	-48(%rbp), %rax
	salq	$3, %rax
	addq	%rax, %rdx
	movq	-72(%rbp), %rax
	movq	%rdx, 16(%rax)
	jmp	L572
L570:
LBE73:
	.loc 22 149 0
	movq	-72(%rbp), %rdi
	call	__ZNKSt6vectorIPK10ConnectionSaIS2_EE4sizeEv
	cmpq	-48(%rbp), %rax
	setae	%al
	testb	%al, %al
	je	L573
	.loc 22 151 0
	movq	-72(%rbp), %rdi
	call	__ZNSt12_Vector_baseIPK10ConnectionSaIS2_EE19_M_get_Tp_allocatorEv
	movq	%rax, %rsi
	leaq	-34(%rbp), %rdi
	call	__ZNSaIPK10ConnectionEC1ERKS2_
	movq	-72(%rbp), %rdi
	call	__ZNSt6vectorIPK10ConnectionSaIS2_EE3endEv
	movq	%rax, %r12
	movq	-72(%rbp), %rdi
	call	__ZNSt6vectorIPK10ConnectionSaIS2_EE5beginEv
	movq	%rax, %r13
	movq	-80(%rbp), %rdi
	call	__ZNKSt6vectorIPK10ConnectionSaIS2_EE3endEv
	movq	%rax, %rbx
	movq	-80(%rbp), %rdi
	call	__ZNKSt6vectorIPK10ConnectionSaIS2_EE5beginEv
	movq	%rax, %rdi
	movq	%r13, %rdx
	movq	%rbx, %rsi
	call	__ZSt4copyIN9__gnu_cxx17__normal_iteratorIPKPK10ConnectionSt6vectorIS4_SaIS4_EEEENS1_IPS4_S9_EEET0_T_SE_SD_
	movq	%rax, %rdi
	leaq	-34(%rbp), %rdx
	movq	%r12, %rsi
	call	__ZSt8_DestroyIN9__gnu_cxx17__normal_iteratorIPPK10ConnectionSt6vectorIS4_SaIS4_EEEES4_EvT_SA_SaIT0_E
	leaq	-34(%rbp), %rdi
	call	__ZNSaIPK10ConnectionED1Ev
	jmp	L572
L573:
	.loc 22 156 0
	movq	-72(%rbp), %rax
	movq	(%rax), %r12
	movq	-80(%rbp), %rax
	movq	(%rax), %rbx
	movq	-72(%rbp), %rdi
	call	__ZNKSt6vectorIPK10ConnectionSaIS2_EE4sizeEv
	salq	$3, %rax
	leaq	(%rbx,%rax), %rsi
	movq	-80(%rbp), %rax
	movq	(%rax), %rdi
	movq	%r12, %rdx
	call	__ZSt4copyIPPK10ConnectionS3_ET0_T_S5_S4_
	.loc 22 158 0
	movq	-72(%rbp), %rdi
	call	__ZNSt12_Vector_baseIPK10ConnectionSaIS2_EE19_M_get_Tp_allocatorEv
	movq	%rax, %rsi
	leaq	-35(%rbp), %rdi
	call	__ZNSaIPK10ConnectionEC1ERKS2_
	movq	-72(%rbp), %rax
	movq	8(%rax), %r12
	movq	-80(%rbp), %rax
	movq	8(%rax), %r13
	movq	-80(%rbp), %rax
	movq	(%rax), %rbx
	movq	-72(%rbp), %rdi
	call	__ZNKSt6vectorIPK10ConnectionSaIS2_EE4sizeEv
	salq	$3, %rax
	leaq	(%rbx,%rax), %rdi
	leaq	-35(%rbp), %rcx
	movq	%r12, %rdx
	movq	%r13, %rsi
	call	__ZSt22__uninitialized_copy_aIPPK10ConnectionS3_S2_ET0_T_S5_S4_SaIT1_E
	leaq	-35(%rbp), %rdi
	call	__ZNSaIPK10ConnectionED1Ev
L572:
	.loc 22 163 0
	movq	-72(%rbp), %rax
	movq	(%rax), %rdx
	movq	-48(%rbp), %rax
	salq	$3, %rax
	addq	%rax, %rdx
	movq	-72(%rbp), %rax
	movq	%rdx, 8(%rax)
L568:
LBE72:
	.loc 22 165 0
	movq	-72(%rbp), %rax
LBE71:
	addq	$56, %rsp
	popq	%rbx
	popq	%r12
	popq	%r13
	leave
	ret
LFE2127:
	.align 1
.globl __ZN9__gnu_cxx13new_allocatorISt13_Rb_tree_nodeISt4pairIK6EValuePK4CityEEE8allocateEmPKv
	.weak_definition __ZN9__gnu_cxx13new_allocatorISt13_Rb_tree_nodeISt4pairIK6EValuePK4CityEEE8allocateEmPKv
__ZN9__gnu_cxx13new_allocatorISt13_Rb_tree_nodeISt4pairIK6EValuePK4CityEEE8allocateEmPKv:
LFB2436:
	.loc 14 86 0
	pushq	%rbp
LCFI651:
	movq	%rsp, %rbp
LCFI652:
	subq	$32, %rsp
LCFI653:
	movq	%rdi, -8(%rbp)
	movq	%rsi, -16(%rbp)
	movq	%rdx, -24(%rbp)
	.loc 14 88 0
	movq	-8(%rbp), %rdi
	call	__ZNK9__gnu_cxx13new_allocatorISt13_Rb_tree_nodeISt4pairIK6EValuePK4CityEEE8max_sizeEv
	cmpq	-16(%rbp), %rax
	setb	%al
	movzbl	%al, %eax
	testq	%rax, %rax
	setne	%al
	testb	%al, %al
	je	L577
	.loc 14 89 0
	call	__ZSt17__throw_bad_allocv
L577:
	.loc 14 91 0
	movq	-16(%rbp), %rdx
	movq	%rdx, %rax
	addq	%rax, %rax
	addq	%rdx, %rax
	salq	$4, %rax
	movq	%rax, %rdi
	call	__Znwm
	leave
	ret
LFE2436:
	.align 1
.globl __ZNSt8_Rb_treeI6EValueSt4pairIKS0_PK4CityESt10_Select1stIS6_ESt4lessIS0_ESaIS6_EE11_M_get_nodeEv
	.weak_definition __ZNSt8_Rb_treeI6EValueSt4pairIKS0_PK4CityESt10_Select1stIS6_ESt4lessIS0_ESaIS6_EE11_M_get_nodeEv
__ZNSt8_Rb_treeI6EValueSt4pairIKS0_PK4CityESt10_Select1stIS6_ESt4lessIS0_ESaIS6_EE11_M_get_nodeEv:
LFB2423:
	.loc 10 368 0
	pushq	%rbp
LCFI654:
	movq	%rsp, %rbp
LCFI655:
	subq	$16, %rsp
LCFI656:
	movq	%rdi, -8(%rbp)
	.loc 10 369 0
	movq	-8(%rbp), %rax
	movq	%rax, %rdi
	movl	$0, %edx
	movl	$1, %esi
	call	__ZN9__gnu_cxx13new_allocatorISt13_Rb_tree_nodeISt4pairIK6EValuePK4CityEEE8allocateEmPKv
	leave
	ret
LFE2423:
	.align 1
.globl __ZNSt8_Rb_treeI6EValueSt4pairIKS0_PK4CityESt10_Select1stIS6_ESt4lessIS0_ESaIS6_EE14_M_create_nodeERKS6_
	.weak_definition __ZNSt8_Rb_treeI6EValueSt4pairIKS0_PK4CityESt10_Select1stIS6_ESt4lessIS0_ESaIS6_EE14_M_create_nodeERKS6_
__ZNSt8_Rb_treeI6EValueSt4pairIKS0_PK4CityESt10_Select1stIS6_ESt4lessIS0_ESaIS6_EE14_M_create_nodeERKS6_:
LFB2385:
	.loc 10 376 0
	pushq	%rbp
LCFI657:
	movq	%rsp, %rbp
LCFI658:
	pushq	%rbx
LCFI659:
	subq	$40, %rsp
LCFI660:
	movq	%rdi, -40(%rbp)
	movq	%rsi, -48(%rbp)
LBB74:
	.loc 10 378 0
	movq	-40(%rbp), %rdi
	call	__ZNSt8_Rb_treeI6EValueSt4pairIKS0_PK4CityESt10_Select1stIS6_ESt4lessIS0_ESaIS6_EE11_M_get_nodeEv
	movq	%rax, -32(%rbp)
	.loc 10 380 0
	movq	-32(%rbp), %rbx
	addq	$32, %rbx
	leaq	-17(%rbp), %rdi
	movq	-40(%rbp), %rsi
	call	__ZNKSt8_Rb_treeI6EValueSt4pairIKS0_PK4CityESt10_Select1stIS6_ESt4lessIS0_ESaIS6_EE13get_allocatorEv
	leaq	-17(%rbp), %rdi
	movq	-48(%rbp), %rdx
	movq	%rbx, %rsi
	call	__ZN9__gnu_cxx13new_allocatorISt4pairIK6EValuePK4CityEE9constructEPS7_RKS7_
	leaq	-17(%rbp), %rdi
	call	__ZNSaISt4pairIK6EValuePK4CityEED1Ev
	.loc 10 386 0
	movq	-32(%rbp), %rax
LBE74:
	addq	$40, %rsp
	popq	%rbx
	leave
	ret
LFE2385:
	.align 1
.globl __ZN9__gnu_cxx13new_allocatorIPK10CoordinateE8allocateEmPKv
	.weak_definition __ZN9__gnu_cxx13new_allocatorIPK10CoordinateE8allocateEmPKv
__ZN9__gnu_cxx13new_allocatorIPK10CoordinateE8allocateEmPKv:
LFB2398:
	.loc 14 86 0
	pushq	%rbp
LCFI661:
	movq	%rsp, %rbp
LCFI662:
	subq	$32, %rsp
LCFI663:
	movq	%rdi, -8(%rbp)
	movq	%rsi, -16(%rbp)
	movq	%rdx, -24(%rbp)
	.loc 14 88 0
	movq	-8(%rbp), %rdi
	call	__ZNK9__gnu_cxx13new_allocatorIPK10CoordinateE8max_sizeEv
	cmpq	-16(%rbp), %rax
	setb	%al
	movzbl	%al, %eax
	testq	%rax, %rax
	setne	%al
	testb	%al, %al
	je	L585
	.loc 14 89 0
	call	__ZSt17__throw_bad_allocv
L585:
	.loc 14 91 0
	movq	-16(%rbp), %rax
	leaq	0(,%rax,8), %rdi
	call	__Znwm
	leave
	ret
LFE2398:
	.align 1
.globl __ZNSt12_Vector_baseIPK10CoordinateSaIS2_EE11_M_allocateEm
	.weak_definition __ZNSt12_Vector_baseIPK10CoordinateSaIS2_EE11_M_allocateEm
__ZNSt12_Vector_baseIPK10CoordinateSaIS2_EE11_M_allocateEm:
LFB2353:
	.loc 11 130 0
	pushq	%rbp
LCFI664:
	movq	%rsp, %rbp
LCFI665:
	subq	$16, %rsp
LCFI666:
	movq	%rdi, -8(%rbp)
	movq	%rsi, -16(%rbp)
	.loc 11 131 0
	movq	-8(%rbp), %rax
	movq	%rax, %rdi
	movq	-16(%rbp), %rsi
	movl	$0, %edx
	call	__ZN9__gnu_cxx13new_allocatorIPK10CoordinateE8allocateEmPKv
	leave
	ret
LFE2353:
	.align 1
.globl __ZNSt6vectorIPK10CoordinateSaIS2_EE13_M_insert_auxEN9__gnu_cxx17__normal_iteratorIPS2_S4_EERKS2_
	.weak_definition __ZNSt6vectorIPK10CoordinateSaIS2_EE13_M_insert_auxEN9__gnu_cxx17__normal_iteratorIPS2_S4_EERKS2_
__ZNSt6vectorIPK10CoordinateSaIS2_EE13_M_insert_auxEN9__gnu_cxx17__normal_iteratorIPS2_S4_EERKS2_:
LFB2257:
	.loc 22 245 0
	pushq	%rbp
LCFI667:
	movq	%rsp, %rbp
LCFI668:
	pushq	%r12
LCFI669:
	pushq	%rbx
LCFI670:
	subq	$80, %rsp
LCFI671:
	movq	%rdi, -72(%rbp)
	movq	%rsi, -80(%rbp)
	movq	%rdx, -88(%rbp)
LBB75:
	.loc 22 247 0
	movq	-72(%rbp), %rax
	movq	8(%rax), %rdx
	movq	-72(%rbp), %rax
	movq	16(%rax), %rax
	cmpq	%rax, %rdx
	je	L591
LBB76:
	.loc 22 249 0
	movq	-72(%rbp), %rax
	movq	8(%rax), %rax
	leaq	-8(%rax), %rdx
	movq	-72(%rbp), %rax
	movq	8(%rax), %rsi
	movq	-72(%rbp), %rax
	movq	%rax, %rdi
	call	__ZN9__gnu_cxx13new_allocatorIPK10CoordinateE9constructEPS3_RKS3_
	.loc 22 251 0
	movq	-72(%rbp), %rax
	movq	8(%rax), %rax
	leaq	8(%rax), %rdx
	movq	-72(%rbp), %rax
	movq	%rdx, 8(%rax)
	.loc 22 252 0
	movq	-88(%rbp), %rax
	movq	(%rax), %rax
	movq	%rax, -32(%rbp)
	.loc 22 253 0
	movq	-72(%rbp), %rax
	movq	8(%rax), %rax
	leaq	-8(%rax), %rbx
	movq	-72(%rbp), %rax
	movq	8(%rax), %rax
	leaq	-16(%rax), %r12
	leaq	-80(%rbp), %rdi
	call	__ZNK9__gnu_cxx17__normal_iteratorIPPK10CoordinateSt6vectorIS3_SaIS3_EEE4baseEv
	movq	(%rax), %rdi
	movq	%rbx, %rdx
	movq	%r12, %rsi
	call	__ZSt13copy_backwardIPPK10CoordinateS3_ET0_T_S5_S4_
	.loc 22 256 0
	leaq	-80(%rbp), %rdi
	call	__ZNK9__gnu_cxx17__normal_iteratorIPPK10CoordinateSt6vectorIS3_SaIS3_EEEdeEv
	movq	%rax, %rdx
	movq	-32(%rbp), %rax
	movq	%rax, (%rdx)
	jmp	L601
L591:
LBE76:
LBB77:
	.loc 22 260 0
	movq	-72(%rbp), %rdi
	call	__ZNKSt6vectorIPK10CoordinateSaIS2_EE4sizeEv
	movq	%rax, -40(%rbp)
	.loc 22 261 0
	movq	-72(%rbp), %rdi
	call	__ZNKSt6vectorIPK10CoordinateSaIS2_EE8max_sizeEv
	cmpq	-40(%rbp), %rax
	sete	%al
	testb	%al, %al
	je	L594
	.loc 22 262 0
	leaq	LC2(%rip), %rdi
	call	__ZSt20__throw_length_errorPKc
L594:
	.loc 22 267 0
	cmpq	$0, -40(%rbp)
	je	L596
	movq	-40(%rbp), %rax
	addq	%rax, %rax
	movq	%rax, -96(%rbp)
	jmp	L598
L596:
	movq	$1, -96(%rbp)
L598:
	movq	-96(%rbp), %rax
	movq	%rax, -48(%rbp)
	.loc 22 268 0
	movq	-48(%rbp), %rax
	cmpq	-40(%rbp), %rax
	jae	L599
	.loc 22 269 0
	movq	-72(%rbp), %rdi
	call	__ZNKSt6vectorIPK10CoordinateSaIS2_EE8max_sizeEv
	movq	%rax, -48(%rbp)
L599:
	.loc 22 271 0
	movq	-72(%rbp), %rdi
	movq	-48(%rbp), %rsi
	call	__ZNSt12_Vector_baseIPK10CoordinateSaIS2_EE11_M_allocateEm
	movq	%rax, -56(%rbp)
	.loc 22 272 0
	movq	-56(%rbp), %rax
	movq	%rax, -64(%rbp)
	.loc 22 275 0
	movq	-72(%rbp), %rdi
	call	__ZNSt12_Vector_baseIPK10CoordinateSaIS2_EE19_M_get_Tp_allocatorEv
	movq	%rax, %rsi
	leaq	-17(%rbp), %rdi
	call	__ZNSaIPK10CoordinateEC1ERKS2_
	leaq	-80(%rbp), %rdi
	call	__ZNK9__gnu_cxx17__normal_iteratorIPPK10CoordinateSt6vectorIS3_SaIS3_EEE4baseEv
	movq	(%rax), %rsi
	movq	-72(%rbp), %rax
	movq	(%rax), %rdi
	leaq	-17(%rbp), %rcx
	movq	-56(%rbp), %rdx
	call	__ZSt22__uninitialized_copy_aIPPK10CoordinateS3_S2_ET0_T_S5_S4_SaIT1_E
	movq	%rax, -64(%rbp)
	leaq	-17(%rbp), %rdi
	call	__ZNSaIPK10CoordinateED1Ev
	.loc 22 279 0
	movq	-72(%rbp), %rax
	movq	%rax, %rdi
	movq	-88(%rbp), %rdx
	movq	-64(%rbp), %rsi
	call	__ZN9__gnu_cxx13new_allocatorIPK10CoordinateE9constructEPS3_RKS3_
	.loc 22 280 0
	addq	$8, -64(%rbp)
	.loc 22 281 0
	movq	-72(%rbp), %rdi
	call	__ZNSt12_Vector_baseIPK10CoordinateSaIS2_EE19_M_get_Tp_allocatorEv
	movq	%rax, %rsi
	leaq	-18(%rbp), %rdi
	call	__ZNSaIPK10CoordinateEC1ERKS2_
	movq	-72(%rbp), %rax
	movq	8(%rax), %rbx
	leaq	-80(%rbp), %rdi
	call	__ZNK9__gnu_cxx17__normal_iteratorIPPK10CoordinateSt6vectorIS3_SaIS3_EEE4baseEv
	movq	(%rax), %rdi
	leaq	-18(%rbp), %rcx
	movq	-64(%rbp), %rdx
	movq	%rbx, %rsi
	call	__ZSt22__uninitialized_copy_aIPPK10CoordinateS3_S2_ET0_T_S5_S4_SaIT1_E
	movq	%rax, -64(%rbp)
	leaq	-18(%rbp), %rdi
	call	__ZNSaIPK10CoordinateED1Ev
	.loc 22 293 0
	movq	-72(%rbp), %rdi
	call	__ZNSt12_Vector_baseIPK10CoordinateSaIS2_EE19_M_get_Tp_allocatorEv
	movq	%rax, %rsi
	leaq	-20(%rbp), %rdi
	call	__ZNSaIPK10CoordinateEC1ERKS2_
	movq	-72(%rbp), %rax
	movq	8(%rax), %rsi
	movq	-72(%rbp), %rax
	movq	(%rax), %rdi
	leaq	-20(%rbp), %rdx
	call	__ZSt8_DestroyIPPK10CoordinateS2_EvT_S4_SaIT0_E
	leaq	-20(%rbp), %rdi
	call	__ZNSaIPK10CoordinateED1Ev
	.loc 22 295 0
	movq	-72(%rbp), %rax
	movq	16(%rax), %rax
	movq	%rax, %rdx
	movq	-72(%rbp), %rax
	movq	(%rax), %rax
	movq	%rdx, %rcx
	subq	%rax, %rcx
	movq	%rcx, %rax
	sarq	$3, %rax
	movq	%rax, %rdx
	movq	-72(%rbp), %rax
	movq	(%rax), %rsi
	movq	-72(%rbp), %rdi
	call	__ZNSt12_Vector_baseIPK10CoordinateSaIS2_EE13_M_deallocateEPS2_m
	.loc 22 298 0
	movq	-72(%rbp), %rdx
	movq	-56(%rbp), %rax
	movq	%rax, (%rdx)
	.loc 22 299 0
	movq	-72(%rbp), %rdx
	movq	-64(%rbp), %rax
	movq	%rax, 8(%rdx)
	.loc 22 300 0
	movq	-48(%rbp), %rax
	salq	$3, %rax
	movq	%rax, %rdx
	addq	-56(%rbp), %rdx
	movq	-72(%rbp), %rax
	movq	%rdx, 16(%rax)
L601:
LBE77:
LBE75:
	addq	$80, %rsp
	popq	%rbx
	popq	%r12
	leave
	ret
LFE2257:
	.align 1
.globl __ZNSt6vectorIPK10CoordinateSaIS2_EE9push_backERKS2_
	.weak_definition __ZNSt6vectorIPK10CoordinateSaIS2_EE9push_backERKS2_
__ZNSt6vectorIPK10CoordinateSaIS2_EE9push_backERKS2_:
LFB2143:
	.loc 11 600 0
	pushq	%rbp
LCFI672:
	movq	%rsp, %rbp
LCFI673:
	subq	$16, %rsp
LCFI674:
	movq	%rdi, -8(%rbp)
	movq	%rsi, -16(%rbp)
	.loc 11 602 0
	movq	-8(%rbp), %rax
	movq	8(%rax), %rdx
	movq	-8(%rbp), %rax
	movq	16(%rax), %rax
	cmpq	%rax, %rdx
	je	L603
	.loc 11 604 0
	movq	-8(%rbp), %rax
	movq	8(%rax), %rsi
	movq	-8(%rbp), %rax
	movq	%rax, %rdi
	movq	-16(%rbp), %rdx
	call	__ZN9__gnu_cxx13new_allocatorIPK10CoordinateE9constructEPS3_RKS3_
	.loc 11 605 0
	movq	-8(%rbp), %rax
	movq	8(%rax), %rax
	leaq	8(%rax), %rdx
	movq	-8(%rbp), %rax
	movq	%rdx, 8(%rax)
	jmp	L606
L603:
	.loc 11 608 0
	movq	-8(%rbp), %rdi
	call	__ZNSt6vectorIPK10CoordinateSaIS2_EE3endEv
	movq	%rax, %rsi
	movq	-16(%rbp), %rdx
	movq	-8(%rbp), %rdi
	call	__ZNSt6vectorIPK10CoordinateSaIS2_EE13_M_insert_auxEN9__gnu_cxx17__normal_iteratorIPS2_S4_EERKS2_
L606:
	leave
	ret
LFE2143:
	.align 1
.globl __ZNSt6vectorIPK10CoordinateSaIS2_EE20_M_allocate_and_copyIN9__gnu_cxx17__normal_iteratorIPKS2_S4_EEEEPS2_mT_SC_
	.weak_definition __ZNSt6vectorIPK10CoordinateSaIS2_EE20_M_allocate_and_copyIN9__gnu_cxx17__normal_iteratorIPKS2_S4_EEEEPS2_mT_SC_
__ZNSt6vectorIPK10CoordinateSaIS2_EE20_M_allocate_and_copyIN9__gnu_cxx17__normal_iteratorIPKS2_S4_EEEEPS2_mT_SC_:
LFB2265:
	.loc 11 764 0
	pushq	%rbp
LCFI675:
	movq	%rsp, %rbp
LCFI676:
	subq	$48, %rsp
LCFI677:
	movq	%rdi, -24(%rbp)
	movq	%rsi, -32(%rbp)
	movq	%rdx, -40(%rbp)
	movq	%rcx, -48(%rbp)
LBB78:
	.loc 11 766 0
	movq	-24(%rbp), %rdi
	movq	-32(%rbp), %rsi
	call	__ZNSt12_Vector_baseIPK10CoordinateSaIS2_EE11_M_allocateEm
	movq	%rax, -16(%rbp)
	.loc 11 769 0
	movq	-24(%rbp), %rdi
	call	__ZNSt12_Vector_baseIPK10CoordinateSaIS2_EE19_M_get_Tp_allocatorEv
	movq	%rax, %rsi
	leaq	-1(%rbp), %rdi
	call	__ZNSaIPK10CoordinateEC1ERKS2_
	leaq	-1(%rbp), %rcx
	movq	-16(%rbp), %rdx
	movq	-48(%rbp), %rsi
	movq	-40(%rbp), %rdi
	call	__ZSt22__uninitialized_copy_aIN9__gnu_cxx17__normal_iteratorIPKPK10CoordinateSt6vectorIS4_SaIS4_EEEEPS4_S4_ET0_T_SD_SC_SaIT1_E
	leaq	-1(%rbp), %rdi
	call	__ZNSaIPK10CoordinateED1Ev
	.loc 11 771 0
	movq	-16(%rbp), %rax
LBE78:
	.loc 11 776 0
	leave
	ret
LFE2265:
	.align 1
.globl __ZNSt6vectorIPK10CoordinateSaIS2_EEaSERKS4_
	.weak_definition __ZNSt6vectorIPK10CoordinateSaIS2_EEaSERKS4_
__ZNSt6vectorIPK10CoordinateSaIS2_EEaSERKS4_:
LFB2153:
	.loc 22 132 0
	pushq	%rbp
LCFI678:
	movq	%rsp, %rbp
LCFI679:
	pushq	%r13
LCFI680:
	pushq	%r12
LCFI681:
	pushq	%rbx
LCFI682:
	subq	$56, %rsp
LCFI683:
	movq	%rdi, -72(%rbp)
	movq	%rsi, -80(%rbp)
LBB79:
	.loc 22 134 0
	movq	-80(%rbp), %rax
	cmpq	-72(%rbp), %rax
	je	L610
LBB80:
	.loc 22 136 0
	movq	-80(%rbp), %rdi
	call	__ZNKSt6vectorIPK10CoordinateSaIS2_EE4sizeEv
	movq	%rax, -48(%rbp)
	.loc 22 137 0
	movq	-72(%rbp), %rdi
	call	__ZNKSt6vectorIPK10CoordinateSaIS2_EE8capacityEv
	cmpq	-48(%rbp), %rax
	setb	%al
	testb	%al, %al
	je	L612
LBB81:
	.loc 22 140 0
	movq	-80(%rbp), %rdi
	call	__ZNKSt6vectorIPK10CoordinateSaIS2_EE3endEv
	movq	%rax, %rbx
	movq	-80(%rbp), %rdi
	call	__ZNKSt6vectorIPK10CoordinateSaIS2_EE5beginEv
	movq	%rax, %rdx
	movq	-48(%rbp), %rsi
	movq	-72(%rbp), %rdi
	movq	%rbx, %rcx
	call	__ZNSt6vectorIPK10CoordinateSaIS2_EE20_M_allocate_and_copyIN9__gnu_cxx17__normal_iteratorIPKS2_S4_EEEEPS2_mT_SC_
	movq	%rax, -56(%rbp)
	.loc 22 141 0
	movq	-72(%rbp), %rdi
	call	__ZNSt12_Vector_baseIPK10CoordinateSaIS2_EE19_M_get_Tp_allocatorEv
	movq	%rax, %rsi
	leaq	-33(%rbp), %rdi
	call	__ZNSaIPK10CoordinateEC1ERKS2_
	movq	-72(%rbp), %rax
	movq	8(%rax), %rsi
	movq	-72(%rbp), %rax
	movq	(%rax), %rdi
	leaq	-33(%rbp), %rdx
	call	__ZSt8_DestroyIPPK10CoordinateS2_EvT_S4_SaIT0_E
	leaq	-33(%rbp), %rdi
	call	__ZNSaIPK10CoordinateED1Ev
	.loc 22 143 0
	movq	-72(%rbp), %rax
	movq	16(%rax), %rax
	movq	%rax, %rdx
	movq	-72(%rbp), %rax
	movq	(%rax), %rax
	movq	%rdx, %rcx
	subq	%rax, %rcx
	movq	%rcx, %rax
	sarq	$3, %rax
	movq	%rax, %rdx
	movq	-72(%rbp), %rax
	movq	(%rax), %rsi
	movq	-72(%rbp), %rdi
	call	__ZNSt12_Vector_baseIPK10CoordinateSaIS2_EE13_M_deallocateEPS2_m
	.loc 22 146 0
	movq	-72(%rbp), %rdx
	movq	-56(%rbp), %rax
	movq	%rax, (%rdx)
	.loc 22 147 0
	movq	-72(%rbp), %rax
	movq	(%rax), %rdx
	movq	-48(%rbp), %rax
	salq	$3, %rax
	addq	%rax, %rdx
	movq	-72(%rbp), %rax
	movq	%rdx, 16(%rax)
	jmp	L614
L612:
LBE81:
	.loc 22 149 0
	movq	-72(%rbp), %rdi
	call	__ZNKSt6vectorIPK10CoordinateSaIS2_EE4sizeEv
	cmpq	-48(%rbp), %rax
	setae	%al
	testb	%al, %al
	je	L615
	.loc 22 151 0
	movq	-72(%rbp), %rdi
	call	__ZNSt12_Vector_baseIPK10CoordinateSaIS2_EE19_M_get_Tp_allocatorEv
	movq	%rax, %rsi
	leaq	-34(%rbp), %rdi
	call	__ZNSaIPK10CoordinateEC1ERKS2_
	movq	-72(%rbp), %rdi
	call	__ZNSt6vectorIPK10CoordinateSaIS2_EE3endEv
	movq	%rax, %r12
	movq	-72(%rbp), %rdi
	call	__ZNSt6vectorIPK10CoordinateSaIS2_EE5beginEv
	movq	%rax, %r13
	movq	-80(%rbp), %rdi
	call	__ZNKSt6vectorIPK10CoordinateSaIS2_EE3endEv
	movq	%rax, %rbx
	movq	-80(%rbp), %rdi
	call	__ZNKSt6vectorIPK10CoordinateSaIS2_EE5beginEv
	movq	%rax, %rdi
	movq	%r13, %rdx
	movq	%rbx, %rsi
	call	__ZSt4copyIN9__gnu_cxx17__normal_iteratorIPKPK10CoordinateSt6vectorIS4_SaIS4_EEEENS1_IPS4_S9_EEET0_T_SE_SD_
	movq	%rax, %rdi
	leaq	-34(%rbp), %rdx
	movq	%r12, %rsi
	call	__ZSt8_DestroyIN9__gnu_cxx17__normal_iteratorIPPK10CoordinateSt6vectorIS4_SaIS4_EEEES4_EvT_SA_SaIT0_E
	leaq	-34(%rbp), %rdi
	call	__ZNSaIPK10CoordinateED1Ev
	jmp	L614
L615:
	.loc 22 156 0
	movq	-72(%rbp), %rax
	movq	(%rax), %r12
	movq	-80(%rbp), %rax
	movq	(%rax), %rbx
	movq	-72(%rbp), %rdi
	call	__ZNKSt6vectorIPK10CoordinateSaIS2_EE4sizeEv
	salq	$3, %rax
	leaq	(%rbx,%rax), %rsi
	movq	-80(%rbp), %rax
	movq	(%rax), %rdi
	movq	%r12, %rdx
	call	__ZSt4copyIPPK10CoordinateS3_ET0_T_S5_S4_
	.loc 22 158 0
	movq	-72(%rbp), %rdi
	call	__ZNSt12_Vector_baseIPK10CoordinateSaIS2_EE19_M_get_Tp_allocatorEv
	movq	%rax, %rsi
	leaq	-35(%rbp), %rdi
	call	__ZNSaIPK10CoordinateEC1ERKS2_
	movq	-72(%rbp), %rax
	movq	8(%rax), %r12
	movq	-80(%rbp), %rax
	movq	8(%rax), %r13
	movq	-80(%rbp), %rax
	movq	(%rax), %rbx
	movq	-72(%rbp), %rdi
	call	__ZNKSt6vectorIPK10CoordinateSaIS2_EE4sizeEv
	salq	$3, %rax
	leaq	(%rbx,%rax), %rdi
	leaq	-35(%rbp), %rcx
	movq	%r12, %rdx
	movq	%r13, %rsi
	call	__ZSt22__uninitialized_copy_aIPPK10CoordinateS3_S2_ET0_T_S5_S4_SaIT1_E
	leaq	-35(%rbp), %rdi
	call	__ZNSaIPK10CoordinateED1Ev
L614:
	.loc 22 163 0
	movq	-72(%rbp), %rax
	movq	(%rax), %rdx
	movq	-48(%rbp), %rax
	salq	$3, %rax
	addq	%rax, %rdx
	movq	-72(%rbp), %rax
	movq	%rdx, 8(%rax)
L610:
LBE80:
	.loc 22 165 0
	movq	-72(%rbp), %rax
LBE79:
	addq	$56, %rsp
	popq	%rbx
	popq	%r12
	popq	%r13
	leave
	ret
LFE2153:
	.align 1
.globl __ZNSt8_Rb_treeI6EValueSt4pairIKS0_PK4CityESt10_Select1stIS6_ESt4lessIS0_ESaIS6_EE9_M_insertEPSt18_Rb_tree_node_baseSE_RKS6_
	.weak_definition __ZNSt8_Rb_treeI6EValueSt4pairIKS0_PK4CityESt10_Select1stIS6_ESt4lessIS0_ESaIS6_EE9_M_insertEPSt18_Rb_tree_node_baseSE_RKS6_
__ZNSt8_Rb_treeI6EValueSt4pairIKS0_PK4CityESt10_Select1stIS6_ESt4lessIS0_ESaIS6_EE9_M_insertEPSt18_Rb_tree_node_baseSE_RKS6_:
LFB2329:
	.loc 10 834 0
	pushq	%rbp
LCFI684:
	movq	%rsp, %rbp
LCFI685:
	pushq	%rbx
LCFI686:
	subq	$88, %rsp
LCFI687:
	movq	%rdi, -56(%rbp)
	movq	%rsi, -64(%rbp)
	movq	%rdx, -72(%rbp)
	movq	%rcx, -80(%rbp)
LBB82:
	.loc 10 838 0
	cmpq	$0, -64(%rbp)
	jne	L619
	movq	-56(%rbp), %rdi
	call	__ZNSt8_Rb_treeI6EValueSt4pairIKS0_PK4CityESt10_Select1stIS6_ESt4lessIS0_ESaIS6_EE6_M_endEv
	cmpq	-72(%rbp), %rax
	je	L619
	movq	-72(%rbp), %rdi
	call	__ZNSt8_Rb_treeI6EValueSt4pairIKS0_PK4CityESt10_Select1stIS6_ESt4lessIS0_ESaIS6_EE6_S_keyEPKSt18_Rb_tree_node_base
	movq	%rax, %rbx
	leaq	-18(%rbp), %rdi
	call	__ZNSt10_Select1stISt4pairIK6EValuePK4CityEEC1Ev
	movq	-80(%rbp), %rsi
	leaq	-18(%rbp), %rdi
	call	__ZNKSt10_Select1stISt4pairIK6EValuePK4CityEEclERKS6_
	movq	%rax, %rsi
	movq	-56(%rbp), %rdi
	movq	%rbx, %rdx
	call	__ZNKSt4lessI6EValueEclERKS0_S3_
	testb	%al, %al
	je	L622
L619:
	movb	$1, -81(%rbp)
	jmp	L623
L622:
	movb	$0, -81(%rbp)
L623:
	movzbl	-81(%rbp), %eax
	movb	%al, -17(%rbp)
	.loc 10 840 0
	movq	-80(%rbp), %rsi
	movq	-56(%rbp), %rdi
	call	__ZNSt8_Rb_treeI6EValueSt4pairIKS0_PK4CityESt10_Select1stIS6_ESt4lessIS0_ESaIS6_EE14_M_create_nodeERKS6_
	movq	%rax, -32(%rbp)
	.loc 10 842 0
	movq	-56(%rbp), %rcx
	addq	$8, %rcx
	movq	-32(%rbp), %rsi
	movzbl	-17(%rbp), %edi
	movq	-72(%rbp), %rdx
	call	__ZSt29_Rb_tree_insert_and_rebalancebPSt18_Rb_tree_node_baseS0_RS_
	.loc 10 844 0
	movq	-56(%rbp), %rax
	movq	40(%rax), %rax
	leaq	1(%rax), %rdx
	movq	-56(%rbp), %rax
	movq	%rdx, 40(%rax)
	.loc 10 845 0
	movq	-32(%rbp), %rsi
	leaq	-48(%rbp), %rdi
	call	__ZNSt17_Rb_tree_iteratorISt4pairIK6EValuePK4CityEEC1EPSt13_Rb_tree_nodeIS6_E
	movq	-48(%rbp), %rax
LBE82:
	addq	$88, %rsp
	popq	%rbx
	leave
	ret
LFE2329:
	.align 1
.globl __ZNSt8_Rb_treeI6EValueSt4pairIKS0_PK4CityESt10_Select1stIS6_ESt4lessIS0_ESaIS6_EE15_M_insert_equalERKS6_
	.weak_definition __ZNSt8_Rb_treeI6EValueSt4pairIKS0_PK4CityESt10_Select1stIS6_ESt4lessIS0_ESaIS6_EE15_M_insert_equalERKS6_
__ZNSt8_Rb_treeI6EValueSt4pairIKS0_PK4CityESt10_Select1stIS6_ESt4lessIS0_ESaIS6_EE15_M_insert_equalERKS6_:
LFB2204:
	.loc 10 889 0
	pushq	%rbp
LCFI688:
	movq	%rsp, %rbp
LCFI689:
	pushq	%rbx
LCFI690:
	subq	$72, %rsp
LCFI691:
	movq	%rdi, -56(%rbp)
	movq	%rsi, -64(%rbp)
LBB83:
	.loc 10 891 0
	movq	-56(%rbp), %rdi
	call	__ZNSt8_Rb_treeI6EValueSt4pairIKS0_PK4CityESt10_Select1stIS6_ESt4lessIS0_ESaIS6_EE8_M_beginEv
	movq	%rax, -32(%rbp)
	.loc 10 892 0
	movq	-56(%rbp), %rdi
	call	__ZNSt8_Rb_treeI6EValueSt4pairIKS0_PK4CityESt10_Select1stIS6_ESt4lessIS0_ESaIS6_EE6_M_endEv
	movq	%rax, -40(%rbp)
	.loc 10 893 0
	jmp	L626
L627:
	.loc 10 895 0
	movq	-32(%rbp), %rax
	movq	%rax, -40(%rbp)
	.loc 10 896 0
	movq	-32(%rbp), %rdi
	call	__ZNSt8_Rb_treeI6EValueSt4pairIKS0_PK4CityESt10_Select1stIS6_ESt4lessIS0_ESaIS6_EE6_S_keyEPKSt13_Rb_tree_nodeIS6_E
	movq	%rax, %rbx
	leaq	-17(%rbp), %rdi
	call	__ZNSt10_Select1stISt4pairIK6EValuePK4CityEEC1Ev
	movq	-64(%rbp), %rsi
	leaq	-17(%rbp), %rdi
	call	__ZNKSt10_Select1stISt4pairIK6EValuePK4CityEEclERKS6_
	movq	%rax, %rsi
	movq	-56(%rbp), %rdi
	movq	%rbx, %rdx
	call	__ZNKSt4lessI6EValueEclERKS0_S3_
	testb	%al, %al
	je	L628
	movq	-32(%rbp), %rdi
	call	__ZNSt8_Rb_treeI6EValueSt4pairIKS0_PK4CityESt10_Select1stIS6_ESt4lessIS0_ESaIS6_EE7_S_leftEPSt18_Rb_tree_node_base
	movq	%rax, -72(%rbp)
	jmp	L630
L628:
	movq	-32(%rbp), %rdi
	call	__ZNSt8_Rb_treeI6EValueSt4pairIKS0_PK4CityESt10_Select1stIS6_ESt4lessIS0_ESaIS6_EE8_S_rightEPSt18_Rb_tree_node_base
	movq	%rax, -72(%rbp)
L630:
	movq	-72(%rbp), %rax
	movq	%rax, -32(%rbp)
L626:
	.loc 10 893 0
	cmpq	$0, -32(%rbp)
	jne	L627
	.loc 10 899 0
	movq	-40(%rbp), %rdx
	movq	-32(%rbp), %rsi
	movq	-64(%rbp), %rcx
	movq	-56(%rbp), %rdi
	call	__ZNSt8_Rb_treeI6EValueSt4pairIKS0_PK4CityESt10_Select1stIS6_ESt4lessIS0_ESaIS6_EE9_M_insertEPSt18_Rb_tree_node_baseSE_RKS6_
LBE83:
	addq	$72, %rsp
	popq	%rbx
	leave
	ret
LFE2204:
	.align 1
.globl __ZNSt8multimapI6EValuePK4CitySt4lessIS0_ESaISt4pairIKS0_S3_EEE6insertERKS8_
	.weak_definition __ZNSt8multimapI6EValuePK4CitySt4lessIS0_ESaISt4pairIKS0_S3_EEE6insertERKS8_
__ZNSt8multimapI6EValuePK4CitySt4lessIS0_ESaISt4pairIKS0_S3_EEE6insertERKS8_:
LFB2113:
	.loc 13 339 0
	pushq	%rbp
LCFI692:
	movq	%rsp, %rbp
LCFI693:
	subq	$16, %rsp
LCFI694:
	movq	%rdi, -8(%rbp)
	movq	%rsi, -16(%rbp)
	.loc 13 340 0
	movq	-8(%rbp), %rdi
	movq	-16(%rbp), %rsi
	call	__ZNSt8_Rb_treeI6EValueSt4pairIKS0_PK4CityESt10_Select1stIS6_ESt4lessIS0_ESaIS6_EE15_M_insert_equalERKS6_
	leave
	ret
LFE2113:
	.text
	.align 1,0x90
.globl __ZNK7DavidAI21calculateMoveDistanceE5StatePK10CoordinateRPP6EValuePSt6vectorIS3_SaIS3_EEb
__ZNK7DavidAI21calculateMoveDistanceE5StatePK10CoordinateRPP6EValuePSt6vectorIS3_SaIS3_EEb:
LFB2067:
	.loc 4 187 0
	pushq	%rbp
LCFI695:
	movq	%rsp, %rbp
LCFI696:
	pushq	%rbx
LCFI697:
	subq	$456, %rsp
LCFI698:
	movq	%rdi, -328(%rbp)
	movq	%rsi, -336(%rbp)
	movq	%rdx, -344(%rbp)
	movq	%rcx, -352(%rbp)
	movq	%r8, -360(%rbp)
	movl	%r9d, %eax
	movb	%al, -364(%rbp)
LBB84:
	.loc 4 188 0
	leaq	-320(%rbp), %rax
	movq	%rax, -456(%rbp)
	movq	-456(%rbp), %rdx
	movq	%rdx, -448(%rbp)
	movq	$5, -440(%rbp)
	jmp	L636
L637:
	movq	-448(%rbp), %rdi
LEHB7:
	call	__ZN6VectorC1Ev
LEHE7:
	addq	$16, -448(%rbp)
	decq	-440(%rbp)
L636:
	cmpq	$-1, -440(%rbp)
	jne	L637
LBB85:
	.loc 4 189 0
	movl	$0, -20(%rbp)
	jmp	L639
L694:
	movq	%rax, -464(%rbp)
L640:
	movq	-464(%rbp), %rax
	movq	%rax, -384(%rbp)
LBE85:
	.loc 4 188 0
	cmpq	$0, -456(%rbp)
	je	L641
	movl	$5, %eax
	subq	-440(%rbp), %rax
	salq	$4, %rax
	movq	-456(%rbp), %rdx
	addq	%rax, %rdx
	movq	%rdx, -400(%rbp)
L643:
	movq	-456(%rbp), %rax
	cmpq	%rax, -400(%rbp)
	je	L641
	subq	$16, -400(%rbp)
	movq	-400(%rbp), %rdx
	movq	(%rdx), %rax
	movq	(%rax), %rax
	movq	-400(%rbp), %rdi
	call	*%rax
	jmp	L643
L641:
	movq	-384(%rbp), %rax
	movq	%rax, -464(%rbp)
	movq	-464(%rbp), %rdi
LEHB8:
	call	__Unwind_Resume
LEHE8:
L645:
LBB86:
	.loc 4 190 0
	movl	-20(%rbp), %esi
	leaq	-96(%rbp), %rdi
LEHB9:
	call	__ZN6Vector18getDirectionVectorE9DIRECTION
	movl	-20(%rbp), %eax
	addl	%eax, %eax
	leaq	-320(%rbp), %rdx
	cltq
	salq	$4, %rax
	leaq	(%rdx,%rax), %rdi
	leaq	-96(%rbp), %rsi
	call	__ZN6VectoraSERKS_
	leaq	-96(%rbp), %rdi
	call	__ZN6VectorD1Ev
	.loc 4 192 0
	movl	-20(%rbp), %esi
	leaq	-128(%rbp), %rdi
	call	__ZN6Vector18getDirectionVectorE9DIRECTION
LEHE9:
	leaq	-112(%rbp), %rdi
LEHB10:
	call	__ZN6VectorC1Ev
LEHE10:
	leaq	-144(%rbp), %rdi
	leaq	-128(%rbp), %rdx
	leaq	-112(%rbp), %rsi
LEHB11:
	call	__ZNK6VectormiES_
	movl	-20(%rbp), %eax
	addl	%eax, %eax
	incl	%eax
	leaq	-320(%rbp), %rdx
	cltq
	salq	$4, %rax
	leaq	(%rdx,%rax), %rdi
	leaq	-144(%rbp), %rsi
	call	__ZN6VectoraSERKS_
	leaq	-144(%rbp), %rdi
	call	__ZN6VectorD1Ev
LEHE11:
	leaq	-112(%rbp), %rdi
LEHB12:
	call	__ZN6VectorD1Ev
LEHE12:
	jmp	L646
L691:
	movq	%rax, -464(%rbp)
L647:
	movq	-464(%rbp), %rbx
	leaq	-112(%rbp), %rdi
	call	__ZN6VectorD1Ev
	movq	%rbx, -464(%rbp)
	jmp	L649
L646:
	leaq	-128(%rbp), %rdi
LEHB13:
	call	__ZN6VectorD1Ev
LEHE13:
	jmp	L648
L692:
	movq	%rax, -464(%rbp)
L649:
	movq	-464(%rbp), %rbx
	leaq	-128(%rbp), %rdi
	call	__ZN6VectorD1Ev
	movq	%rbx, -464(%rbp)
	jmp	L682
L648:
	.loc 4 189 0
	incl	-20(%rbp)
L639:
	cmpl	$2, -20(%rbp)
	jle	L645
LBE86:
LBB87:
	.loc 4 195 0
	movl	$0, -24(%rbp)
	jmp	L651
L652:
	.loc 4 196 0
	movl	-24(%rbp), %edx
	movl	%edx, -428(%rbp)
	movl	-24(%rbp), %eax
	leaq	-320(%rbp), %rdx
	cltq
	salq	$4, %rax
	leaq	(%rdx,%rax), %rsi
	leaq	-160(%rbp), %rdi
LEHB14:
	call	__ZN6VectorC1ERKS_
LEHE14:
	movq	-344(%rbp), %rsi
	leaq	-176(%rbp), %rdi
	leaq	-160(%rbp), %rdx
LEHB15:
	call	__ZNK6VectorplES_
LEHE15:
	movq	-328(%rbp), %rax
	movq	40(%rax), %rdi
	leaq	-176(%rbp), %rsi
LEHB16:
	call	__ZNK5Board13getCoordinateE6Vector
LEHE16:
	movslq	-428(%rbp),%rdx
	movq	%rax, -224(%rbp,%rdx,8)
	leaq	-176(%rbp), %rdi
LEHB17:
	call	__ZN6VectorD1Ev
LEHE17:
	jmp	L653
L689:
	movq	%rax, -464(%rbp)
L654:
	movq	-464(%rbp), %rbx
	leaq	-176(%rbp), %rdi
	call	__ZN6VectorD1Ev
	movq	%rbx, -464(%rbp)
	jmp	L656
L653:
	leaq	-160(%rbp), %rdi
LEHB18:
	call	__ZN6VectorD1Ev
LEHE18:
	jmp	L655
L690:
	movq	%rax, -464(%rbp)
L656:
	movq	-464(%rbp), %rbx
	leaq	-160(%rbp), %rdi
	call	__ZN6VectorD1Ev
	movq	%rbx, -464(%rbp)
	jmp	L682
L655:
	.loc 4 195 0
	incl	-24(%rbp)
L651:
	cmpl	$5, -24(%rbp)
	jle	L652
LBE87:
	.loc 4 197 0
	movq	$0, -64(%rbp)
	.loc 4 198 0
	movq	-352(%rbp), %rax
	movq	(%rax), %rdx
	movq	-344(%rbp), %rax
	movzwl	8(%rax), %eax
	movswq	%ax,%rax
	salq	$3, %rax
	leaq	(%rdx,%rax), %rax
	movq	(%rax), %rdx
	movq	-344(%rbp), %rax
	movzwl	10(%rax), %eax
	movswq	%ax,%rax
	salq	$2, %rax
	leaq	(%rdx,%rax), %rax
	movl	(%rax), %eax
	movl	%eax, -32(%rbp)
LBB88:
	.loc 4 199 0
	movl	$0, -36(%rbp)
	jmp	L658
L659:
	.loc 4 200 0
	movl	-36(%rbp), %eax
	cltq
	movq	-224(%rbp,%rax,8), %rax
	testq	%rax, %rax
	je	L660
LBB89:
	.loc 4 201 0
	movq	-352(%rbp), %rax
	movq	(%rax), %rdx
	movl	-36(%rbp), %eax
	cltq
	movq	-224(%rbp,%rax,8), %rax
	movzwl	8(%rax), %eax
	movswq	%ax,%rax
	salq	$3, %rax
	leaq	(%rdx,%rax), %rax
	movq	(%rax), %rdx
	movl	-36(%rbp), %eax
	cltq
	movq	-224(%rbp,%rax,8), %rax
	movzwl	10(%rax), %eax
	movswq	%ax,%rax
	salq	$2, %rax
	leaq	(%rdx,%rax), %rax
	movl	(%rax), %eax
	movl	%eax, -48(%rbp)
	.loc 4 203 0
	movl	-36(%rbp), %eax
	cltq
	movq	-224(%rbp,%rax,8), %rsi
	movq	-328(%rbp), %rax
	movq	40(%rax), %rdi
	movq	-344(%rbp), %rdx
LEHB19:
	call	__ZNK5Board13getConnectionEPK10CoordinateS2_
	movq	%rax, -72(%rbp)
	.loc 4 204 0
	movq	-336(%rbp), %rax
	movq	32(%rax), %rdx
	movq	-72(%rbp), %rax
	movq	8(%rax), %rax
	movzwl	8(%rax), %eax
	movswq	%ax,%rax
	salq	$3, %rax
	leaq	(%rdx,%rax), %rax
	movq	(%rax), %rdx
	movq	-72(%rbp), %rax
	movq	8(%rax), %rax
	movzwl	10(%rax), %eax
	movswq	%ax,%rax
	salq	$3, %rax
	leaq	(%rdx,%rax), %rax
	movq	(%rax), %rdx
	movq	-72(%rbp), %rax
	movl	24(%rax), %eax
	cltq
	leaq	(%rdx,%rax), %rax
	movzbl	(%rax), %eax
	xorl	$1, %eax
	testb	%al, %al
	je	L662
	.loc 4 205 0
	movq	-72(%rbp), %rax
	movzbl	28(%rax), %eax
	testb	%al, %al
	je	L664
	.loc 4 206 0
	cmpb	$0, -364(%rbp)
	je	L666
	.loc 4 207 0
	leaq	-48(%rbp), %rdi
	call	__ZN6EValue10addBarrierEv
	jmp	L670
L666:
	.loc 4 209 0
	leaq	-48(%rbp), %rdi
	call	__ZN6EValue15addCheapBarrierEv
	jmp	L670
L664:
	.loc 4 211 0
	leaq	-48(%rbp), %rdi
	call	__ZN6EValue13addConnectionEv
	jmp	L670
L662:
	.loc 4 213 0
	leaq	-48(%rbp), %rdi
	call	__ZN6EValue7addRailEv
L670:
	.loc 4 214 0
	movl	-32(%rbp), %esi
	leaq	-48(%rbp), %rdi
	call	__ZNK6EValueleES_
	testb	%al, %al
	je	L660
	.loc 4 215 0
	movl	-48(%rbp), %eax
	movl	%eax, -32(%rbp)
	.loc 4 216 0
	movl	-36(%rbp), %eax
	cltq
	movq	-224(%rbp,%rax,8), %rax
	movq	%rax, -64(%rbp)
L660:
LBE89:
	.loc 4 199 0
	incl	-36(%rbp)
L658:
	cmpl	$5, -36(%rbp)
	jle	L659
LBE88:
	.loc 4 219 0
	movq	-352(%rbp), %rax
	movq	(%rax), %rdx
	movq	-344(%rbp), %rax
	movzwl	8(%rax), %eax
	movswq	%ax,%rax
	salq	$3, %rax
	leaq	(%rdx,%rax), %rax
	movq	(%rax), %rdx
	movq	-344(%rbp), %rax
	movzwl	10(%rax), %eax
	movswq	%ax,%rax
	salq	$2, %rax
	leaq	(%rdx,%rax), %rdi
	movl	-32(%rbp), %esi
	call	__ZNK6EValuegtES_
	testb	%al, %al
	je	L673
	.loc 4 220 0
	cmpq	$0, -360(%rbp)
	je	L675
LBB90:
	.loc 4 221 0
	movl	$0, -52(%rbp)
	jmp	L677
L678:
	.loc 4 222 0
	movl	-52(%rbp), %eax
	cltq
	movq	-224(%rbp,%rax,8), %rax
	testq	%rax, %rax
	je	L679
	.loc 4 223 0
	movl	-52(%rbp), %eax
	leaq	-224(%rbp), %rdx
	cltq
	salq	$3, %rax
	leaq	(%rdx,%rax), %rsi
	movq	-360(%rbp), %rdi
	call	__ZNSt6vectorIPK10CoordinateSaIS2_EE9push_backERKS2_
LEHE19:
L679:
	.loc 4 221 0
	incl	-52(%rbp)
L677:
	cmpl	$5, -52(%rbp)
	jle	L678
L675:
LBE90:
	.loc 4 224 0
	movq	-352(%rbp), %rax
	movq	(%rax), %rdx
	movq	-344(%rbp), %rax
	movzwl	8(%rax), %eax
	movswq	%ax,%rax
	salq	$3, %rax
	leaq	(%rdx,%rax), %rax
	movq	(%rax), %rdx
	movq	-344(%rbp), %rax
	movzwl	10(%rax), %eax
	movswq	%ax,%rax
	salq	$2, %rax
	addq	%rax, %rdx
	movl	-32(%rbp), %eax
	movl	%eax, (%rdx)
L673:
	.loc 4 226 0
	movq	-64(%rbp), %rax
	movq	%rax, -424(%rbp)
	leaq	-320(%rbp), %rax
	addq	$96, %rax
	movq	%rax, -392(%rbp)
	jmp	L681
L693:
	movq	%rax, -464(%rbp)
L682:
	movq	-464(%rbp), %rdx
	movq	%rdx, -376(%rbp)
	leaq	-320(%rbp), %rax
	addq	$96, %rax
	movq	%rax, -392(%rbp)
L683:
	leaq	-320(%rbp), %rax
	cmpq	%rax, -392(%rbp)
	je	L684
	subq	$16, -392(%rbp)
	movq	-392(%rbp), %rax
	movq	(%rax), %rax
	movq	%rax, -416(%rbp)
	movq	-416(%rbp), %rdx
	movq	(%rdx), %rdx
	movq	%rdx, -408(%rbp)
	movq	-392(%rbp), %rdi
	call	*-408(%rbp)
	jmp	L683
L684:
	movq	-376(%rbp), %rax
	movq	%rax, -464(%rbp)
	movq	-464(%rbp), %rdi
LEHB20:
	call	__Unwind_Resume
L681:
	leaq	-320(%rbp), %rax
	cmpq	%rax, -392(%rbp)
	je	L686
	subq	$16, -392(%rbp)
	movq	-392(%rbp), %rdx
	movq	(%rdx), %rdx
	movq	%rdx, -416(%rbp)
	movq	-416(%rbp), %rax
	movq	(%rax), %rax
	movq	%rax, -408(%rbp)
	movq	-392(%rbp), %rdi
	call	*-408(%rbp)
LEHE20:
	jmp	L681
L686:
	movq	-424(%rbp), %rax
LBE84:
	.loc 4 227 0
	addq	$456, %rsp
	popq	%rbx
	leave
	ret
LFE2067:
	.section __TEXT,__gcc_except_tab
GCC_except_table3:
LLSDA2067:
	.byte	0xff
	.byte	0xff
	.byte	0x3
	.byte	0xb6,0x1
	.set L$set$17,LEHB7-LFB2067
	.long L$set$17
	.set L$set$18,LEHE7-LEHB7
	.long L$set$18
	.set L$set$19,L694-LFB2067
	.long L$set$19
	.byte	0x0
	.set L$set$20,LEHB8-LFB2067
	.long L$set$20
	.set L$set$21,LEHE8-LEHB8
	.long L$set$21
	.long	0x0
	.byte	0x0
	.set L$set$22,LEHB9-LFB2067
	.long L$set$22
	.set L$set$23,LEHE9-LEHB9
	.long L$set$23
	.set L$set$24,L693-LFB2067
	.long L$set$24
	.byte	0x0
	.set L$set$25,LEHB10-LFB2067
	.long L$set$25
	.set L$set$26,LEHE10-LEHB10
	.long L$set$26
	.set L$set$27,L692-LFB2067
	.long L$set$27
	.byte	0x0
	.set L$set$28,LEHB11-LFB2067
	.long L$set$28
	.set L$set$29,LEHE11-LEHB11
	.long L$set$29
	.set L$set$30,L691-LFB2067
	.long L$set$30
	.byte	0x0
	.set L$set$31,LEHB12-LFB2067
	.long L$set$31
	.set L$set$32,LEHE12-LEHB12
	.long L$set$32
	.set L$set$33,L692-LFB2067
	.long L$set$33
	.byte	0x0
	.set L$set$34,LEHB13-LFB2067
	.long L$set$34
	.set L$set$35,LEHE13-LEHB13
	.long L$set$35
	.set L$set$36,L693-LFB2067
	.long L$set$36
	.byte	0x0
	.set L$set$37,LEHB14-LFB2067
	.long L$set$37
	.set L$set$38,LEHE14-LEHB14
	.long L$set$38
	.set L$set$39,L693-LFB2067
	.long L$set$39
	.byte	0x0
	.set L$set$40,LEHB15-LFB2067
	.long L$set$40
	.set L$set$41,LEHE15-LEHB15
	.long L$set$41
	.set L$set$42,L690-LFB2067
	.long L$set$42
	.byte	0x0
	.set L$set$43,LEHB16-LFB2067
	.long L$set$43
	.set L$set$44,LEHE16-LEHB16
	.long L$set$44
	.set L$set$45,L689-LFB2067
	.long L$set$45
	.byte	0x0
	.set L$set$46,LEHB17-LFB2067
	.long L$set$46
	.set L$set$47,LEHE17-LEHB17
	.long L$set$47
	.set L$set$48,L690-LFB2067
	.long L$set$48
	.byte	0x0
	.set L$set$49,LEHB18-LFB2067
	.long L$set$49
	.set L$set$50,LEHE18-LEHB18
	.long L$set$50
	.set L$set$51,L693-LFB2067
	.long L$set$51
	.byte	0x0
	.set L$set$52,LEHB19-LFB2067
	.long L$set$52
	.set L$set$53,LEHE19-LEHB19
	.long L$set$53
	.set L$set$54,L693-LFB2067
	.long L$set$54
	.byte	0x0
	.set L$set$55,LEHB20-LFB2067
	.long L$set$55
	.set L$set$56,LEHE20-LEHB20
	.long L$set$56
	.long	0x0
	.byte	0x0
	.text
	.cstring
	.align 3
LC3:
	.ascii "retValue.valid(currentState, playerColor)\0"
	.align 3
LC4:
	.ascii "../localAIs/local/DavidAI_local.cpp\0"
	.text
	.align 1,0x90
.globl __ZNK7DavidAI21getMoveFromEvaluationE5StatePK10CoordinateRPP6EValueb
__ZNK7DavidAI21getMoveFromEvaluationE5StatePK10CoordinateRPP6EValueb:
LFB2068:
	.loc 4 230 0
	pushq	%rbp
LCFI699:
	movq	%rsp, %rbp
LCFI700:
	pushq	%rbx
LCFI701:
	subq	$360, %rsp
LCFI702:
	movq	%rdi, -352(%rbp)
	movq	%rsi, -312(%rbp)
	movq	%rdx, -320(%rbp)
	movq	%rcx, -328(%rbp)
	movq	%r8, -336(%rbp)
	movl	%r9d, %eax
	movb	%al, -340(%rbp)
LBB91:
	.loc 4 231 0
	movq	-328(%rbp), %rax
	movq	%rax, -40(%rbp)
	movq	$0, -48(%rbp)
	.loc 4 232 0
	movq	$0, -56(%rbp)
	movq	$0, -64(%rbp)
	.loc 4 233 0
	jmp	L696
L697:
	.loc 4 234 0
	movq	-40(%rbp), %rax
	movq	%rax, -48(%rbp)
	.loc 4 236 0
	movzbl	-340(%rbp), %ebx
	movq	-320(%rbp), %rsi
	leaq	-208(%rbp), %rdi
LEHB21:
	call	__ZN5StateC1ERKS_
LEHE21:
	movq	-336(%rbp), %rcx
	movq	-48(%rbp), %rdx
	leaq	-208(%rbp), %rsi
	movq	-312(%rbp), %rdi
	movl	%ebx, %r9d
	movl	$0, %r8d
LEHB22:
	call	__ZNK7DavidAI21calculateMoveDistanceE5StatePK10CoordinateRPP6EValuePSt6vectorIS3_SaIS3_EEb
LEHE22:
	movq	%rax, -40(%rbp)
	leaq	-208(%rbp), %rdi
LEHB23:
	call	__ZN5StateD1Ev
LEHE23:
	.loc 4 237 0
	movq	-336(%rbp), %rax
	movq	(%rax), %rdx
	movq	-48(%rbp), %rax
	movzwl	8(%rax), %eax
	movswq	%ax,%rax
	salq	$3, %rax
	leaq	(%rdx,%rax), %rax
	movq	(%rax), %rdx
	movq	-48(%rbp), %rax
	movzwl	10(%rax), %eax
	movswq	%ax,%rax
	salq	$2, %rax
	leaq	(%rdx,%rax), %rdi
	movl	$2, %esi
	call	__ZNK6EValueleEj
	testb	%al, %al
	jne	L698
	jmp	L696
L712:
	movq	%rax, -360(%rbp)
L699:
	movq	-360(%rbp), %rbx
	.loc 4 236 0
	leaq	-208(%rbp), %rdi
	call	__ZN5StateD1Ev
	movq	%rbx, -360(%rbp)
	movq	-360(%rbp), %rdi
LEHB24:
	call	__Unwind_Resume
L698:
	.loc 4 238 0
	movq	-336(%rbp), %rax
	movq	(%rax), %rdx
	movq	-40(%rbp), %rax
	movzwl	8(%rax), %eax
	movswq	%ax,%rax
	salq	$3, %rax
	leaq	(%rdx,%rax), %rax
	movq	(%rax), %rdx
	movq	-40(%rbp), %rax
	movzwl	10(%rax), %eax
	movswq	%ax,%rax
	salq	$2, %rax
	leaq	(%rdx,%rax), %rsi
	movq	-336(%rbp), %rax
	movq	(%rax), %rdx
	movq	-48(%rbp), %rax
	movzwl	8(%rax), %eax
	movswq	%ax,%rax
	salq	$3, %rax
	leaq	(%rdx,%rax), %rax
	movq	(%rax), %rdx
	movq	-48(%rbp), %rax
	movzwl	10(%rax), %eax
	movswq	%ax,%rax
	salq	$2, %rax
	leaq	(%rdx,%rax), %rdi
	call	__ZNK6EValuemiERKS_
	movl	%eax, -32(%rbp)
	leaq	-32(%rbp), %rdi
	movl	$1, %esi
	call	__ZNK6EValuegeEj
	testb	%al, %al
	je	L696
	.loc 4 240 0
	movq	-336(%rbp), %rax
	movq	(%rax), %rdx
	movq	-40(%rbp), %rax
	movzwl	8(%rax), %eax
	movswq	%ax,%rax
	salq	$3, %rax
	leaq	(%rdx,%rax), %rax
	movq	(%rax), %rdx
	movq	-40(%rbp), %rax
	movzwl	10(%rax), %eax
	movswq	%ax,%rax
	salq	$2, %rax
	leaq	(%rdx,%rax), %rdi
	movl	$0, %esi
	call	__ZNK6EValueeqEj
	testb	%al, %al
	je	L701
	.loc 4 241 0
	movq	-312(%rbp), %rax
	movq	40(%rax), %rdi
	movq	-48(%rbp), %rdx
	movq	-40(%rbp), %rsi
	call	__ZNK5Board13getConnectionEPK10CoordinateS2_
	movq	%rax, -56(%rbp)
	jmp	L696
L701:
	.loc 4 243 0
	movq	-312(%rbp), %rax
	movq	40(%rax), %rdi
	movq	-48(%rbp), %rdx
	movq	-40(%rbp), %rsi
	call	__ZNK5Board13getConnectionEPK10CoordinateS2_
	movq	%rax, -64(%rbp)
L696:
	.loc 4 233 0
	movq	-336(%rbp), %rax
	movq	(%rax), %rdx
	movq	-40(%rbp), %rax
	movzwl	8(%rax), %eax
	movswq	%ax,%rax
	salq	$3, %rax
	leaq	(%rdx,%rax), %rax
	movq	(%rax), %rdx
	movq	-40(%rbp), %rax
	movzwl	10(%rax), %eax
	movswq	%ax,%rax
	salq	$2, %rax
	leaq	(%rdx,%rax), %rdi
	movl	$0, %esi
	call	__ZNK6EValuegtEj
	testb	%al, %al
	jne	L697
	.loc 4 247 0
	movq	-312(%rbp), %rax
	movl	16(%rax), %esi
	movq	-64(%rbp), %rcx
	movq	-56(%rbp), %rdx
	leaq	-112(%rbp), %rdi
	call	__ZN4MoveC1E11PLAYERCOLORPK10ConnectionS3_
LEHE24:
	.loc 4 248 0
	movq	-312(%rbp), %rax
	movl	16(%rax), %eax
	movl	%eax, -344(%rbp)
	movq	-320(%rbp), %rsi
	leaq	-304(%rbp), %rdi
LEHB25:
	call	__ZN5StateC1ERKS_
LEHE25:
	leaq	-304(%rbp), %rsi
	leaq	-112(%rbp), %rdi
	movl	-344(%rbp), %edx
LEHB26:
	call	__ZN4Move5validE5State11PLAYERCOLOR
	xorl	$1, %eax
	movzbl	%al, %eax
	testq	%rax, %rax
	je	L704
	leaq	LC3(%rip), %rcx
	movl	$248, %edx
	leaq	LC4(%rip), %rsi
	leaq	__ZZNK7DavidAI21getMoveFromEvaluationE5StatePK10CoordinateRPP6EValuebE8__func__(%rip), %rdi
	call	___assert_rtn
LEHE26:
L704:
	leaq	-304(%rbp), %rdi
LEHB27:
	call	__ZN5StateD1Ev
LEHE27:
	jmp	L706
L710:
	movq	%rax, -360(%rbp)
L707:
	movq	-360(%rbp), %rbx
	leaq	-304(%rbp), %rdi
	call	__ZN5StateD1Ev
	movq	%rbx, -360(%rbp)
	jmp	L708
L706:
	.loc 4 249 0
	movq	-352(%rbp), %rdi
	leaq	-112(%rbp), %rsi
LEHB28:
	call	__ZN4MoveC1ERKS_
LEHE28:
	leaq	-112(%rbp), %rdi
LEHB29:
	call	__ZN4MoveD1Ev
LEHE29:
	jmp	L695
L711:
	movq	%rax, -360(%rbp)
L708:
	movq	-360(%rbp), %rbx
	leaq	-112(%rbp), %rdi
	call	__ZN4MoveD1Ev
	movq	%rbx, -360(%rbp)
	movq	-360(%rbp), %rdi
LEHB30:
	call	__Unwind_Resume
LEHE30:
L695:
LBE91:
	.loc 4 250 0
	movq	-352(%rbp), %rax
	addq	$360, %rsp
	popq	%rbx
	leave
	ret
LFE2068:
	.section __TEXT,__gcc_except_tab
GCC_except_table4:
LLSDA2068:
	.byte	0xff
	.byte	0xff
	.byte	0x3
	.byte	0x82,0x1
	.set L$set$57,LEHB21-LFB2068
	.long L$set$57
	.set L$set$58,LEHE21-LEHB21
	.long L$set$58
	.long	0x0
	.byte	0x0
	.set L$set$59,LEHB22-LFB2068
	.long L$set$59
	.set L$set$60,LEHE22-LEHB22
	.long L$set$60
	.set L$set$61,L712-LFB2068
	.long L$set$61
	.byte	0x0
	.set L$set$62,LEHB23-LFB2068
	.long L$set$62
	.set L$set$63,LEHE23-LEHB23
	.long L$set$63
	.long	0x0
	.byte	0x0
	.set L$set$64,LEHB24-LFB2068
	.long L$set$64
	.set L$set$65,LEHE24-LEHB24
	.long L$set$65
	.long	0x0
	.byte	0x0
	.set L$set$66,LEHB25-LFB2068
	.long L$set$66
	.set L$set$67,LEHE25-LEHB25
	.long L$set$67
	.set L$set$68,L711-LFB2068
	.long L$set$68
	.byte	0x0
	.set L$set$69,LEHB26-LFB2068
	.long L$set$69
	.set L$set$70,LEHE26-LEHB26
	.long L$set$70
	.set L$set$71,L710-LFB2068
	.long L$set$71
	.byte	0x0
	.set L$set$72,LEHB27-LFB2068
	.long L$set$72
	.set L$set$73,LEHE27-LEHB27
	.long L$set$73
	.set L$set$74,L711-LFB2068
	.long L$set$74
	.byte	0x0
	.set L$set$75,LEHB28-LFB2068
	.long L$set$75
	.set L$set$76,LEHE28-LEHB28
	.long L$set$76
	.set L$set$77,L711-LFB2068
	.long L$set$77
	.byte	0x0
	.set L$set$78,LEHB29-LFB2068
	.long L$set$78
	.set L$set$79,LEHE29-LEHB29
	.long L$set$79
	.long	0x0
	.byte	0x0
	.set L$set$80,LEHB30-LFB2068
	.long L$set$80
	.set L$set$81,LEHE30-LEHB30
	.long L$set$81
	.long	0x0
	.byte	0x0
	.text
	.align 1,0x90
.globl __ZNK7DavidAI25evaluateBoardMoveDistanceE5StatePK10Coordinateb
__ZNK7DavidAI25evaluateBoardMoveDistanceE5StatePK10Coordinateb:
LFB2065:
	.loc 4 146 0
	pushq	%rbp
LCFI703:
	movq	%rsp, %rbp
LCFI704:
	pushq	%rbx
LCFI705:
	subq	$664, %rsp
LCFI706:
	movq	%rdi, -504(%rbp)
	movq	%rsi, -512(%rbp)
	movq	%rdx, -520(%rbp)
	movb	%cl, -524(%rbp)
LBB92:
	.loc 4 147 0
	movl	$160, %edi
LEHB31:
	call	__Znam
	movq	%rax, -72(%rbp)
LBB93:
	.loc 4 148 0
	movl	$0, -24(%rbp)
	jmp	L714
L715:
	.loc 4 149 0
	movl	-24(%rbp), %eax
	cltq
	salq	$3, %rax
	movq	%rax, %rdx
	movq	-72(%rbp), %rax
	addq	%rax, %rdx
	movq	%rdx, -656(%rbp)
	movl	$52, %edi
	call	__Znam
LEHE31:
	movq	%rax, -648(%rbp)
	movq	-648(%rbp), %rax
	movq	%rax, -640(%rbp)
	movq	$12, -632(%rbp)
	jmp	L716
L717:
	movq	-640(%rbp), %rdi
	call	__ZN6EValueC1Ev
	addq	$4, -640(%rbp)
	decq	-632(%rbp)
L716:
	cmpq	$-1, -632(%rbp)
	jne	L717
	movq	-648(%rbp), %rax
	movq	-656(%rbp), %rdx
	movq	%rax, (%rdx)
	.loc 4 148 0
	incl	-24(%rbp)
L714:
	cmpl	$19, -24(%rbp)
	jle	L715
LBE93:
LBB94:
	.loc 4 151 0
	movl	$0, -28(%rbp)
	jmp	L720
L721:
LBB95:
	.loc 4 152 0
	movl	$0, -32(%rbp)
	jmp	L722
L723:
	.loc 4 153 0
	movl	-28(%rbp), %eax
	cltq
	salq	$3, %rax
	movq	%rax, %rdx
	movq	-72(%rbp), %rax
	leaq	(%rdx,%rax), %rax
	movq	(%rax), %rdx
	movl	-32(%rbp), %eax
	cltq
	salq	$2, %rax
	leaq	(%rdx,%rax), %rbx
	leaq	-48(%rbp), %rdi
	call	__ZN6EValueC1Ev
	movl	-48(%rbp), %eax
	movl	%eax, (%rbx)
	.loc 4 152 0
	incl	-32(%rbp)
L722:
	cmpl	$12, -32(%rbp)
	jle	L723
LBE95:
	.loc 4 151 0
	incl	-28(%rbp)
L720:
	cmpl	$19, -28(%rbp)
	jle	L721
LBE94:
	.loc 4 156 0
	movq	-520(%rbp), %rax
	movzwl	8(%rax), %eax
	movswq	%ax,%rax
	salq	$3, %rax
	movq	%rax, %rdx
	movq	-72(%rbp), %rax
	leaq	(%rdx,%rax), %rax
	movq	(%rax), %rdx
	movq	-520(%rbp), %rax
	movzwl	10(%rax), %eax
	movswq	%ax,%rax
	salq	$2, %rax
	leaq	(%rdx,%rax), %rdi
	movl	$0, %esi
	call	__ZN6EValueaSEj
	.loc 4 158 0
	leaq	-17(%rbp), %rdi
	call	__ZNSaIPK10CoordinateEC1Ev
	leaq	-17(%rbp), %rsi
	leaq	-224(%rbp), %rdi
	call	__ZNSt6vectorIPK10CoordinateSaIS2_EEC1ERKS3_
	leaq	-17(%rbp), %rdi
	call	__ZNSaIPK10CoordinateED1Ev
	.loc 4 159 0
	leaq	-18(%rbp), %rdi
	call	__ZNSaIPK10CoordinateEC1Ev
	leaq	-18(%rbp), %rsi
	leaq	-256(%rbp), %rdi
	call	__ZNSt6vectorIPK10CoordinateSaIS2_EEC1ERKS3_
	leaq	-18(%rbp), %rdi
	call	__ZNSaIPK10CoordinateED1Ev
	.loc 4 160 0
	leaq	-496(%rbp), %rax
	movq	%rax, -624(%rbp)
	movq	-624(%rbp), %rdx
	movq	%rdx, -616(%rbp)
	movq	$5, -608(%rbp)
	jmp	L726
L727:
	movq	-616(%rbp), %rdi
LEHB32:
	call	__ZN6VectorC1Ev
LEHE32:
	addq	$16, -616(%rbp)
	decq	-608(%rbp)
L726:
	cmpq	$-1, -608(%rbp)
	jne	L727
LBB96:
	.loc 4 161 0
	movl	$0, -52(%rbp)
	jmp	L729
L777:
	movq	%rax, -672(%rbp)
L730:
	movq	-672(%rbp), %rax
	movq	%rax, -544(%rbp)
LBE96:
	.loc 4 160 0
	cmpq	$0, -624(%rbp)
	je	L731
	movl	$5, %eax
	subq	-608(%rbp), %rax
	salq	$4, %rax
	movq	-624(%rbp), %rdx
	addq	%rax, %rdx
	movq	%rdx, -560(%rbp)
L733:
	movq	-624(%rbp), %rax
	cmpq	%rax, -560(%rbp)
	je	L731
	subq	$16, -560(%rbp)
	movq	-560(%rbp), %rdx
	movq	(%rdx), %rax
	movq	(%rax), %rax
	movq	-560(%rbp), %rdi
	call	*%rax
	jmp	L733
L731:
	movq	-544(%rbp), %rax
	movq	%rax, -672(%rbp)
	jmp	L768
L735:
LBB97:
	.loc 4 162 0
	movl	-52(%rbp), %esi
	leaq	-112(%rbp), %rdi
LEHB33:
	call	__ZN6Vector18getDirectionVectorE9DIRECTION
	movl	-52(%rbp), %eax
	addl	%eax, %eax
	leaq	-496(%rbp), %rdx
	cltq
	salq	$4, %rax
	leaq	(%rdx,%rax), %rdi
	leaq	-112(%rbp), %rsi
	call	__ZN6VectoraSERKS_
	leaq	-112(%rbp), %rdi
	call	__ZN6VectorD1Ev
	.loc 4 164 0
	movl	-52(%rbp), %esi
	leaq	-144(%rbp), %rdi
	call	__ZN6Vector18getDirectionVectorE9DIRECTION
LEHE33:
	leaq	-128(%rbp), %rdi
LEHB34:
	call	__ZN6VectorC1Ev
LEHE34:
	leaq	-160(%rbp), %rdi
	leaq	-144(%rbp), %rdx
	leaq	-128(%rbp), %rsi
LEHB35:
	call	__ZNK6VectormiES_
	movl	-52(%rbp), %eax
	addl	%eax, %eax
	incl	%eax
	leaq	-496(%rbp), %rdx
	cltq
	salq	$4, %rax
	leaq	(%rdx,%rax), %rdi
	leaq	-160(%rbp), %rsi
	call	__ZN6VectoraSERKS_
	leaq	-160(%rbp), %rdi
	call	__ZN6VectorD1Ev
LEHE35:
	leaq	-128(%rbp), %rdi
LEHB36:
	call	__ZN6VectorD1Ev
LEHE36:
	jmp	L736
L774:
	movq	%rax, -672(%rbp)
L737:
	movq	-672(%rbp), %rbx
	leaq	-128(%rbp), %rdi
	call	__ZN6VectorD1Ev
	movq	%rbx, -672(%rbp)
	jmp	L739
L736:
	leaq	-144(%rbp), %rdi
LEHB37:
	call	__ZN6VectorD1Ev
LEHE37:
	jmp	L738
L775:
	movq	%rax, -672(%rbp)
L739:
	movq	-672(%rbp), %rbx
	leaq	-144(%rbp), %rdi
	call	__ZN6VectorD1Ev
	movq	%rbx, -672(%rbp)
	jmp	L762
L738:
	.loc 4 161 0
	incl	-52(%rbp)
L729:
	cmpl	$2, -52(%rbp)
	jle	L735
LBE97:
LBB98:
	.loc 4 167 0
	movl	$0, -56(%rbp)
	jmp	L741
L742:
	.loc 4 168 0
	movl	-56(%rbp), %edx
	movl	%edx, -600(%rbp)
	movl	-56(%rbp), %eax
	leaq	-496(%rbp), %rdx
	cltq
	salq	$4, %rax
	leaq	(%rdx,%rax), %rsi
	leaq	-176(%rbp), %rdi
LEHB38:
	call	__ZN6VectorC1ERKS_
LEHE38:
	movq	-520(%rbp), %rsi
	leaq	-192(%rbp), %rdi
	leaq	-176(%rbp), %rdx
LEHB39:
	call	__ZNK6VectorplES_
LEHE39:
	movq	-504(%rbp), %rax
	movq	40(%rax), %rdi
	leaq	-192(%rbp), %rsi
LEHB40:
	call	__ZNK5Board13getCoordinateE6Vector
LEHE40:
	movslq	-600(%rbp),%rdx
	movq	%rax, -304(%rbp,%rdx,8)
	leaq	-192(%rbp), %rdi
LEHB41:
	call	__ZN6VectorD1Ev
LEHE41:
	jmp	L743
L772:
	movq	%rax, -672(%rbp)
L744:
	movq	-672(%rbp), %rbx
	leaq	-192(%rbp), %rdi
	call	__ZN6VectorD1Ev
	movq	%rbx, -672(%rbp)
	jmp	L746
L743:
	leaq	-176(%rbp), %rdi
LEHB42:
	call	__ZN6VectorD1Ev
LEHE42:
	jmp	L745
L773:
	movq	%rax, -672(%rbp)
L746:
	movq	-672(%rbp), %rbx
	leaq	-176(%rbp), %rdi
	call	__ZN6VectorD1Ev
	movq	%rbx, -672(%rbp)
	jmp	L762
L745:
	.loc 4 167 0
	incl	-56(%rbp)
L741:
	cmpl	$5, -56(%rbp)
	jle	L742
LBE98:
LBB99:
	.loc 4 169 0
	movl	$0, -60(%rbp)
	jmp	L748
L749:
	.loc 4 170 0
	movl	-60(%rbp), %eax
	cltq
	movq	-304(%rbp,%rax,8), %rax
	testq	%rax, %rax
	je	L750
	.loc 4 171 0
	movl	-60(%rbp), %eax
	leaq	-304(%rbp), %rdx
	cltq
	salq	$3, %rax
	leaq	(%rdx,%rax), %rsi
	leaq	-224(%rbp), %rdi
LEHB43:
	call	__ZNSt6vectorIPK10CoordinateSaIS2_EE9push_backERKS2_
L750:
	.loc 4 169 0
	incl	-60(%rbp)
L748:
	cmpl	$5, -60(%rbp)
	jle	L749
LBE99:
	.loc 4 173 0
	leaq	-80(%rbp), %rdi
	call	__ZN9__gnu_cxx17__normal_iteratorIPPK10CoordinateSt6vectorIS3_SaIS3_EEEC1Ev
	.loc 4 174 0
	jmp	L753
L754:
	.loc 4 175 0
	leaq	-224(%rbp), %rdi
	call	__ZNSt6vectorIPK10CoordinateSaIS2_EE5beginEv
	movq	%rax, -80(%rbp)
	jmp	L755
L756:
	.loc 4 177 0
	movzbl	-524(%rbp), %eax
	movl	%eax, -596(%rbp)
	leaq	-80(%rbp), %rdi
	call	__ZNK9__gnu_cxx17__normal_iteratorIPPK10CoordinateSt6vectorIS3_SaIS3_EEEdeEv
	movq	(%rax), %rax
	movq	%rax, -592(%rbp)
	movq	-512(%rbp), %rsi
	leaq	-400(%rbp), %rdi
	call	__ZN5StateC1ERKS_
LEHE43:
	leaq	-256(%rbp), %rax
	leaq	-72(%rbp), %rcx
	leaq	-400(%rbp), %rsi
	movq	-504(%rbp), %rdi
	movl	-596(%rbp), %r9d
	movq	%rax, %r8
	movq	-592(%rbp), %rdx
LEHB44:
	call	__ZNK7DavidAI21calculateMoveDistanceE5StatePK10CoordinateRPP6EValuePSt6vectorIS3_SaIS3_EEb
LEHE44:
	leaq	-400(%rbp), %rdi
LEHB45:
	call	__ZN5StateD1Ev
LEHE45:
	jmp	L757
L771:
	movq	%rax, -672(%rbp)
L758:
	movq	-672(%rbp), %rbx
	leaq	-400(%rbp), %rdi
	call	__ZN5StateD1Ev
	movq	%rbx, -672(%rbp)
	jmp	L762
L757:
	.loc 4 175 0
	leaq	-80(%rbp), %rdi
	movl	$0, %esi
	call	__ZN9__gnu_cxx17__normal_iteratorIPPK10CoordinateSt6vectorIS3_SaIS3_EEEppEi
L755:
	leaq	-224(%rbp), %rdi
	call	__ZNSt6vectorIPK10CoordinateSaIS2_EE3endEv
	movq	%rax, -96(%rbp)
	leaq	-96(%rbp), %rsi
	leaq	-80(%rbp), %rdi
	call	__ZN9__gnu_cxxneIPPK10CoordinateSt6vectorIS3_SaIS3_EEEEbRKNS_17__normal_iteratorIT_T0_EESD_
	testb	%al, %al
	jne	L756
	.loc 4 179 0
	leaq	-256(%rbp), %rsi
	leaq	-224(%rbp), %rdi
LEHB46:
	call	__ZNSt6vectorIPK10CoordinateSaIS2_EEaSERKS4_
LEHE46:
	.loc 4 180 0
	leaq	-256(%rbp), %rdi
	call	__ZNSt6vectorIPK10CoordinateSaIS2_EE5clearEv
L753:
	.loc 4 174 0
	leaq	-224(%rbp), %rdi
	call	__ZNKSt6vectorIPK10CoordinateSaIS2_EE4sizeEv
	testq	%rax, %rax
	setne	%al
	testb	%al, %al
	jne	L754
	.loc 4 182 0
	movq	-72(%rbp), %rdx
	movq	%rdx, -584(%rbp)
	leaq	-496(%rbp), %rax
	addq	$96, %rax
	movq	%rax, -552(%rbp)
	jmp	L761
L776:
	movq	%rax, -672(%rbp)
L762:
	movq	-672(%rbp), %rax
	movq	%rax, -536(%rbp)
	leaq	-496(%rbp), %rax
	addq	$96, %rax
	movq	%rax, -552(%rbp)
L763:
	leaq	-496(%rbp), %rax
	cmpq	%rax, -552(%rbp)
	je	L764
	subq	$16, -552(%rbp)
	movq	-552(%rbp), %rdx
	movq	(%rdx), %rdx
	movq	%rdx, -576(%rbp)
	movq	-576(%rbp), %rax
	movq	(%rax), %rax
	movq	%rax, -568(%rbp)
	movq	-552(%rbp), %rdi
	call	*-568(%rbp)
	jmp	L763
L764:
	movq	-536(%rbp), %rdx
	movq	%rdx, -672(%rbp)
	jmp	L768
L761:
	leaq	-496(%rbp), %rax
	cmpq	%rax, -552(%rbp)
	je	L766
	subq	$16, -552(%rbp)
	movq	-552(%rbp), %rax
	movq	(%rax), %rax
	movq	%rax, -576(%rbp)
	movq	-576(%rbp), %rdx
	movq	(%rdx), %rdx
	movq	%rdx, -568(%rbp)
	movq	-552(%rbp), %rdi
LEHB47:
	call	*-568(%rbp)
LEHE47:
	jmp	L761
L766:
	leaq	-256(%rbp), %rdi
	call	__ZNSt6vectorIPK10CoordinateSaIS2_EED1Ev
	leaq	-224(%rbp), %rdi
	call	__ZNSt6vectorIPK10CoordinateSaIS2_EED1Ev
	movq	-584(%rbp), %rax
	movq	%rax, -664(%rbp)
	jmp	L713
L778:
	movq	%rax, -672(%rbp)
L768:
	movq	-672(%rbp), %rbx
	leaq	-256(%rbp), %rdi
	call	__ZNSt6vectorIPK10CoordinateSaIS2_EED1Ev
	movq	%rbx, -672(%rbp)
L779:
L769:
	movq	-672(%rbp), %rbx
	leaq	-224(%rbp), %rdi
	call	__ZNSt6vectorIPK10CoordinateSaIS2_EED1Ev
	movq	%rbx, -672(%rbp)
	movq	-672(%rbp), %rdi
LEHB48:
	call	__Unwind_Resume
LEHE48:
L713:
LBE92:
	.loc 4 183 0
	movq	-664(%rbp), %rax
	addq	$664, %rsp
	popq	%rbx
	leave
	ret
LFE2065:
	.section __TEXT,__gcc_except_tab
GCC_except_table5:
LLSDA2065:
	.byte	0xff
	.byte	0xff
	.byte	0x3
	.byte	0xea,0x1
	.set L$set$82,LEHB31-LFB2065
	.long L$set$82
	.set L$set$83,LEHE31-LEHB31
	.long L$set$83
	.long	0x0
	.byte	0x0
	.set L$set$84,LEHB32-LFB2065
	.long L$set$84
	.set L$set$85,LEHE32-LEHB32
	.long L$set$85
	.set L$set$86,L777-LFB2065
	.long L$set$86
	.byte	0x0
	.set L$set$87,LEHB33-LFB2065
	.long L$set$87
	.set L$set$88,LEHE33-LEHB33
	.long L$set$88
	.set L$set$89,L776-LFB2065
	.long L$set$89
	.byte	0x0
	.set L$set$90,LEHB34-LFB2065
	.long L$set$90
	.set L$set$91,LEHE34-LEHB34
	.long L$set$91
	.set L$set$92,L775-LFB2065
	.long L$set$92
	.byte	0x0
	.set L$set$93,LEHB35-LFB2065
	.long L$set$93
	.set L$set$94,LEHE35-LEHB35
	.long L$set$94
	.set L$set$95,L774-LFB2065
	.long L$set$95
	.byte	0x0
	.set L$set$96,LEHB36-LFB2065
	.long L$set$96
	.set L$set$97,LEHE36-LEHB36
	.long L$set$97
	.set L$set$98,L775-LFB2065
	.long L$set$98
	.byte	0x0
	.set L$set$99,LEHB37-LFB2065
	.long L$set$99
	.set L$set$100,LEHE37-LEHB37
	.long L$set$100
	.set L$set$101,L776-LFB2065
	.long L$set$101
	.byte	0x0
	.set L$set$102,LEHB38-LFB2065
	.long L$set$102
	.set L$set$103,LEHE38-LEHB38
	.long L$set$103
	.set L$set$104,L776-LFB2065
	.long L$set$104
	.byte	0x0
	.set L$set$105,LEHB39-LFB2065
	.long L$set$105
	.set L$set$106,LEHE39-LEHB39
	.long L$set$106
	.set L$set$107,L773-LFB2065
	.long L$set$107
	.byte	0x0
	.set L$set$108,LEHB40-LFB2065
	.long L$set$108
	.set L$set$109,LEHE40-LEHB40
	.long L$set$109
	.set L$set$110,L772-LFB2065
	.long L$set$110
	.byte	0x0
	.set L$set$111,LEHB41-LFB2065
	.long L$set$111
	.set L$set$112,LEHE41-LEHB41
	.long L$set$112
	.set L$set$113,L773-LFB2065
	.long L$set$113
	.byte	0x0
	.set L$set$114,LEHB42-LFB2065
	.long L$set$114
	.set L$set$115,LEHE42-LEHB42
	.long L$set$115
	.set L$set$116,L776-LFB2065
	.long L$set$116
	.byte	0x0
	.set L$set$117,LEHB43-LFB2065
	.long L$set$117
	.set L$set$118,LEHE43-LEHB43
	.long L$set$118
	.set L$set$119,L776-LFB2065
	.long L$set$119
	.byte	0x0
	.set L$set$120,LEHB44-LFB2065
	.long L$set$120
	.set L$set$121,LEHE44-LEHB44
	.long L$set$121
	.set L$set$122,L771-LFB2065
	.long L$set$122
	.byte	0x0
	.set L$set$123,LEHB45-LFB2065
	.long L$set$123
	.set L$set$124,LEHE45-LEHB45
	.long L$set$124
	.set L$set$125,L776-LFB2065
	.long L$set$125
	.byte	0x0
	.set L$set$126,LEHB46-LFB2065
	.long L$set$126
	.set L$set$127,LEHE46-LEHB46
	.long L$set$127
	.set L$set$128,L776-LFB2065
	.long L$set$128
	.byte	0x0
	.set L$set$129,LEHB47-LFB2065
	.long L$set$129
	.set L$set$130,LEHE47-LEHB47
	.long L$set$130
	.set L$set$131,L778-LFB2065
	.long L$set$131
	.byte	0x0
	.set L$set$132,LEHB48-LFB2065
	.long L$set$132
	.set L$set$133,LEHE48-LEHB48
	.long L$set$133
	.long	0x0
	.byte	0x0
	.text
	.align 1,0x90
.globl __ZNK7DavidAI18pathFromStartToEndE5StatePK10CoordinateS3_
__ZNK7DavidAI18pathFromStartToEndE5StatePK10CoordinateS3_:
LFB2069:
	.loc 4 253 0
	pushq	%rbp
LCFI707:
	movq	%rsp, %rbp
LCFI708:
	pushq	%rbx
LCFI709:
	subq	$360, %rsp
LCFI710:
	movq	%rdi, -360(%rbp)
	movq	%rsi, -328(%rbp)
	movq	%rdx, -336(%rbp)
	movq	%rcx, -344(%rbp)
	movq	%r8, -352(%rbp)
LBB100:
	.loc 4 254 0
	movq	-336(%rbp), %rsi
	leaq	-224(%rbp), %rdi
LEHB49:
	call	__ZN5StateC1ERKS_
LEHE49:
	movq	-344(%rbp), %rdx
	leaq	-224(%rbp), %rsi
	movq	-328(%rbp), %rdi
	movl	$0, %ecx
LEHB50:
	call	__ZNK7DavidAI25evaluateBoardMoveDistanceE5StatePK10Coordinateb
LEHE50:
	movq	%rax, -32(%rbp)
	leaq	-224(%rbp), %rdi
LEHB51:
	call	__ZN5StateD1Ev
LEHE51:
	.loc 4 255 0
	leaq	-17(%rbp), %rdi
	call	__ZNSaIPK10ConnectionEC1Ev
	movq	-360(%rbp), %rdi
	leaq	-17(%rbp), %rsi
	call	__ZNSt6vectorIPK10ConnectionSaIS2_EEC1ERKS3_
	leaq	-17(%rbp), %rdi
	call	__ZNSaIPK10ConnectionED1Ev
	.loc 4 256 0
	movq	-352(%rbp), %rax
	movq	%rax, -40(%rbp)
	movq	$0, -48(%rbp)
	.loc 4 257 0
	jmp	L781
L796:
	movq	%rax, -368(%rbp)
L782:
	movq	-368(%rbp), %rbx
	.loc 4 254 0
	leaq	-224(%rbp), %rdi
	call	__ZN5StateD1Ev
	movq	%rbx, -368(%rbp)
	movq	-368(%rbp), %rdi
LEHB52:
	call	__Unwind_Resume
LEHE52:
L783:
	.loc 4 258 0
	movq	-40(%rbp), %rax
	movq	%rax, -48(%rbp)
	.loc 4 260 0
	movq	-336(%rbp), %rsi
	leaq	-320(%rbp), %rdi
LEHB53:
	call	__ZN5StateC1ERKS_
LEHE53:
	leaq	-32(%rbp), %rcx
	movq	-48(%rbp), %rdx
	leaq	-320(%rbp), %rsi
	movq	-328(%rbp), %rdi
	movl	$0, %r9d
	movl	$0, %r8d
LEHB54:
	call	__ZNK7DavidAI21calculateMoveDistanceE5StatePK10CoordinateRPP6EValuePSt6vectorIS3_SaIS3_EEb
LEHE54:
	movq	%rax, -40(%rbp)
	leaq	-320(%rbp), %rdi
LEHB55:
	call	__ZN5StateD1Ev
LEHE55:
	jmp	L784
L794:
	movq	%rax, -368(%rbp)
L785:
	movq	-368(%rbp), %rbx
	leaq	-320(%rbp), %rdi
	call	__ZN5StateD1Ev
	movq	%rbx, -368(%rbp)
	jmp	L790
L784:
	.loc 4 261 0
	movq	-48(%rbp), %rsi
	leaq	-96(%rbp), %rdi
LEHB56:
	call	__ZN6VectorC1ERKS_
LEHE56:
	movq	-40(%rbp), %rsi
	leaq	-80(%rbp), %rdi
LEHB57:
	call	__ZN6VectorC1ERKS_
LEHE57:
	movq	-328(%rbp), %rax
	movq	40(%rax), %rdi
	leaq	-96(%rbp), %rdx
	leaq	-80(%rbp), %rsi
LEHB58:
	call	__ZNK5Board13getConnectionE6VectorS0_
	movq	%rax, -56(%rbp)
	movq	-360(%rbp), %rdi
	leaq	-56(%rbp), %rsi
	call	__ZNSt6vectorIPK10ConnectionSaIS2_EE9push_backERKS2_
LEHE58:
	leaq	-80(%rbp), %rdi
LEHB59:
	call	__ZN6VectorD1Ev
LEHE59:
	jmp	L786
L792:
	movq	%rax, -368(%rbp)
L787:
	movq	-368(%rbp), %rbx
	leaq	-80(%rbp), %rdi
	call	__ZN6VectorD1Ev
	movq	%rbx, -368(%rbp)
	jmp	L788
L786:
	leaq	-96(%rbp), %rdi
LEHB60:
	call	__ZN6VectorD1Ev
LEHE60:
	jmp	L781
L793:
	movq	%rax, -368(%rbp)
L788:
	movq	-368(%rbp), %rbx
	leaq	-96(%rbp), %rdi
	call	__ZN6VectorD1Ev
	movq	%rbx, -368(%rbp)
	jmp	L790
L781:
	.loc 4 257 0
	movq	-40(%rbp), %rax
	movzwl	8(%rax), %eax
	movswq	%ax,%rax
	salq	$3, %rax
	movq	%rax, %rdx
	movq	-32(%rbp), %rax
	leaq	(%rdx,%rax), %rax
	movq	(%rax), %rdx
	movq	-40(%rbp), %rax
	movzwl	10(%rax), %eax
	movswq	%ax,%rax
	salq	$2, %rax
	leaq	(%rdx,%rax), %rdi
	movl	$0, %esi
	call	__ZNK6EValuegtEj
	testb	%al, %al
	jne	L783
	jmp	L780
L795:
	movq	%rax, -368(%rbp)
L790:
	movq	-368(%rbp), %rbx
	.loc 4 263 0
	movq	-360(%rbp), %rdi
	call	__ZNSt6vectorIPK10ConnectionSaIS2_EED1Ev
	movq	%rbx, -368(%rbp)
	movq	-368(%rbp), %rdi
LEHB61:
	call	__Unwind_Resume
LEHE61:
L780:
LBE100:
	.loc 4 264 0
	movq	-360(%rbp), %rax
	addq	$360, %rsp
	popq	%rbx
	leave
	ret
LFE2069:
	.section __TEXT,__gcc_except_tab
GCC_except_table6:
LLSDA2069:
	.byte	0xff
	.byte	0xff
	.byte	0x3
	.byte	0xa9,0x1
	.set L$set$134,LEHB49-LFB2069
	.long L$set$134
	.set L$set$135,LEHE49-LEHB49
	.long L$set$135
	.long	0x0
	.byte	0x0
	.set L$set$136,LEHB50-LFB2069
	.long L$set$136
	.set L$set$137,LEHE50-LEHB50
	.long L$set$137
	.set L$set$138,L796-LFB2069
	.long L$set$138
	.byte	0x0
	.set L$set$139,LEHB51-LFB2069
	.long L$set$139
	.set L$set$140,LEHE51-LEHB51
	.long L$set$140
	.long	0x0
	.byte	0x0
	.set L$set$141,LEHB52-LFB2069
	.long L$set$141
	.set L$set$142,LEHE52-LEHB52
	.long L$set$142
	.long	0x0
	.byte	0x0
	.set L$set$143,LEHB53-LFB2069
	.long L$set$143
	.set L$set$144,LEHE53-LEHB53
	.long L$set$144
	.set L$set$145,L795-LFB2069
	.long L$set$145
	.byte	0x0
	.set L$set$146,LEHB54-LFB2069
	.long L$set$146
	.set L$set$147,LEHE54-LEHB54
	.long L$set$147
	.set L$set$148,L794-LFB2069
	.long L$set$148
	.byte	0x0
	.set L$set$149,LEHB55-LFB2069
	.long L$set$149
	.set L$set$150,LEHE55-LEHB55
	.long L$set$150
	.set L$set$151,L795-LFB2069
	.long L$set$151
	.byte	0x0
	.set L$set$152,LEHB56-LFB2069
	.long L$set$152
	.set L$set$153,LEHE56-LEHB56
	.long L$set$153
	.set L$set$154,L795-LFB2069
	.long L$set$154
	.byte	0x0
	.set L$set$155,LEHB57-LFB2069
	.long L$set$155
	.set L$set$156,LEHE57-LEHB57
	.long L$set$156
	.set L$set$157,L793-LFB2069
	.long L$set$157
	.byte	0x0
	.set L$set$158,LEHB58-LFB2069
	.long L$set$158
	.set L$set$159,LEHE58-LEHB58
	.long L$set$159
	.set L$set$160,L792-LFB2069
	.long L$set$160
	.byte	0x0
	.set L$set$161,LEHB59-LFB2069
	.long L$set$161
	.set L$set$162,LEHE59-LEHB59
	.long L$set$162
	.set L$set$163,L793-LFB2069
	.long L$set$163
	.byte	0x0
	.set L$set$164,LEHB60-LFB2069
	.long L$set$164
	.set L$set$165,LEHE60-LEHB60
	.long L$set$165
	.set L$set$166,L795-LFB2069
	.long L$set$166
	.byte	0x0
	.set L$set$167,LEHB61-LFB2069
	.long L$set$167
	.set L$set$168,LEHE61-LEHB61
	.long L$set$168
	.long	0x0
	.byte	0x0
	.text
	.align 1,0x90
.globl __ZNK7DavidAI12pathToCitiesE5StatePK10Coordinate
__ZNK7DavidAI12pathToCitiesE5StatePK10Coordinate:
LFB2070:
	.loc 4 267 0
	pushq	%rbp
LCFI711:
	movq	%rsp, %rbp
LCFI712:
	pushq	%r12
LCFI713:
	pushq	%rbx
LCFI714:
	subq	$688, %rsp
LCFI715:
	movq	%rdi, -696(%rbp)
	movq	%rsi, -664(%rbp)
	movq	%rdx, -672(%rbp)
	movq	%rcx, -680(%rbp)
LBB101:
	.loc 4 268 0
	leaq	-17(%rbp), %rdi
	call	__ZNSaIPK10ConnectionEC1Ev
	movq	-696(%rbp), %rdi
	leaq	-17(%rbp), %rsi
	call	__ZNSt6vectorIPK10ConnectionSaIS2_EEC1ERKS3_
	leaq	-17(%rbp), %rdi
	call	__ZNSaIPK10ConnectionED1Ev
	.loc 4 269 0
	leaq	-272(%rbp), %rdi
	call	__ZNSt8multimapI6EValuePK4CitySt4lessIS0_ESaISt4pairIKS0_S3_EEEC1Ev
	.loc 4 270 0
	movq	-672(%rbp), %rsi
	leaq	-368(%rbp), %rdi
LEHB62:
	call	__ZN5StateC1ERKS_
LEHE62:
	movq	-680(%rbp), %rdx
	leaq	-368(%rbp), %rsi
	movq	-664(%rbp), %rdi
	movl	$0, %ecx
LEHB63:
	call	__ZNK7DavidAI25evaluateBoardMoveDistanceE5StatePK10Coordinateb
LEHE63:
	movq	%rax, -40(%rbp)
	leaq	-368(%rbp), %rdi
LEHB64:
	call	__ZN5StateD1Ev
LEHE64:
	jmp	L798
L833:
	movq	%rax, -704(%rbp)
L799:
	movq	-704(%rbp), %rbx
	leaq	-368(%rbp), %rdi
	call	__ZN5StateD1Ev
	movq	%rbx, -704(%rbp)
	jmp	L825
L798:
	.loc 4 271 0
	leaq	-272(%rbp), %rdi
LEHB65:
	call	__ZNSt8multimapI6EValuePK4CitySt4lessIS0_ESaISt4pairIKS0_S3_EEE5clearEv
LBB102:
	.loc 4 272 0
	movl	$0, -24(%rbp)
	jmp	L800
L801:
	.loc 4 273 0
	movq	-664(%rbp), %rax
	movq	8(%rax), %rdx
	movl	-24(%rbp), %eax
	cltq
	salq	$3, %rax
	leaq	(%rdx,%rax), %rax
	movq	(%rax), %rax
	movzwl	8(%rax), %eax
	movswq	%ax,%rax
	salq	$3, %rax
	addq	-40(%rbp), %rax
	movq	(%rax), %rcx
	movq	-664(%rbp), %rax
	movq	8(%rax), %rdx
	movl	-24(%rbp), %eax
	cltq
	salq	$3, %rax
	leaq	(%rdx,%rax), %rax
	movq	(%rax), %rax
	movzwl	10(%rax), %eax
	movswq	%ax,%rax
	salq	$2, %rax
	leaq	(%rcx,%rax), %rdi
	movl	$0, %esi
	call	__ZNK6EValuegtEj
	testb	%al, %al
	je	L802
	.loc 4 276 0
	movq	-664(%rbp), %rax
	movq	8(%rax), %rdx
	movl	-24(%rbp), %eax
	cltq
	salq	$3, %rax
	leaq	(%rdx,%rax), %rcx
	movq	-664(%rbp), %rax
	movq	8(%rax), %rdx
	movl	-24(%rbp), %eax
	cltq
	salq	$3, %rax
	leaq	(%rdx,%rax), %rax
	movq	(%rax), %rax
	movzwl	8(%rax), %eax
	movswq	%ax,%rax
	salq	$3, %rax
	addq	-40(%rbp), %rax
	movq	(%rax), %rsi
	movq	-664(%rbp), %rax
	movq	8(%rax), %rdx
	movl	-24(%rbp), %eax
	cltq
	salq	$3, %rax
	leaq	(%rdx,%rax), %rax
	movq	(%rax), %rax
	movzwl	10(%rax), %eax
	movswq	%ax,%rax
	salq	$2, %rax
	addq	%rax, %rsi
	leaq	-80(%rbp), %rdi
	movq	%rcx, %rdx
	call	__ZNSt4pairI6EValuePK4CityEC1ERKS0_RKS3_
	leaq	-80(%rbp), %rsi
	leaq	-96(%rbp), %rdi
	call	__ZNSt4pairIK6EValuePK4CityEC1IS0_S4_EERKS_IT_T0_E
	leaq	-96(%rbp), %rsi
	leaq	-272(%rbp), %rdi
	call	__ZNSt8multimapI6EValuePK4CitySt4lessIS0_ESaISt4pairIKS0_S3_EEE6insertERKS8_
L802:
	.loc 4 272 0
	incl	-24(%rbp)
L800:
	cmpl	$4, -24(%rbp)
	jle	L801
	.loc 4 278 0
	jmp	L805
L806:
LBE102:
LBB103:
	.loc 4 280 0
	movq	-672(%rbp), %rsi
	leaq	-464(%rbp), %rdi
	call	__ZN5StateC1ERKS_
LEHE65:
	movq	-680(%rbp), %rdx
	leaq	-464(%rbp), %rsi
	movq	-664(%rbp), %rdi
	movl	$0, %ecx
LEHB66:
	call	__ZNK7DavidAI25evaluateBoardMoveDistanceE5StatePK10Coordinateb
LEHE66:
	movq	%rax, -48(%rbp)
	leaq	-464(%rbp), %rdi
LEHB67:
	call	__ZN5StateD1Ev
LEHE67:
	jmp	L807
L832:
	movq	%rax, -704(%rbp)
L808:
	movq	-704(%rbp), %rbx
	leaq	-464(%rbp), %rdi
	call	__ZN5StateD1Ev
	movq	%rbx, -704(%rbp)
	jmp	L825
L807:
	.loc 4 282 0
	leaq	-272(%rbp), %rdi
	call	__ZNSt8multimapI6EValuePK4CitySt4lessIS0_ESaISt4pairIKS0_S3_EEE5beginEv
	movq	%rax, -64(%rbp)
	leaq	-64(%rbp), %rdi
	call	__ZNKSt17_Rb_tree_iteratorISt4pairIK6EValuePK4CityEEptEv
	movq	8(%rax), %rax
	movq	%rax, -688(%rbp)
	movq	-672(%rbp), %rsi
	leaq	-560(%rbp), %rdi
LEHB68:
	call	__ZN5StateC1ERKS_
LEHE68:
	leaq	-192(%rbp), %rdi
	movq	-680(%rbp), %rcx
	leaq	-560(%rbp), %rdx
	movq	-664(%rbp), %rsi
	movq	-688(%rbp), %r8
LEHB69:
	call	__ZNK7DavidAI18pathFromStartToEndE5StatePK10CoordinateS3_
LEHE69:
	leaq	-560(%rbp), %rdi
LEHB70:
	call	__ZN5StateD1Ev
LEHE70:
	jmp	L809
L831:
	movq	%rax, -704(%rbp)
L810:
	movq	-704(%rbp), %rbx
	leaq	-560(%rbp), %rdi
	call	__ZN5StateD1Ev
	movq	%rbx, -704(%rbp)
	jmp	L825
L809:
	.loc 4 284 0
	leaq	-192(%rbp), %rdi
	call	__ZNSt6vectorIPK10ConnectionSaIS2_EE3endEv
	movq	%rax, %r12
	leaq	-192(%rbp), %rdi
	call	__ZNSt6vectorIPK10ConnectionSaIS2_EE5beginEv
	movq	%rax, %rbx
	movq	-696(%rbp), %rdi
	call	__ZNSt6vectorIPK10ConnectionSaIS2_EE3endEv
	movq	%rax, %rsi
	movq	-696(%rbp), %rdi
	movq	%r12, %rcx
	movq	%rbx, %rdx
LEHB71:
	call	__ZNSt6vectorIPK10ConnectionSaIS2_EE6insertIN9__gnu_cxx17__normal_iteratorIPS2_S4_EEEEvS9_T_SA_
	.loc 4 286 0
	leaq	-192(%rbp), %rsi
	leaq	-224(%rbp), %rdi
	call	__ZNSt6vectorIPK10ConnectionSaIS2_EEC1ERKS4_
LEHE71:
	leaq	-224(%rbp), %rsi
	movq	-672(%rbp), %rdi
LEHB72:
	call	__ZN5State8setRailsESt6vectorIPK10ConnectionSaIS3_EE
LEHE72:
	leaq	-224(%rbp), %rdi
	call	__ZNSt6vectorIPK10ConnectionSaIS2_EED1Ev
LBB104:
	.loc 4 287 0
	movl	$0, -28(%rbp)
	jmp	L811
L829:
	movq	%rax, -704(%rbp)
L812:
	movq	-704(%rbp), %rbx
LBE104:
	.loc 4 286 0
	leaq	-224(%rbp), %rdi
	call	__ZNSt6vectorIPK10ConnectionSaIS2_EED1Ev
	movq	%rbx, -704(%rbp)
	jmp	L822
L813:
LBB105:
	.loc 4 288 0
	movl	-28(%rbp), %eax
	cltq
	salq	$3, %rax
	addq	-48(%rbp), %rax
	movq	(%rax), %rdi
	call	__ZdlPv
	.loc 4 287 0
	incl	-28(%rbp)
L811:
	cmpl	$19, -28(%rbp)
	jle	L813
LBE105:
	.loc 4 289 0
	movq	-48(%rbp), %rdi
	call	__ZdlPv
	.loc 4 290 0
	movq	-672(%rbp), %rsi
	leaq	-656(%rbp), %rdi
LEHB73:
	call	__ZN5StateC1ERKS_
LEHE73:
	movq	-680(%rbp), %rdx
	leaq	-656(%rbp), %rsi
	movq	-664(%rbp), %rdi
	movl	$0, %ecx
LEHB74:
	call	__ZNK7DavidAI25evaluateBoardMoveDistanceE5StatePK10Coordinateb
LEHE74:
	movq	%rax, -48(%rbp)
	leaq	-656(%rbp), %rdi
LEHB75:
	call	__ZN5StateD1Ev
LEHE75:
	jmp	L815
L828:
	movq	%rax, -704(%rbp)
L816:
	movq	-704(%rbp), %rbx
	leaq	-656(%rbp), %rdi
	call	__ZN5StateD1Ev
	movq	%rbx, -704(%rbp)
	jmp	L822
L815:
	.loc 4 291 0
	leaq	-272(%rbp), %rdi
LEHB76:
	call	__ZNSt8multimapI6EValuePK4CitySt4lessIS0_ESaISt4pairIKS0_S3_EEE5clearEv
LBB106:
	.loc 4 292 0
	movl	$0, -32(%rbp)
	jmp	L817
L818:
	.loc 4 293 0
	movq	-664(%rbp), %rax
	movq	8(%rax), %rdx
	movl	-32(%rbp), %eax
	cltq
	salq	$3, %rax
	leaq	(%rdx,%rax), %rax
	movq	(%rax), %rax
	movzwl	8(%rax), %eax
	movswq	%ax,%rax
	salq	$3, %rax
	addq	-48(%rbp), %rax
	movq	(%rax), %rcx
	movq	-664(%rbp), %rax
	movq	8(%rax), %rdx
	movl	-32(%rbp), %eax
	cltq
	salq	$3, %rax
	leaq	(%rdx,%rax), %rax
	movq	(%rax), %rax
	movzwl	10(%rax), %eax
	movswq	%ax,%rax
	salq	$2, %rax
	leaq	(%rcx,%rax), %rdi
	movl	$0, %esi
	call	__ZNK6EValuegtEj
	testb	%al, %al
	je	L819
	.loc 4 296 0
	movq	-664(%rbp), %rax
	movq	8(%rax), %rdx
	movl	-32(%rbp), %eax
	cltq
	salq	$3, %rax
	leaq	(%rdx,%rax), %rcx
	movq	-664(%rbp), %rax
	movq	8(%rax), %rdx
	movl	-32(%rbp), %eax
	cltq
	salq	$3, %rax
	leaq	(%rdx,%rax), %rax
	movq	(%rax), %rax
	movzwl	8(%rax), %eax
	movswq	%ax,%rax
	salq	$3, %rax
	addq	-48(%rbp), %rax
	movq	(%rax), %rsi
	movq	-664(%rbp), %rax
	movq	8(%rax), %rdx
	movl	-32(%rbp), %eax
	cltq
	salq	$3, %rax
	leaq	(%rdx,%rax), %rax
	movq	(%rax), %rax
	movzwl	10(%rax), %eax
	movswq	%ax,%rax
	salq	$2, %rax
	addq	%rax, %rsi
	leaq	-112(%rbp), %rdi
	movq	%rcx, %rdx
	call	__ZNSt4pairI6EValuePK4CityEC1ERKS0_RKS3_
	leaq	-112(%rbp), %rsi
	leaq	-128(%rbp), %rdi
	call	__ZNSt4pairIK6EValuePK4CityEC1IS0_S4_EERKS_IT_T0_E
	leaq	-128(%rbp), %rsi
	leaq	-272(%rbp), %rdi
	call	__ZNSt8multimapI6EValuePK4CitySt4lessIS0_ESaISt4pairIKS0_S3_EEE6insertERKS8_
LEHE76:
L819:
	.loc 4 292 0
	incl	-32(%rbp)
L817:
	cmpl	$4, -32(%rbp)
	jle	L818
LBE106:
	.loc 4 278 0
	leaq	-192(%rbp), %rdi
	call	__ZNSt6vectorIPK10ConnectionSaIS2_EED1Ev
	jmp	L805
L830:
	movq	%rax, -704(%rbp)
L822:
	movq	-704(%rbp), %rbx
	leaq	-192(%rbp), %rdi
	call	__ZNSt6vectorIPK10ConnectionSaIS2_EED1Ev
	movq	%rbx, -704(%rbp)
	jmp	L825
L805:
LBE103:
	leaq	-272(%rbp), %rdi
	call	__ZNKSt8multimapI6EValuePK4CitySt4lessIS0_ESaISt4pairIKS0_S3_EEE4sizeEv
	testl	%eax, %eax
	setg	%al
	testb	%al, %al
	jne	L806
	.loc 4 299 0
	leaq	-272(%rbp), %rdi
LEHB77:
	call	__ZNSt8multimapI6EValuePK4CitySt4lessIS0_ESaISt4pairIKS0_S3_EEED1Ev
LEHE77:
	jmp	L797
L834:
	movq	%rax, -704(%rbp)
L825:
	movq	-704(%rbp), %rbx
	leaq	-272(%rbp), %rdi
	call	__ZNSt8multimapI6EValuePK4CitySt4lessIS0_ESaISt4pairIKS0_S3_EEED1Ev
	movq	%rbx, -704(%rbp)
	jmp	L826
L835:
	movq	%rax, -704(%rbp)
L826:
	movq	-704(%rbp), %rbx
	movq	-696(%rbp), %rdi
	call	__ZNSt6vectorIPK10ConnectionSaIS2_EED1Ev
	movq	%rbx, -704(%rbp)
	movq	-704(%rbp), %rdi
LEHB78:
	call	__Unwind_Resume
LEHE78:
L797:
LBE101:
	.loc 4 300 0
	movq	-696(%rbp), %rax
	addq	$688, %rsp
	popq	%rbx
	popq	%r12
	leave
	ret
LFE2070:
	.section __TEXT,__gcc_except_tab
GCC_except_table7:
LLSDA2070:
	.byte	0xff
	.byte	0xff
	.byte	0x3
	.byte	0xdd,0x1
	.set L$set$169,LEHB62-LFB2070
	.long L$set$169
	.set L$set$170,LEHE62-LEHB62
	.long L$set$170
	.set L$set$171,L834-LFB2070
	.long L$set$171
	.byte	0x0
	.set L$set$172,LEHB63-LFB2070
	.long L$set$172
	.set L$set$173,LEHE63-LEHB63
	.long L$set$173
	.set L$set$174,L833-LFB2070
	.long L$set$174
	.byte	0x0
	.set L$set$175,LEHB64-LFB2070
	.long L$set$175
	.set L$set$176,LEHE64-LEHB64
	.long L$set$176
	.set L$set$177,L834-LFB2070
	.long L$set$177
	.byte	0x0
	.set L$set$178,LEHB65-LFB2070
	.long L$set$178
	.set L$set$179,LEHE65-LEHB65
	.long L$set$179
	.set L$set$180,L834-LFB2070
	.long L$set$180
	.byte	0x0
	.set L$set$181,LEHB66-LFB2070
	.long L$set$181
	.set L$set$182,LEHE66-LEHB66
	.long L$set$182
	.set L$set$183,L832-LFB2070
	.long L$set$183
	.byte	0x0
	.set L$set$184,LEHB67-LFB2070
	.long L$set$184
	.set L$set$185,LEHE67-LEHB67
	.long L$set$185
	.set L$set$186,L834-LFB2070
	.long L$set$186
	.byte	0x0
	.set L$set$187,LEHB68-LFB2070
	.long L$set$187
	.set L$set$188,LEHE68-LEHB68
	.long L$set$188
	.set L$set$189,L834-LFB2070
	.long L$set$189
	.byte	0x0
	.set L$set$190,LEHB69-LFB2070
	.long L$set$190
	.set L$set$191,LEHE69-LEHB69
	.long L$set$191
	.set L$set$192,L831-LFB2070
	.long L$set$192
	.byte	0x0
	.set L$set$193,LEHB70-LFB2070
	.long L$set$193
	.set L$set$194,LEHE70-LEHB70
	.long L$set$194
	.set L$set$195,L834-LFB2070
	.long L$set$195
	.byte	0x0
	.set L$set$196,LEHB71-LFB2070
	.long L$set$196
	.set L$set$197,LEHE71-LEHB71
	.long L$set$197
	.set L$set$198,L830-LFB2070
	.long L$set$198
	.byte	0x0
	.set L$set$199,LEHB72-LFB2070
	.long L$set$199
	.set L$set$200,LEHE72-LEHB72
	.long L$set$200
	.set L$set$201,L829-LFB2070
	.long L$set$201
	.byte	0x0
	.set L$set$202,LEHB73-LFB2070
	.long L$set$202
	.set L$set$203,LEHE73-LEHB73
	.long L$set$203
	.set L$set$204,L830-LFB2070
	.long L$set$204
	.byte	0x0
	.set L$set$205,LEHB74-LFB2070
	.long L$set$205
	.set L$set$206,LEHE74-LEHB74
	.long L$set$206
	.set L$set$207,L828-LFB2070
	.long L$set$207
	.byte	0x0
	.set L$set$208,LEHB75-LFB2070
	.long L$set$208
	.set L$set$209,LEHE75-LEHB75
	.long L$set$209
	.set L$set$210,L830-LFB2070
	.long L$set$210
	.byte	0x0
	.set L$set$211,LEHB76-LFB2070
	.long L$set$211
	.set L$set$212,LEHE76-LEHB76
	.long L$set$212
	.set L$set$213,L830-LFB2070
	.long L$set$213
	.byte	0x0
	.set L$set$214,LEHB77-LFB2070
	.long L$set$214
	.set L$set$215,LEHE77-LEHB77
	.long L$set$215
	.set L$set$216,L835-LFB2070
	.long L$set$216
	.byte	0x0
	.set L$set$217,LEHB78-LFB2070
	.long L$set$217
	.set L$set$218,LEHE78-LEHB78
	.long L$set$218
	.long	0x0
	.byte	0x0
	.text
	.align 1,0x90
.globl __ZN7DavidAI7setPawnE5State
__ZN7DavidAI7setPawnE5State:
LFB2062:
	.loc 4 114 0
	pushq	%rbp
LCFI716:
	movq	%rsp, %rbp
LCFI717:
	pushq	%rbx
LCFI718:
	subq	$200, %rsp
LCFI719:
	movq	%rdi, -184(%rbp)
	movq	%rsi, -192(%rbp)
LBB107:
	.loc 4 115 0
	movq	-192(%rbp), %rax
	movq	48(%rax), %rdx
	movq	-184(%rbp), %rax
	movq	%rdx, 40(%rax)
	.loc 4 117 0
	movl	$400, -20(%rbp)
LBB108:
	.loc 4 118 0
	movl	$0, -24(%rbp)
	jmp	L837
L838:
LBB109:
	.loc 4 119 0
	movq	-184(%rbp), %rax
	movq	8(%rax), %rdx
	movl	-24(%rbp), %eax
	cltq
	salq	$3, %rax
	leaq	(%rdx,%rax), %rax
	movq	(%rax), %rax
	movq	%rax, -48(%rbp)
	.loc 4 120 0
	movl	$0, -28(%rbp)
	.loc 4 121 0
	movq	-192(%rbp), %rsi
	leaq	-176(%rbp), %rdi
LEHB79:
	call	__ZN5StateC1ERKS_
LEHE79:
	leaq	-80(%rbp), %rdi
	movq	-48(%rbp), %rcx
	leaq	-176(%rbp), %rdx
	movq	-184(%rbp), %rsi
LEHB80:
	call	__ZNK7DavidAI12pathToCitiesE5StatePK10Coordinate
LEHE80:
	leaq	-176(%rbp), %rdi
LEHB81:
	call	__ZN5StateD1Ev
LEHE81:
LBB110:
	.loc 4 122 0
	movl	$0, -32(%rbp)
	jmp	L839
L847:
	movq	%rax, -200(%rbp)
L840:
	movq	-200(%rbp), %rbx
LBE110:
	.loc 4 121 0
	leaq	-176(%rbp), %rdi
	call	__ZN5StateD1Ev
	movq	%rbx, -200(%rbp)
	movq	-200(%rbp), %rdi
LEHB82:
	call	__Unwind_Resume
LEHE82:
L841:
LBB111:
	.loc 4 123 0
	mov	-32(%rbp), %esi
	leaq	-80(%rbp), %rdi
	call	__ZNSt6vectorIPK10ConnectionSaIS2_EEixEm
	movq	(%rax), %rax
	movzbl	28(%rax), %eax
	movzbl	%al, %eax
	incl	%eax
	addl	%eax, -28(%rbp)
	.loc 4 122 0
	incl	-32(%rbp)
L839:
	mov	-32(%rbp), %ebx
	leaq	-80(%rbp), %rdi
	call	__ZNKSt6vectorIPK10ConnectionSaIS2_EE4sizeEv
	cmpq	%rax, %rbx
	setb	%al
	testb	%al, %al
	jne	L841
LBE111:
	.loc 4 124 0
	movl	-28(%rbp), %eax
	cmpl	-20(%rbp), %eax
	jge	L843
	.loc 4 125 0
	movq	-48(%rbp), %rax
	movq	%rax, -40(%rbp)
	.loc 4 126 0
	movl	-28(%rbp), %eax
	movl	%eax, -20(%rbp)
L843:
	.loc 4 118 0
	leaq	-80(%rbp), %rdi
	call	__ZNSt6vectorIPK10ConnectionSaIS2_EED1Ev
LBE109:
	incl	-24(%rbp)
L837:
	cmpl	$4, -24(%rbp)
	jle	L838
LBE108:
	.loc 4 129 0
	movq	-40(%rbp), %rax
LBE107:
	.loc 4 130 0
	addq	$200, %rsp
	popq	%rbx
	leave
	ret
LFE2062:
	.section __TEXT,__gcc_except_tab
GCC_except_table8:
LLSDA2062:
	.byte	0xff
	.byte	0xff
	.byte	0x3
	.byte	0x34
	.set L$set$219,LEHB79-LFB2062
	.long L$set$219
	.set L$set$220,LEHE79-LEHB79
	.long L$set$220
	.long	0x0
	.byte	0x0
	.set L$set$221,LEHB80-LFB2062
	.long L$set$221
	.set L$set$222,LEHE80-LEHB80
	.long L$set$222
	.set L$set$223,L847-LFB2062
	.long L$set$223
	.byte	0x0
	.set L$set$224,LEHB81-LFB2062
	.long L$set$224
	.set L$set$225,LEHE81-LEHB81
	.long L$set$225
	.long	0x0
	.byte	0x0
	.set L$set$226,LEHB82-LFB2062
	.long L$set$226
	.set L$set$227,LEHE82-LEHB82
	.long L$set$227
	.long	0x0
	.byte	0x0
	.text
	.align 1,0x90
.globl __ZN7DavidAI11countPointsE5StateRSt6vectorIPK10ConnectionSaIS4_EE
__ZN7DavidAI11countPointsE5StateRSt6vectorIPK10ConnectionSaIS4_EE:
LFB2063:
	.loc 4 133 0
	pushq	%rbp
LCFI720:
	movq	%rsp, %rbp
LCFI721:
	pushq	%rbx
LCFI722:
	subq	$216, %rsp
LCFI723:
	movq	%rdi, -184(%rbp)
	movq	%rsi, -192(%rbp)
	movq	%rdx, -200(%rbp)
	.loc 4 134 0
	movq	-200(%rbp), %rdi
	call	__ZNSt6vectorIPK10ConnectionSaIS2_EE5clearEv
	.loc 4 136 0
	movq	-184(%rbp), %rax
	movl	16(%rax), %edx
	leaq	-48(%rbp), %rdi
	movq	-192(%rbp), %rsi
LEHB83:
	call	__ZNK5State7getPawnE11PLAYERCOLOR
LEHE83:
	movq	-40(%rbp), %rax
	movq	%rax, -208(%rbp)
	movq	-192(%rbp), %rsi
	leaq	-176(%rbp), %rdi
LEHB84:
	call	__ZN5StateC1ERKS_
LEHE84:
	leaq	-80(%rbp), %rdi
	leaq	-176(%rbp), %rdx
	movq	-184(%rbp), %rsi
	movq	-208(%rbp), %rcx
LEHB85:
	call	__ZNK7DavidAI12pathToCitiesE5StatePK10Coordinate
LEHE85:
	leaq	-80(%rbp), %rsi
	movq	-200(%rbp), %rdi
LEHB86:
	call	__ZNSt6vectorIPK10ConnectionSaIS2_EEaSERKS4_
LEHE86:
	leaq	-80(%rbp), %rdi
	call	__ZNSt6vectorIPK10ConnectionSaIS2_EED1Ev
	leaq	-176(%rbp), %rdi
LEHB87:
	call	__ZN5StateD1Ev
LEHE87:
	jmp	L849
L854:
	movq	%rax, -224(%rbp)
L850:
	movq	-224(%rbp), %rbx
	leaq	-80(%rbp), %rdi
	call	__ZNSt6vectorIPK10ConnectionSaIS2_EED1Ev
	movq	%rbx, -224(%rbp)
	jmp	L851
L855:
	movq	%rax, -224(%rbp)
L851:
	movq	-224(%rbp), %rbx
	leaq	-176(%rbp), %rdi
	call	__ZN5StateD1Ev
	movq	%rbx, -224(%rbp)
	jmp	L852
L849:
	leaq	-48(%rbp), %rdi
LEHB88:
	call	__ZN4PawnD1Ev
LEHE88:
	.loc 4 137 0
	movl	$0, %eax
	movl	%eax, -212(%rbp)
	jmp	L848
L856:
	movq	%rax, -224(%rbp)
L852:
	movq	-224(%rbp), %rbx
	.loc 4 136 0
	leaq	-48(%rbp), %rdi
	call	__ZN4PawnD1Ev
	movq	%rbx, -224(%rbp)
	movq	-224(%rbp), %rdi
LEHB89:
	call	__Unwind_Resume
LEHE89:
L848:
	.loc 4 138 0
	movl	-212(%rbp), %eax
	addq	$216, %rsp
	popq	%rbx
	leave
	ret
LFE2063:
	.section __TEXT,__gcc_except_tab
GCC_except_table9:
LLSDA2063:
	.byte	0xff
	.byte	0xff
	.byte	0x3
	.byte	0x5b
	.set L$set$228,LEHB83-LFB2063
	.long L$set$228
	.set L$set$229,LEHE83-LEHB83
	.long L$set$229
	.long	0x0
	.byte	0x0
	.set L$set$230,LEHB84-LFB2063
	.long L$set$230
	.set L$set$231,LEHE84-LEHB84
	.long L$set$231
	.set L$set$232,L856-LFB2063
	.long L$set$232
	.byte	0x0
	.set L$set$233,LEHB85-LFB2063
	.long L$set$233
	.set L$set$234,LEHE85-LEHB85
	.long L$set$234
	.set L$set$235,L855-LFB2063
	.long L$set$235
	.byte	0x0
	.set L$set$236,LEHB86-LFB2063
	.long L$set$236
	.set L$set$237,LEHE86-LEHB86
	.long L$set$237
	.set L$set$238,L854-LFB2063
	.long L$set$238
	.byte	0x0
	.set L$set$239,LEHB87-LFB2063
	.long L$set$239
	.set L$set$240,LEHE87-LEHB87
	.long L$set$240
	.set L$set$241,L856-LFB2063
	.long L$set$241
	.byte	0x0
	.set L$set$242,LEHB88-LFB2063
	.long L$set$242
	.set L$set$243,LEHE88-LEHB88
	.long L$set$243
	.long	0x0
	.byte	0x0
	.set L$set$244,LEHB89-LFB2063
	.long L$set$244
	.set L$set$245,LEHE89-LEHB89
	.long L$set$245
	.long	0x0
	.byte	0x0
	.text
	.section __TEXT,__textcoal_nt,coalesced,pure_instructions
	.align 1
.globl __ZNSt17_Rb_tree_iteratorISt4pairIK6EValuePK4CityEEppEv
	.weak_definition __ZNSt17_Rb_tree_iteratorISt4pairIK6EValuePK4CityEEppEv
__ZNSt17_Rb_tree_iteratorISt4pairIK6EValuePK4CityEEppEv:
LFB2117:
	.loc 10 183 0
	pushq	%rbp
LCFI724:
	movq	%rsp, %rbp
LCFI725:
	subq	$16, %rsp
LCFI726:
	movq	%rdi, -8(%rbp)
	.loc 10 185 0
	movq	-8(%rbp), %rax
	movq	(%rax), %rdi
	call	__ZSt18_Rb_tree_incrementPSt18_Rb_tree_node_base
	movq	%rax, %rdx
	movq	-8(%rbp), %rax
	movq	%rdx, (%rax)
	.loc 10 186 0
	movq	-8(%rbp), %rax
	leave
	ret
LFE2117:
	.cstring
	.align 3
LC5:
	.ascii "toCities[i]->valid(currentState, playerColor)\0"
	.text
	.align 1,0x90
.globl __ZN7DavidAI6doMoveE5StateSt6vectorIP4MoveSaIS3_EE
__ZN7DavidAI6doMoveE5StateSt6vectorIP4MoveSaIS3_EE:
LFB2058:
	.loc 4 41 0
	pushq	%rbp
LCFI727:
	movq	%rsp, %rbp
LCFI728:
	pushq	%rbx
LCFI729:
	subq	$1192, %rsp
LCFI730:
	movq	%rdi, -1192(%rbp)
	movq	%rsi, -1080(%rbp)
	movq	%rdx, -1088(%rbp)
	movq	%rcx, -1096(%rbp)
LBB112:
	.loc 4 43 0
	movq	-1080(%rbp), %rax
	movl	16(%rax), %edx
	leaq	-320(%rbp), %rdi
	movq	-1088(%rbp), %rsi
LEHB90:
	call	__ZNK5State7getPawnE11PLAYERCOLOR
LEHE90:
	leaq	-320(%rbp), %rdi
LEHB91:
	call	__ZN4PawncvPK10CoordinateEv
	movq	%rax, -1184(%rbp)
	movq	-1088(%rbp), %rsi
	leaq	-496(%rbp), %rdi
	call	__ZN5StateC1ERKS_
LEHE91:
	leaq	-496(%rbp), %rsi
	movq	-1080(%rbp), %rdi
	movl	$1, %ecx
	movq	-1184(%rbp), %rdx
LEHB92:
	call	__ZNK7DavidAI25evaluateBoardMoveDistanceE5StatePK10Coordinateb
LEHE92:
	movq	%rax, -72(%rbp)
	leaq	-496(%rbp), %rdi
LEHB93:
	call	__ZN5StateD1Ev
LEHE93:
	jmp	L860
L941:
	movq	%rax, -1200(%rbp)
L861:
	movq	-1200(%rbp), %rbx
	leaq	-496(%rbp), %rdi
	call	__ZN5StateD1Ev
	movq	%rbx, -1200(%rbp)
	jmp	L863
L860:
	leaq	-320(%rbp), %rdi
LEHB94:
	call	__ZN4PawnD1Ev
	.loc 4 45 0
	movq	-1080(%rbp), %rax
	movl	16(%rax), %edx
	leaq	-352(%rbp), %rdi
	movq	-1088(%rbp), %rsi
	call	__ZNK5State7getPawnE11PLAYERCOLOR
LEHE94:
	leaq	-352(%rbp), %rdi
LEHB95:
	call	__ZN4PawncvPK10CoordinateEv
LEHE95:
	movq	%rax, -1176(%rbp)
	jmp	L862
L942:
	movq	%rax, -1200(%rbp)
L863:
	movq	-1200(%rbp), %rbx
	.loc 4 43 0
	leaq	-320(%rbp), %rdi
	call	__ZN4PawnD1Ev
	movq	%rbx, -1200(%rbp)
	movq	-1200(%rbp), %rdi
LEHB96:
	call	__Unwind_Resume
LEHE96:
L862:
	.loc 4 45 0
	movq	-1088(%rbp), %rsi
	leaq	-592(%rbp), %rdi
LEHB97:
	call	__ZN5StateC1ERKS_
LEHE97:
	leaq	-592(%rbp), %rsi
	movq	-1080(%rbp), %rdi
	movl	$0, %ecx
	movq	-1176(%rbp), %rdx
LEHB98:
	call	__ZNK7DavidAI25evaluateBoardMoveDistanceE5StatePK10Coordinateb
LEHE98:
	movq	%rax, -80(%rbp)
	leaq	-592(%rbp), %rdi
LEHB99:
	call	__ZN5StateD1Ev
LEHE99:
	jmp	L864
L939:
	movq	%rax, -1200(%rbp)
L865:
	movq	-1200(%rbp), %rbx
	leaq	-592(%rbp), %rdi
	call	__ZN5StateD1Ev
	movq	%rbx, -1200(%rbp)
	jmp	L867
L864:
	leaq	-352(%rbp), %rdi
LEHB100:
	call	__ZN4PawnD1Ev
LEHE100:
	.loc 4 46 0
	leaq	-400(%rbp), %rdi
	call	__ZNSt8multimapI6EValuePK4CitySt4lessIS0_ESaISt4pairIKS0_S3_EEEC1Ev
LBB113:
	.loc 4 47 0
	movl	$0, -20(%rbp)
	jmp	L866
L940:
	movq	%rax, -1200(%rbp)
L867:
	movq	-1200(%rbp), %rbx
LBE113:
	.loc 4 45 0
	leaq	-352(%rbp), %rdi
	call	__ZN4PawnD1Ev
	movq	%rbx, -1200(%rbp)
	movq	-1200(%rbp), %rdi
LEHB101:
	call	__Unwind_Resume
LEHE101:
L868:
LBB114:
	.loc 4 48 0
	movq	-1080(%rbp), %rax
	movq	8(%rax), %rdx
	movl	-20(%rbp), %eax
	cltq
	salq	$3, %rax
	leaq	(%rdx,%rax), %rax
	movq	(%rax), %rax
	movzwl	8(%rax), %eax
	movswq	%ax,%rax
	salq	$3, %rax
	movq	%rax, %rdx
	movq	-80(%rbp), %rax
	leaq	(%rdx,%rax), %rax
	movq	(%rax), %rcx
	movq	-1080(%rbp), %rax
	movq	8(%rax), %rdx
	movl	-20(%rbp), %eax
	cltq
	salq	$3, %rax
	leaq	(%rdx,%rax), %rax
	movq	(%rax), %rax
	movzwl	10(%rax), %eax
	movswq	%ax,%rax
	salq	$2, %rax
	leaq	(%rcx,%rax), %rdi
	movl	$0, %esi
	call	__ZNK6EValuegtEj
	testb	%al, %al
	je	L869
	.loc 4 51 0
	movq	-1080(%rbp), %rax
	movq	8(%rax), %rdx
	movl	-20(%rbp), %eax
	cltq
	salq	$3, %rax
	leaq	(%rdx,%rax), %rcx
	movq	-1080(%rbp), %rax
	movq	8(%rax), %rdx
	movl	-20(%rbp), %eax
	cltq
	salq	$3, %rax
	leaq	(%rdx,%rax), %rax
	movq	(%rax), %rax
	movzwl	8(%rax), %eax
	movswq	%ax,%rax
	salq	$3, %rax
	movq	%rax, %rdx
	movq	-80(%rbp), %rax
	leaq	(%rdx,%rax), %rax
	movq	(%rax), %rsi
	movq	-1080(%rbp), %rax
	movq	8(%rax), %rdx
	movl	-20(%rbp), %eax
	cltq
	salq	$3, %rax
	leaq	(%rdx,%rax), %rax
	movq	(%rax), %rax
	movzwl	10(%rax), %eax
	movswq	%ax,%rax
	salq	$2, %rax
	addq	%rax, %rsi
	leaq	-256(%rbp), %rdi
	movq	%rcx, %rdx
	call	__ZNSt4pairI6EValuePK4CityEC1ERKS0_RKS3_
	leaq	-256(%rbp), %rsi
	leaq	-272(%rbp), %rdi
	call	__ZNSt4pairIK6EValuePK4CityEC1IS0_S4_EERKS_IT_T0_E
	leaq	-272(%rbp), %rsi
	leaq	-400(%rbp), %rdi
LEHB102:
	call	__ZNSt8multimapI6EValuePK4CitySt4lessIS0_ESaISt4pairIKS0_S3_EEE6insertERKS8_
L869:
	.loc 4 47 0
	incl	-20(%rbp)
L866:
	cmpl	$4, -20(%rbp)
	jle	L868
LBE114:
	.loc 4 53 0
	leaq	-400(%rbp), %rdi
	call	__ZNKSt8multimapI6EValuePK4CitySt4lessIS0_ESaISt4pairIKS0_S3_EEE4sizeEv
	cmpl	$1, %eax
	sete	%al
	testb	%al, %al
	je	L872
	.loc 4 55 0
	movq	-1192(%rbp), %rax
	movq	%rax, -1168(%rbp)
	leaq	-400(%rbp), %rdi
	call	__ZNSt8multimapI6EValuePK4CitySt4lessIS0_ESaISt4pairIKS0_S3_EEE5beginEv
	movq	%rax, -96(%rbp)
	leaq	-96(%rbp), %rdi
	call	__ZNKSt17_Rb_tree_iteratorISt4pairIK6EValuePK4CityEEptEv
	movq	8(%rax), %rax
	movq	%rax, -1160(%rbp)
	movq	-1088(%rbp), %rsi
	leaq	-688(%rbp), %rdi
	call	__ZN5StateC1ERKS_
LEHE102:
	leaq	-72(%rbp), %rax
	leaq	-688(%rbp), %rdx
	movq	-1080(%rbp), %rsi
	movl	$1, %r9d
	movq	%rax, %r8
	movq	-1160(%rbp), %rcx
	movq	-1168(%rbp), %rdi
LEHB103:
	call	__ZNK7DavidAI21getMoveFromEvaluationE5StatePK10CoordinateRPP6EValueb
LEHE103:
	leaq	-688(%rbp), %rdi
LEHB104:
	call	__ZN5StateD1Ev
LEHE104:
	jmp	L876
L937:
	movq	%rax, -1200(%rbp)
L875:
	movq	-1200(%rbp), %rbx
	leaq	-688(%rbp), %rdi
	call	__ZN5StateD1Ev
	movq	%rbx, -1200(%rbp)
	jmp	L930
L872:
	.loc 4 57 0
	leaq	-400(%rbp), %rdi
	call	__ZNSt8multimapI6EValuePK4CitySt4lessIS0_ESaISt4pairIKS0_S3_EEE5beginEv
	movq	%rax, -112(%rbp)
	leaq	-112(%rbp), %rdi
	call	__ZNKSt17_Rb_tree_iteratorISt4pairIK6EValuePK4CityEEptEv
	movl	(%rax), %eax
	movl	%eax, -32(%rbp)
	.loc 4 58 0
	leaq	-400(%rbp), %rdi
	call	__ZNSt8multimapI6EValuePK4CitySt4lessIS0_ESaISt4pairIKS0_S3_EEE5beginEv
	movq	%rax, -128(%rbp)
	leaq	-128(%rbp), %rdi
LEHB105:
	call	__ZNSt17_Rb_tree_iteratorISt4pairIK6EValuePK4CityEEppEv
	movq	%rax, %rdi
	call	__ZNKSt17_Rb_tree_iteratorISt4pairIK6EValuePK4CityEEptEv
	movl	(%rax), %eax
	movl	%eax, -48(%rbp)
	.loc 4 59 0
	leaq	-400(%rbp), %rdi
	call	__ZNSt8multimapI6EValuePK4CitySt4lessIS0_ESaISt4pairIKS0_S3_EEE5beginEv
	movq	%rax, -144(%rbp)
	leaq	-144(%rbp), %rdi
	call	__ZNKSt17_Rb_tree_iteratorISt4pairIK6EValuePK4CityEEptEv
	movq	8(%rax), %rax
	movq	%rax, -136(%rbp)
	.loc 4 60 0
	leaq	-400(%rbp), %rdi
	call	__ZNSt8multimapI6EValuePK4CitySt4lessIS0_ESaISt4pairIKS0_S3_EEE5beginEv
	movq	%rax, -160(%rbp)
	leaq	-160(%rbp), %rdi
	call	__ZNSt17_Rb_tree_iteratorISt4pairIK6EValuePK4CityEEppEv
	movq	%rax, %rdi
	call	__ZNKSt17_Rb_tree_iteratorISt4pairIK6EValuePK4CityEEptEv
	movq	8(%rax), %rax
	movq	%rax, -152(%rbp)
	.loc 4 61 0
	leaq	-32(%rbp), %rdi
	movl	$1, %esi
	call	__ZNK6EValueeqEj
	xorl	$1, %eax
	testb	%al, %al
	jne	L877
	leaq	-48(%rbp), %rdi
	movl	$1, %esi
	call	__ZNK6EValueeqEj
	xorl	$1, %eax
	testb	%al, %al
	jne	L877
	movb	$1, -1145(%rbp)
	jmp	L880
L877:
	movb	$0, -1145(%rbp)
L880:
	movzbl	-1145(%rbp), %eax
	testb	%al, %al
	je	L881
LBB115:
	.loc 4 63 0
	movq	-136(%rbp), %rdx
	movq	%rdx, -1144(%rbp)
	movq	-1088(%rbp), %rsi
	leaq	-784(%rbp), %rdi
	call	__ZN5StateC1ERKS_
LEHE105:
	leaq	-80(%rbp), %rcx
	leaq	-784(%rbp), %rsi
	movq	-1080(%rbp), %rdi
	movl	$1, %r9d
	movl	$0, %r8d
	movq	-1144(%rbp), %rdx
LEHB106:
	call	__ZNK7DavidAI21calculateMoveDistanceE5StatePK10CoordinateRPP6EValuePSt6vectorIS3_SaIS3_EEb
	movq	%rax, %rdx
	movq	-136(%rbp), %rsi
	movq	-1080(%rbp), %rax
	movq	40(%rax), %rdi
	call	__ZNK5Board13getConnectionEPK10CoordinateS2_
LEHE106:
	movq	%rax, -168(%rbp)
	leaq	-784(%rbp), %rdi
LEHB107:
	call	__ZN5StateD1Ev
LEHE107:
	jmp	L883
L936:
	movq	%rax, -1200(%rbp)
L884:
	movq	-1200(%rbp), %rbx
	leaq	-784(%rbp), %rdi
	call	__ZN5StateD1Ev
	movq	%rbx, -1200(%rbp)
	jmp	L930
L883:
	.loc 4 66 0
	movq	-152(%rbp), %rax
	movq	%rax, -1136(%rbp)
	movq	-1088(%rbp), %rsi
	leaq	-880(%rbp), %rdi
LEHB108:
	call	__ZN5StateC1ERKS_
LEHE108:
	leaq	-80(%rbp), %rcx
	leaq	-880(%rbp), %rsi
	movq	-1080(%rbp), %rdi
	movl	$1, %r9d
	movl	$0, %r8d
	movq	-1136(%rbp), %rdx
LEHB109:
	call	__ZNK7DavidAI21calculateMoveDistanceE5StatePK10CoordinateRPP6EValuePSt6vectorIS3_SaIS3_EEb
	movq	%rax, %rdx
	movq	-152(%rbp), %rsi
	movq	-1080(%rbp), %rax
	movq	40(%rax), %rdi
	call	__ZNK5Board13getConnectionEPK10CoordinateS2_
LEHE109:
	movq	%rax, -176(%rbp)
	leaq	-880(%rbp), %rdi
LEHB110:
	call	__ZN5StateD1Ev
LEHE110:
	jmp	L885
L935:
	movq	%rax, -1200(%rbp)
L886:
	movq	-1200(%rbp), %rbx
	leaq	-880(%rbp), %rdi
	call	__ZN5StateD1Ev
	movq	%rbx, -1200(%rbp)
	jmp	L930
L885:
	.loc 4 67 0
	movq	-1192(%rbp), %rdi
	movq	-1080(%rbp), %rax
	movl	16(%rax), %esi
	movq	-176(%rbp), %rcx
	movq	-168(%rbp), %rdx
LEHB111:
	call	__ZN4MoveC1E11PLAYERCOLORPK10ConnectionS3_
	jmp	L876
L881:
LBE115:
	.loc 4 69 0
	movq	$0, -288(%rbp)
	movq	$0, -280(%rbp)
LBB116:
	.loc 4 70 0
	movl	$0, -52(%rbp)
	jmp	L887
L888:
LBB117:
	.loc 4 71 0
	movq	$0, -184(%rbp)
	.loc 4 72 0
	cmpl	$0, -52(%rbp)
	jne	L889
	.loc 4 73 0
	movq	-136(%rbp), %rax
	movq	%rax, -184(%rbp)
	jmp	L891
L889:
	.loc 4 74 0
	cmpl	$1, -52(%rbp)
	jne	L891
	.loc 4 75 0
	movq	-152(%rbp), %rax
	movq	%rax, -184(%rbp)
L891:
	.loc 4 76 0
	movq	$0, -192(%rbp)
	movq	-184(%rbp), %rax
	movq	%rax, -200(%rbp)
	.loc 4 77 0
	movq	$0, -208(%rbp)
	movq	$0, -216(%rbp)
	.loc 4 78 0
	jmp	L893
L894:
	.loc 4 79 0
	movq	-200(%rbp), %rax
	movq	%rax, -192(%rbp)
	.loc 4 81 0
	movq	-1088(%rbp), %rsi
	leaq	-976(%rbp), %rdi
	call	__ZN5StateC1ERKS_
LEHE111:
	leaq	-80(%rbp), %rcx
	movq	-192(%rbp), %rdx
	leaq	-976(%rbp), %rsi
	movq	-1080(%rbp), %rdi
	movl	$0, %r9d
	movl	$0, %r8d
LEHB112:
	call	__ZNK7DavidAI21calculateMoveDistanceE5StatePK10CoordinateRPP6EValuePSt6vectorIS3_SaIS3_EEb
LEHE112:
	movq	%rax, -200(%rbp)
	leaq	-976(%rbp), %rdi
LEHB113:
	call	__ZN5StateD1Ev
LEHE113:
	jmp	L895
L934:
	movq	%rax, -1200(%rbp)
L896:
	movq	-1200(%rbp), %rbx
	leaq	-976(%rbp), %rdi
	call	__ZN5StateD1Ev
	movq	%rbx, -1200(%rbp)
	jmp	L930
L895:
	.loc 4 82 0
	movq	-192(%rbp), %rax
	movzwl	8(%rax), %eax
	movswq	%ax,%rax
	salq	$3, %rax
	movq	%rax, %rdx
	movq	-80(%rbp), %rax
	leaq	(%rdx,%rax), %rax
	movq	(%rax), %rdx
	movq	-192(%rbp), %rax
	movzwl	10(%rax), %eax
	movswq	%ax,%rax
	salq	$2, %rax
	leaq	(%rdx,%rax), %rdi
	movl	$2, %esi
	call	__ZNK6EValueleEj
	testb	%al, %al
	je	L893
	.loc 4 83 0
	movq	-200(%rbp), %rax
	movzwl	8(%rax), %eax
	movswq	%ax,%rax
	salq	$3, %rax
	movq	%rax, %rdx
	movq	-80(%rbp), %rax
	leaq	(%rdx,%rax), %rax
	movq	(%rax), %rdx
	movq	-200(%rbp), %rax
	movzwl	10(%rax), %eax
	movswq	%ax,%rax
	salq	$2, %rax
	leaq	(%rdx,%rax), %rsi
	movq	-192(%rbp), %rax
	movzwl	8(%rax), %eax
	movswq	%ax,%rax
	salq	$3, %rax
	movq	%rax, %rdx
	movq	-80(%rbp), %rax
	leaq	(%rdx,%rax), %rax
	movq	(%rax), %rdx
	movq	-192(%rbp), %rax
	movzwl	10(%rax), %eax
	movswq	%ax,%rax
	salq	$2, %rax
	leaq	(%rdx,%rax), %rdi
	call	__ZNK6EValuemiERKS_
	movl	%eax, -64(%rbp)
	leaq	-64(%rbp), %rdi
	movl	$1, %esi
	call	__ZNK6EValuegeEj
	testb	%al, %al
	je	L893
	.loc 4 85 0
	movq	-200(%rbp), %rax
	movzwl	8(%rax), %eax
	movswq	%ax,%rax
	salq	$3, %rax
	movq	%rax, %rdx
	movq	-80(%rbp), %rax
	leaq	(%rdx,%rax), %rax
	movq	(%rax), %rdx
	movq	-200(%rbp), %rax
	movzwl	10(%rax), %eax
	movswq	%ax,%rax
	salq	$2, %rax
	leaq	(%rdx,%rax), %rdi
	movl	$0, %esi
	call	__ZNK6EValueeqEj
	testb	%al, %al
	je	L899
	.loc 4 86 0
	movq	-1080(%rbp), %rax
	movq	40(%rax), %rdi
	movq	-192(%rbp), %rdx
	movq	-200(%rbp), %rsi
LEHB114:
	call	__ZNK5Board13getConnectionEPK10CoordinateS2_
	movq	%rax, -208(%rbp)
	jmp	L893
L899:
	.loc 4 88 0
	movq	-1080(%rbp), %rax
	movq	40(%rax), %rdi
	movq	-192(%rbp), %rdx
	movq	-200(%rbp), %rsi
	call	__ZNK5Board13getConnectionEPK10CoordinateS2_
	movq	%rax, -216(%rbp)
L893:
	.loc 4 78 0
	movq	-200(%rbp), %rax
	movzwl	8(%rax), %eax
	movswq	%ax,%rax
	salq	$3, %rax
	movq	%rax, %rdx
	movq	-80(%rbp), %rax
	leaq	(%rdx,%rax), %rax
	movq	(%rax), %rdx
	movq	-200(%rbp), %rax
	movzwl	10(%rax), %eax
	movswq	%ax,%rax
	salq	$2, %rax
	leaq	(%rdx,%rax), %rdi
	movl	$0, %esi
	call	__ZNK6EValuegtEj
	testb	%al, %al
	jne	L894
	.loc 4 92 0
	movl	-52(%rbp), %edx
	movl	%edx, -1124(%rbp)
	movl	$48, %edi
	call	__Znwm
LEHE114:
	movq	%rax, -1120(%rbp)
	movq	-1080(%rbp), %rax
	movl	16(%rax), %esi
	movq	-216(%rbp), %rcx
	movq	-208(%rbp), %rdx
	movq	-1120(%rbp), %rdi
LEHB115:
	call	__ZN4MoveC1E11PLAYERCOLORPK10ConnectionS3_
LEHE115:
	movslq	-1124(%rbp),%rax
	movq	-1120(%rbp), %rdx
	movq	%rdx, -288(%rbp,%rax,8)
	.loc 4 93 0
	movq	-1080(%rbp), %rax
	movl	16(%rax), %eax
	movl	%eax, -1112(%rbp)
	movq	-1088(%rbp), %rsi
	leaq	-1072(%rbp), %rdi
LEHB116:
	call	__ZN5StateC1ERKS_
LEHE116:
	jmp	L902
L933:
	movq	%rax, -1200(%rbp)
L903:
	movq	-1200(%rbp), %rbx
	.loc 4 92 0
	movq	-1120(%rbp), %rdi
	call	__ZdlPv
	movq	%rbx, -1200(%rbp)
	jmp	L930
L902:
	.loc 4 93 0
	movl	-52(%rbp), %eax
	cltq
	movq	-288(%rbp,%rax,8), %rdi
	leaq	-1072(%rbp), %rsi
	movl	-1112(%rbp), %edx
LEHB117:
	call	__ZN4Move5validE5State11PLAYERCOLOR
	xorl	$1, %eax
	movzbl	%al, %eax
	testq	%rax, %rax
	je	L904
	leaq	LC5(%rip), %rcx
	movl	$93, %edx
	leaq	LC4(%rip), %rsi
	leaq	__ZZN7DavidAI6doMoveE5StateSt6vectorIP4MoveSaIS3_EEE8__func__(%rip), %rdi
	call	___assert_rtn
LEHE117:
L904:
	leaq	-1072(%rbp), %rdi
LEHB118:
	call	__ZN5StateD1Ev
LEHE118:
	jmp	L906
L932:
	movq	%rax, -1200(%rbp)
L907:
	movq	-1200(%rbp), %rbx
	leaq	-1072(%rbp), %rdi
	call	__ZN5StateD1Ev
	movq	%rbx, -1200(%rbp)
	jmp	L930
L906:
LBE117:
	.loc 4 70 0
	incl	-52(%rbp)
L887:
	cmpq	$0, -152(%rbp)
	je	L908
	movl	$2, -1128(%rbp)
	jmp	L910
L908:
	movl	$1, -1128(%rbp)
L910:
	movl	-1128(%rbp), %eax
	cmpl	-52(%rbp), %eax
	jg	L888
LBE116:
	.loc 4 95 0
	movq	$0, -224(%rbp)
	movq	$0, -232(%rbp)
	.loc 4 96 0
	movq	-288(%rbp), %rdi
LEHB119:
	call	__ZNK4Move15getSumRailValueEv
	cmpw	$2, %ax
	je	L912
	cmpq	$0, -152(%rbp)
	jne	L914
L912:
	movb	$1, -1106(%rbp)
	jmp	L915
L914:
	movb	$0, -1106(%rbp)
L915:
	movzbl	-1106(%rbp), %eax
	testb	%al, %al
	je	L916
	.loc 4 97 0
	movq	-288(%rbp), %rdi
	call	__ZNK4Move9getBelegtEv
	movq	(%rax), %rax
	movq	%rax, -224(%rbp)
	.loc 4 98 0
	movq	-288(%rbp), %rdi
	call	__ZNK4Move9getBelegtEv
	addq	$8, %rax
	movq	(%rax), %rax
	movq	%rax, -232(%rbp)
	jmp	L918
L916:
	.loc 4 99 0
	movq	-280(%rbp), %rdi
	call	__ZNK4Move9getBelegtEv
	movq	(%rax), %rax
	movzbl	28(%rax), %eax
	xorl	$1, %eax
	xorl	$1, %eax
	testb	%al, %al
	jne	L919
	movq	-288(%rbp), %rdi
	call	__ZNK4Move9getBelegtEv
	movq	(%rax), %rax
	movq	%rax, -1104(%rbp)
	movq	-280(%rbp), %rdi
	call	__ZNK4Move9getBelegtEv
	movq	(%rax), %rax
	cmpq	%rax, -1104(%rbp)
	je	L919
	movb	$1, -1105(%rbp)
	jmp	L922
L919:
	movb	$0, -1105(%rbp)
L922:
	movzbl	-1105(%rbp), %eax
	testb	%al, %al
	je	L923
	.loc 4 101 0
	movq	-288(%rbp), %rdi
	call	__ZNK4Move9getBelegtEv
	movq	(%rax), %rax
	movq	%rax, -224(%rbp)
	.loc 4 102 0
	movq	-280(%rbp), %rdi
	call	__ZNK4Move9getBelegtEv
	movq	(%rax), %rax
	movq	%rax, -232(%rbp)
	jmp	L918
L923:
	.loc 4 104 0
	movq	-280(%rbp), %rdi
	call	__ZNK4Move9getBelegtEv
	movq	(%rax), %rax
	movq	%rax, -224(%rbp)
	.loc 4 105 0
	movq	-280(%rbp), %rdi
	call	__ZNK4Move9getBelegtEv
	addq	$8, %rax
	movq	(%rax), %rax
	movq	%rax, -232(%rbp)
L918:
	.loc 4 108 0
	movq	-288(%rbp), %rax
	testq	%rax, %rax
	je	L925
	movq	-288(%rbp), %rax
	movq	(%rax), %rax
	addq	$8, %rax
	movq	(%rax), %rax
	movq	-288(%rbp), %rdi
	call	*%rax
L925:
	.loc 4 109 0
	movq	-280(%rbp), %rax
	testq	%rax, %rax
	je	L927
	.loc 4 110 0
	movq	-280(%rbp), %rax
	testq	%rax, %rax
	je	L927
	movq	-280(%rbp), %rax
	movq	(%rax), %rax
	addq	$8, %rax
	movq	(%rax), %rax
	movq	-280(%rbp), %rdi
	call	*%rax
L927:
	.loc 4 111 0
	movq	-1192(%rbp), %rdi
	movq	-1080(%rbp), %rax
	movl	16(%rax), %esi
	movq	-232(%rbp), %rcx
	movq	-224(%rbp), %rdx
	call	__ZN4MoveC1E11PLAYERCOLORPK10ConnectionS3_
LEHE119:
	jmp	L876
L938:
	movq	%rax, -1200(%rbp)
L930:
	movq	-1200(%rbp), %rbx
	leaq	-400(%rbp), %rdi
	call	__ZNSt8multimapI6EValuePK4CitySt4lessIS0_ESaISt4pairIKS0_S3_EEED1Ev
	movq	%rbx, -1200(%rbp)
	movq	-1200(%rbp), %rdi
LEHB120:
	call	__Unwind_Resume
L876:
	leaq	-400(%rbp), %rdi
	call	__ZNSt8multimapI6EValuePK4CitySt4lessIS0_ESaISt4pairIKS0_S3_EEED1Ev
LEHE120:
LBE112:
	.loc 4 112 0
	movq	-1192(%rbp), %rax
	addq	$1192, %rsp
	popq	%rbx
	leave
	ret
LFE2058:
	.section __TEXT,__gcc_except_tab
GCC_except_table10:
LLSDA2058:
	.byte	0xff
	.byte	0xff
	.byte	0x3
	.byte	0x93,0x3
	.set L$set$246,LEHB90-LFB2058
	.long L$set$246
	.set L$set$247,LEHE90-LEHB90
	.long L$set$247
	.long	0x0
	.byte	0x0
	.set L$set$248,LEHB91-LFB2058
	.long L$set$248
	.set L$set$249,LEHE91-LEHB91
	.long L$set$249
	.set L$set$250,L942-LFB2058
	.long L$set$250
	.byte	0x0
	.set L$set$251,LEHB92-LFB2058
	.long L$set$251
	.set L$set$252,LEHE92-LEHB92
	.long L$set$252
	.set L$set$253,L941-LFB2058
	.long L$set$253
	.byte	0x0
	.set L$set$254,LEHB93-LFB2058
	.long L$set$254
	.set L$set$255,LEHE93-LEHB93
	.long L$set$255
	.set L$set$256,L942-LFB2058
	.long L$set$256
	.byte	0x0
	.set L$set$257,LEHB94-LFB2058
	.long L$set$257
	.set L$set$258,LEHE94-LEHB94
	.long L$set$258
	.long	0x0
	.byte	0x0
	.set L$set$259,LEHB95-LFB2058
	.long L$set$259
	.set L$set$260,LEHE95-LEHB95
	.long L$set$260
	.set L$set$261,L940-LFB2058
	.long L$set$261
	.byte	0x0
	.set L$set$262,LEHB96-LFB2058
	.long L$set$262
	.set L$set$263,LEHE96-LEHB96
	.long L$set$263
	.long	0x0
	.byte	0x0
	.set L$set$264,LEHB97-LFB2058
	.long L$set$264
	.set L$set$265,LEHE97-LEHB97
	.long L$set$265
	.set L$set$266,L940-LFB2058
	.long L$set$266
	.byte	0x0
	.set L$set$267,LEHB98-LFB2058
	.long L$set$267
	.set L$set$268,LEHE98-LEHB98
	.long L$set$268
	.set L$set$269,L939-LFB2058
	.long L$set$269
	.byte	0x0
	.set L$set$270,LEHB99-LFB2058
	.long L$set$270
	.set L$set$271,LEHE99-LEHB99
	.long L$set$271
	.set L$set$272,L940-LFB2058
	.long L$set$272
	.byte	0x0
	.set L$set$273,LEHB100-LFB2058
	.long L$set$273
	.set L$set$274,LEHE100-LEHB100
	.long L$set$274
	.long	0x0
	.byte	0x0
	.set L$set$275,LEHB101-LFB2058
	.long L$set$275
	.set L$set$276,LEHE101-LEHB101
	.long L$set$276
	.long	0x0
	.byte	0x0
	.set L$set$277,LEHB102-LFB2058
	.long L$set$277
	.set L$set$278,LEHE102-LEHB102
	.long L$set$278
	.set L$set$279,L938-LFB2058
	.long L$set$279
	.byte	0x0
	.set L$set$280,LEHB103-LFB2058
	.long L$set$280
	.set L$set$281,LEHE103-LEHB103
	.long L$set$281
	.set L$set$282,L937-LFB2058
	.long L$set$282
	.byte	0x0
	.set L$set$283,LEHB104-LFB2058
	.long L$set$283
	.set L$set$284,LEHE104-LEHB104
	.long L$set$284
	.set L$set$285,L938-LFB2058
	.long L$set$285
	.byte	0x0
	.set L$set$286,LEHB105-LFB2058
	.long L$set$286
	.set L$set$287,LEHE105-LEHB105
	.long L$set$287
	.set L$set$288,L938-LFB2058
	.long L$set$288
	.byte	0x0
	.set L$set$289,LEHB106-LFB2058
	.long L$set$289
	.set L$set$290,LEHE106-LEHB106
	.long L$set$290
	.set L$set$291,L936-LFB2058
	.long L$set$291
	.byte	0x0
	.set L$set$292,LEHB107-LFB2058
	.long L$set$292
	.set L$set$293,LEHE107-LEHB107
	.long L$set$293
	.set L$set$294,L938-LFB2058
	.long L$set$294
	.byte	0x0
	.set L$set$295,LEHB108-LFB2058
	.long L$set$295
	.set L$set$296,LEHE108-LEHB108
	.long L$set$296
	.set L$set$297,L938-LFB2058
	.long L$set$297
	.byte	0x0
	.set L$set$298,LEHB109-LFB2058
	.long L$set$298
	.set L$set$299,LEHE109-LEHB109
	.long L$set$299
	.set L$set$300,L935-LFB2058
	.long L$set$300
	.byte	0x0
	.set L$set$301,LEHB110-LFB2058
	.long L$set$301
	.set L$set$302,LEHE110-LEHB110
	.long L$set$302
	.set L$set$303,L938-LFB2058
	.long L$set$303
	.byte	0x0
	.set L$set$304,LEHB111-LFB2058
	.long L$set$304
	.set L$set$305,LEHE111-LEHB111
	.long L$set$305
	.set L$set$306,L938-LFB2058
	.long L$set$306
	.byte	0x0
	.set L$set$307,LEHB112-LFB2058
	.long L$set$307
	.set L$set$308,LEHE112-LEHB112
	.long L$set$308
	.set L$set$309,L934-LFB2058
	.long L$set$309
	.byte	0x0
	.set L$set$310,LEHB113-LFB2058
	.long L$set$310
	.set L$set$311,LEHE113-LEHB113
	.long L$set$311
	.set L$set$312,L938-LFB2058
	.long L$set$312
	.byte	0x0
	.set L$set$313,LEHB114-LFB2058
	.long L$set$313
	.set L$set$314,LEHE114-LEHB114
	.long L$set$314
	.set L$set$315,L938-LFB2058
	.long L$set$315
	.byte	0x0
	.set L$set$316,LEHB115-LFB2058
	.long L$set$316
	.set L$set$317,LEHE115-LEHB115
	.long L$set$317
	.set L$set$318,L933-LFB2058
	.long L$set$318
	.byte	0x0
	.set L$set$319,LEHB116-LFB2058
	.long L$set$319
	.set L$set$320,LEHE116-LEHB116
	.long L$set$320
	.set L$set$321,L938-LFB2058
	.long L$set$321
	.byte	0x0
	.set L$set$322,LEHB117-LFB2058
	.long L$set$322
	.set L$set$323,LEHE117-LEHB117
	.long L$set$323
	.set L$set$324,L932-LFB2058
	.long L$set$324
	.byte	0x0
	.set L$set$325,LEHB118-LFB2058
	.long L$set$325
	.set L$set$326,LEHE118-LEHB118
	.long L$set$326
	.set L$set$327,L938-LFB2058
	.long L$set$327
	.byte	0x0
	.set L$set$328,LEHB119-LFB2058
	.long L$set$328
	.set L$set$329,LEHE119-LEHB119
	.long L$set$329
	.set L$set$330,L938-LFB2058
	.long L$set$330
	.byte	0x0
	.set L$set$331,LEHB120-LFB2058
	.long L$set$331
	.set L$set$332,LEHE120-LEHB120
	.long L$set$332
	.long	0x0
	.byte	0x0
	.text
	.align 1,0x90
.globl __ZN7DavidAID0Ev
__ZN7DavidAID0Ev:
LFB2057:
	.loc 4 38 0
	pushq	%rbp
LCFI731:
	movq	%rsp, %rbp
LCFI732:
	subq	$16, %rsp
LCFI733:
	movq	%rdi, -8(%rbp)
	.loc 4 38 0
	leaq	16+__ZTV7DavidAI(%rip), %rdx
	movq	-8(%rbp), %rax
	movq	%rdx, (%rax)
	.loc 4 39 0
	movq	-8(%rbp), %rdi
	call	__ZN2AID2Ev
	movl	$1, %eax
	testb	%al, %al
	je	L947
	movq	-8(%rbp), %rdi
	call	__ZdlPv
L947:
	leave
	ret
LFE2057:
	.align 1,0x90
.globl __ZN7DavidAID1Ev
__ZN7DavidAID1Ev:
LFB2056:
	.loc 4 38 0
	pushq	%rbp
LCFI734:
	movq	%rsp, %rbp
LCFI735:
	subq	$16, %rsp
LCFI736:
	movq	%rdi, -8(%rbp)
	.loc 4 38 0
	leaq	16+__ZTV7DavidAI(%rip), %rdx
	movq	-8(%rbp), %rax
	movq	%rdx, (%rax)
	.loc 4 39 0
	movq	-8(%rbp), %rdi
	call	__ZN2AID2Ev
	movl	$0, %eax
	testb	%al, %al
	je	L952
	movq	-8(%rbp), %rdi
	call	__ZdlPv
L952:
	leave
	ret
LFE2056:
	.align 1,0x90
.globl __ZN7DavidAID2Ev
__ZN7DavidAID2Ev:
LFB2055:
	.loc 4 38 0
	pushq	%rbp
LCFI737:
	movq	%rsp, %rbp
LCFI738:
	subq	$16, %rsp
LCFI739:
	movq	%rdi, -8(%rbp)
	.loc 4 38 0
	leaq	16+__ZTV7DavidAI(%rip), %rdx
	movq	-8(%rbp), %rax
	movq	%rdx, (%rax)
	.loc 4 39 0
	movq	-8(%rbp), %rdi
	call	__ZN2AID2Ev
	movl	$0, %eax
	testb	%al, %al
	je	L957
	movq	-8(%rbp), %rdi
	call	__ZdlPv
L957:
	leave
	ret
LFE2055:
	.cstring
LC6:
	.ascii "David\0"
LC7:
	.ascii "DavidAI\0"
	.text
	.align 1,0x90
.globl __ZN7DavidAIC1E11PLAYERCOLOR
__ZN7DavidAIC1E11PLAYERCOLOR:
LFB2053:
	.loc 4 31 0
	pushq	%rbp
LCFI740:
	movq	%rsp, %rbp
LCFI741:
	pushq	%rbx
LCFI742:
	subq	$40, %rsp
LCFI743:
	movq	%rdi, -24(%rbp)
	movl	%esi, -28(%rbp)
LBB118:
	.loc 4 32 0
	movq	-24(%rbp), %rdi
	movl	-28(%rbp), %esi
LEHB121:
	call	__ZN2AIC2E11PLAYERCOLOR
LEHE121:
	leaq	16+__ZTV7DavidAI(%rip), %rdx
	movq	-24(%rbp), %rax
	movq	%rdx, (%rax)
	.loc 4 33 0
	movq	-24(%rbp), %rdi
	addq	$24, %rdi
	leaq	LC6(%rip), %rsi
LEHB122:
	call	__ZNSsaSEPKc
	.loc 4 34 0
	movq	-24(%rbp), %rdi
	addq	$32, %rdi
	leaq	LC7(%rip), %rsi
	call	__ZNSsaSEPKc
LEHE122:
	.loc 4 35 0
	movq	-24(%rbp), %rax
	movq	$0, 40(%rax)
	.loc 4 36 0
	jmp	L960
L961:
	movq	%rax, -40(%rbp)
L959:
	movq	-40(%rbp), %rbx
	movq	-24(%rbp), %rdi
	call	__ZN2AID2Ev
	movq	%rbx, -40(%rbp)
	movq	-40(%rbp), %rdi
LEHB123:
	call	__Unwind_Resume
LEHE123:
L960:
LBE118:
	addq	$40, %rsp
	popq	%rbx
	leave
	ret
LFE2053:
	.section __TEXT,__gcc_except_tab
GCC_except_table11:
LLSDA2053:
	.byte	0xff
	.byte	0xff
	.byte	0x3
	.byte	0x27
	.set L$set$333,LEHB121-LFB2053
	.long L$set$333
	.set L$set$334,LEHE121-LEHB121
	.long L$set$334
	.long	0x0
	.byte	0x0
	.set L$set$335,LEHB122-LFB2053
	.long L$set$335
	.set L$set$336,LEHE122-LEHB122
	.long L$set$336
	.set L$set$337,L961-LFB2053
	.long L$set$337
	.byte	0x0
	.set L$set$338,LEHB123-LFB2053
	.long L$set$338
	.set L$set$339,LEHE123-LEHB123
	.long L$set$339
	.long	0x0
	.byte	0x0
	.text
	.align 1,0x90
.globl __ZN7DavidAIC2E11PLAYERCOLOR
__ZN7DavidAIC2E11PLAYERCOLOR:
LFB2052:
	.loc 4 31 0
	pushq	%rbp
LCFI744:
	movq	%rsp, %rbp
LCFI745:
	pushq	%rbx
LCFI746:
	subq	$40, %rsp
LCFI747:
	movq	%rdi, -24(%rbp)
	movl	%esi, -28(%rbp)
LBB119:
	.loc 4 32 0
	movq	-24(%rbp), %rdi
	movl	-28(%rbp), %esi
LEHB124:
	call	__ZN2AIC2E11PLAYERCOLOR
LEHE124:
	leaq	16+__ZTV7DavidAI(%rip), %rdx
	movq	-24(%rbp), %rax
	movq	%rdx, (%rax)
	.loc 4 33 0
	movq	-24(%rbp), %rdi
	addq	$24, %rdi
	leaq	LC6(%rip), %rsi
LEHB125:
	call	__ZNSsaSEPKc
	.loc 4 34 0
	movq	-24(%rbp), %rdi
	addq	$32, %rdi
	leaq	LC7(%rip), %rsi
	call	__ZNSsaSEPKc
LEHE125:
	.loc 4 35 0
	movq	-24(%rbp), %rax
	movq	$0, 40(%rax)
	.loc 4 36 0
	jmp	L964
L965:
	movq	%rax, -40(%rbp)
L963:
	movq	-40(%rbp), %rbx
	movq	-24(%rbp), %rdi
	call	__ZN2AID2Ev
	movq	%rbx, -40(%rbp)
	movq	-40(%rbp), %rdi
LEHB126:
	call	__Unwind_Resume
LEHE126:
L964:
LBE119:
	addq	$40, %rsp
	popq	%rbx
	leave
	ret
LFE2052:
	.section __TEXT,__gcc_except_tab
GCC_except_table12:
LLSDA2052:
	.byte	0xff
	.byte	0xff
	.byte	0x3
	.byte	0x27
	.set L$set$340,LEHB124-LFB2052
	.long L$set$340
	.set L$set$341,LEHE124-LEHB124
	.long L$set$341
	.long	0x0
	.byte	0x0
	.set L$set$342,LEHB125-LFB2052
	.long L$set$342
	.set L$set$343,LEHE125-LEHB125
	.long L$set$343
	.set L$set$344,L965-LFB2052
	.long L$set$344
	.byte	0x0
	.set L$set$345,LEHB126-LFB2052
	.long L$set$345
	.set L$set$346,LEHE126-LEHB126
	.long L$set$346
	.long	0x0
	.byte	0x0
	.text
.globl __ZTV7DavidAI
	.const_data
	.align 5
__ZTV7DavidAI:
	.quad	0
	.quad	__ZTI7DavidAI
	.quad	__ZN7DavidAI6doMoveE5StateSt6vectorIP4MoveSaIS3_EE
	.quad	__ZN7DavidAI7setPawnE5State
	.quad	__ZN7DavidAI11countPointsE5StateRSt6vectorIPK10ConnectionSaIS4_EE
	.quad	__ZN7DavidAI27gatherInformationEndOfRoundEPK11RoundLogger
	.quad	__ZN7DavidAID1Ev
	.quad	__ZN7DavidAID0Ev
.globl __ZTS7DavidAI
	.cstring
__ZTS7DavidAI:
	.ascii "7DavidAI\0"
.globl __ZTI7DavidAI
	.const_data
	.align 4
__ZTI7DavidAI:
	.quad	__ZTVN10__cxxabiv120__si_class_type_infoE+16
	.quad	__ZTS7DavidAI
	.quad	__ZTI2AI
.lcomm __ZStL8__ioinit,1,0
.lcomm __ZL9BOARDNAME,8,3
	.cstring
__ZZNK7DavidAI21getMoveFromEvaluationE5StatePK10CoordinateRPP6EValuebE8__func__:
	.ascii "getMoveFromEvaluation\0"
__ZZN7DavidAI6doMoveE5StateSt6vectorIP4MoveSaIS3_EEE8__func__:
	.ascii "doMove\0"
	.section __DWARF,__debug_frame,regular,debug
Lframe0:
	.set L$set$347,LECIE0-LSCIE0
	.long L$set$347
LSCIE0:
	.long	0xffffffff
	.byte	0x1
	.ascii "\0"
	.byte	0x1
	.byte	0x78
	.byte	0x10
	.byte	0xc
	.byte	0x7
	.byte	0x8
	.byte	0x90
	.byte	0x1
	.align 3
LECIE0:
LSFDE0:
	.set L$set$348,LEFDE0-LASFDE0
	.long L$set$348
LASFDE0:
	.set L$set$349,Lframe0-Lsection__debug_frame
	.long L$set$349
	.quad	LFB243
	.set L$set$350,LFE243-LFB243
	.quad L$set$350
	.byte	0x4
	.set L$set$351,LCFI0-LFB243
	.long L$set$351
	.byte	0xe
	.byte	0x10
	.byte	0x86
	.byte	0x2
	.byte	0x4
	.set L$set$352,LCFI1-LCFI0
	.long L$set$352
	.byte	0xd
	.byte	0x6
	.align 3
LEFDE0:
LSFDE2:
	.set L$set$353,LEFDE2-LASFDE2
	.long L$set$353
LASFDE2:
	.set L$set$354,Lframe0-Lsection__debug_frame
	.long L$set$354
	.quad	LFB565
	.set L$set$355,LFE565-LFB565
	.quad L$set$355
	.byte	0x4
	.set L$set$356,LCFI2-LFB565
	.long L$set$356
	.byte	0xe
	.byte	0x10
	.byte	0x86
	.byte	0x2
	.byte	0x4
	.set L$set$357,LCFI3-LCFI2
	.long L$set$357
	.byte	0xd
	.byte	0x6
	.align 3
LEFDE2:
LSFDE4:
	.set L$set$358,LEFDE4-LASFDE4
	.long L$set$358
LASFDE4:
	.set L$set$359,Lframe0-Lsection__debug_frame
	.long L$set$359
	.quad	LFB1942
	.set L$set$360,LFE1942-LFB1942
	.quad L$set$360
	.byte	0x4
	.set L$set$361,LCFI4-LFB1942
	.long L$set$361
	.byte	0xe
	.byte	0x10
	.byte	0x86
	.byte	0x2
	.byte	0x4
	.set L$set$362,LCFI5-LCFI4
	.long L$set$362
	.byte	0xd
	.byte	0x6
	.align 3
LEFDE4:
LSFDE6:
	.set L$set$363,LEFDE6-LASFDE6
	.long L$set$363
LASFDE6:
	.set L$set$364,Lframe0-Lsection__debug_frame
	.long L$set$364
	.quad	LFB1943
	.set L$set$365,LFE1943-LFB1943
	.quad L$set$365
	.byte	0x4
	.set L$set$366,LCFI7-LFB1943
	.long L$set$366
	.byte	0xe
	.byte	0x10
	.byte	0x86
	.byte	0x2
	.byte	0x4
	.set L$set$367,LCFI8-LCFI7
	.long L$set$367
	.byte	0xd
	.byte	0x6
	.align 3
LEFDE6:
LSFDE8:
	.set L$set$368,LEFDE8-LASFDE8
	.long L$set$368
LASFDE8:
	.set L$set$369,Lframe0-Lsection__debug_frame
	.long L$set$369
	.quad	LFB1944
	.set L$set$370,LFE1944-LFB1944
	.quad L$set$370
	.byte	0x4
	.set L$set$371,LCFI9-LFB1944
	.long L$set$371
	.byte	0xe
	.byte	0x10
	.byte	0x86
	.byte	0x2
	.byte	0x4
	.set L$set$372,LCFI10-LCFI9
	.long L$set$372
	.byte	0xd
	.byte	0x6
	.align 3
LEFDE8:
LSFDE10:
	.set L$set$373,LEFDE10-LASFDE10
	.long L$set$373
LASFDE10:
	.set L$set$374,Lframe0-Lsection__debug_frame
	.long L$set$374
	.quad	LFB1945
	.set L$set$375,LFE1945-LFB1945
	.quad L$set$375
	.byte	0x4
	.set L$set$376,LCFI11-LFB1945
	.long L$set$376
	.byte	0xe
	.byte	0x10
	.byte	0x86
	.byte	0x2
	.byte	0x4
	.set L$set$377,LCFI12-LCFI11
	.long L$set$377
	.byte	0xd
	.byte	0x6
	.align 3
LEFDE10:
LSFDE12:
	.set L$set$378,LEFDE12-LASFDE12
	.long L$set$378
LASFDE12:
	.set L$set$379,Lframe0-Lsection__debug_frame
	.long L$set$379
	.quad	LFB1946
	.set L$set$380,LFE1946-LFB1946
	.quad L$set$380
	.byte	0x4
	.set L$set$381,LCFI13-LFB1946
	.long L$set$381
	.byte	0xe
	.byte	0x10
	.byte	0x86
	.byte	0x2
	.byte	0x4
	.set L$set$382,LCFI14-LCFI13
	.long L$set$382
	.byte	0xd
	.byte	0x6
	.align 3
LEFDE12:
LSFDE14:
	.set L$set$383,LEFDE14-LASFDE14
	.long L$set$383
LASFDE14:
	.set L$set$384,Lframe0-Lsection__debug_frame
	.long L$set$384
	.quad	LFB1947
	.set L$set$385,LFE1947-LFB1947
	.quad L$set$385
	.byte	0x4
	.set L$set$386,LCFI15-LFB1947
	.long L$set$386
	.byte	0xe
	.byte	0x10
	.byte	0x86
	.byte	0x2
	.byte	0x4
	.set L$set$387,LCFI16-LCFI15
	.long L$set$387
	.byte	0xd
	.byte	0x6
	.align 3
LEFDE14:
LSFDE16:
	.set L$set$388,LEFDE16-LASFDE16
	.long L$set$388
LASFDE16:
	.set L$set$389,Lframe0-Lsection__debug_frame
	.long L$set$389
	.quad	LFB1948
	.set L$set$390,LFE1948-LFB1948
	.quad L$set$390
	.byte	0x4
	.set L$set$391,LCFI17-LFB1948
	.long L$set$391
	.byte	0xe
	.byte	0x10
	.byte	0x86
	.byte	0x2
	.byte	0x4
	.set L$set$392,LCFI18-LCFI17
	.long L$set$392
	.byte	0xd
	.byte	0x6
	.align 3
LEFDE16:
LSFDE18:
	.set L$set$393,LEFDE18-LASFDE18
	.long L$set$393
LASFDE18:
	.set L$set$394,Lframe0-Lsection__debug_frame
	.long L$set$394
	.quad	LFB1949
	.set L$set$395,LFE1949-LFB1949
	.quad L$set$395
	.byte	0x4
	.set L$set$396,LCFI20-LFB1949
	.long L$set$396
	.byte	0xe
	.byte	0x10
	.byte	0x86
	.byte	0x2
	.byte	0x4
	.set L$set$397,LCFI21-LCFI20
	.long L$set$397
	.byte	0xd
	.byte	0x6
	.align 3
LEFDE18:
LSFDE20:
	.set L$set$398,LEFDE20-LASFDE20
	.long L$set$398
LASFDE20:
	.set L$set$399,Lframe0-Lsection__debug_frame
	.long L$set$399
	.quad	LFB1950
	.set L$set$400,LFE1950-LFB1950
	.quad L$set$400
	.byte	0x4
	.set L$set$401,LCFI22-LFB1950
	.long L$set$401
	.byte	0xe
	.byte	0x10
	.byte	0x86
	.byte	0x2
	.byte	0x4
	.set L$set$402,LCFI23-LCFI22
	.long L$set$402
	.byte	0xd
	.byte	0x6
	.align 3
LEFDE20:
LSFDE22:
	.set L$set$403,LEFDE22-LASFDE22
	.long L$set$403
LASFDE22:
	.set L$set$404,Lframe0-Lsection__debug_frame
	.long L$set$404
	.quad	LFB1951
	.set L$set$405,LFE1951-LFB1951
	.quad L$set$405
	.byte	0x4
	.set L$set$406,LCFI24-LFB1951
	.long L$set$406
	.byte	0xe
	.byte	0x10
	.byte	0x86
	.byte	0x2
	.byte	0x4
	.set L$set$407,LCFI25-LCFI24
	.long L$set$407
	.byte	0xd
	.byte	0x6
	.align 3
LEFDE22:
LSFDE24:
	.set L$set$408,LEFDE24-LASFDE24
	.long L$set$408
LASFDE24:
	.set L$set$409,Lframe0-Lsection__debug_frame
	.long L$set$409
	.quad	LFB1952
	.set L$set$410,LFE1952-LFB1952
	.quad L$set$410
	.byte	0x4
	.set L$set$411,LCFI27-LFB1952
	.long L$set$411
	.byte	0xe
	.byte	0x10
	.byte	0x86
	.byte	0x2
	.byte	0x4
	.set L$set$412,LCFI28-LCFI27
	.long L$set$412
	.byte	0xd
	.byte	0x6
	.align 3
LEFDE24:
LSFDE26:
	.set L$set$413,LEFDE26-LASFDE26
	.long L$set$413
LASFDE26:
	.set L$set$414,Lframe0-Lsection__debug_frame
	.long L$set$414
	.quad	LFB1953
	.set L$set$415,LFE1953-LFB1953
	.quad L$set$415
	.byte	0x4
	.set L$set$416,LCFI30-LFB1953
	.long L$set$416
	.byte	0xe
	.byte	0x10
	.byte	0x86
	.byte	0x2
	.byte	0x4
	.set L$set$417,LCFI31-LCFI30
	.long L$set$417
	.byte	0xd
	.byte	0x6
	.align 3
LEFDE26:
LSFDE28:
	.set L$set$418,LEFDE28-LASFDE28
	.long L$set$418
LASFDE28:
	.set L$set$419,Lframe0-Lsection__debug_frame
	.long L$set$419
	.quad	LFB1954
	.set L$set$420,LFE1954-LFB1954
	.quad L$set$420
	.byte	0x4
	.set L$set$421,LCFI32-LFB1954
	.long L$set$421
	.byte	0xe
	.byte	0x10
	.byte	0x86
	.byte	0x2
	.byte	0x4
	.set L$set$422,LCFI33-LCFI32
	.long L$set$422
	.byte	0xd
	.byte	0x6
	.align 3
LEFDE28:
LSFDE30:
	.set L$set$423,LEFDE30-LASFDE30
	.long L$set$423
LASFDE30:
	.set L$set$424,Lframe0-Lsection__debug_frame
	.long L$set$424
	.quad	LFB1955
	.set L$set$425,LFE1955-LFB1955
	.quad L$set$425
	.byte	0x4
	.set L$set$426,LCFI34-LFB1955
	.long L$set$426
	.byte	0xe
	.byte	0x10
	.byte	0x86
	.byte	0x2
	.byte	0x4
	.set L$set$427,LCFI35-LCFI34
	.long L$set$427
	.byte	0xd
	.byte	0x6
	.align 3
LEFDE30:
LSFDE32:
	.set L$set$428,LEFDE32-LASFDE32
	.long L$set$428
LASFDE32:
	.set L$set$429,Lframe0-Lsection__debug_frame
	.long L$set$429
	.quad	LFB2064
	.set L$set$430,LFE2064-LFB2064
	.quad L$set$430
	.byte	0x4
	.set L$set$431,LCFI37-LFB2064
	.long L$set$431
	.byte	0xe
	.byte	0x10
	.byte	0x86
	.byte	0x2
	.byte	0x4
	.set L$set$432,LCFI38-LCFI37
	.long L$set$432
	.byte	0xd
	.byte	0x6
	.align 3
LEFDE32:
LSFDE34:
	.set L$set$433,LEFDE34-LASFDE34
	.long L$set$433
LASFDE34:
	.set L$set$434,Lframe0-Lsection__debug_frame
	.long L$set$434
	.quad	LFB2066
	.set L$set$435,LFE2066-LFB2066
	.quad L$set$435
	.byte	0x4
	.set L$set$436,LCFI39-LFB2066
	.long L$set$436
	.byte	0xe
	.byte	0x10
	.byte	0x86
	.byte	0x2
	.byte	0x4
	.set L$set$437,LCFI40-LCFI39
	.long L$set$437
	.byte	0xd
	.byte	0x6
	.align 3
LEFDE34:
LSFDE36:
	.set L$set$438,LEFDE36-LASFDE36
	.long L$set$438
LASFDE36:
	.set L$set$439,Lframe0-Lsection__debug_frame
	.long L$set$439
	.quad	LFB2071
	.set L$set$440,LFE2071-LFB2071
	.quad L$set$440
	.byte	0x4
	.set L$set$441,LCFI41-LFB2071
	.long L$set$441
	.byte	0xe
	.byte	0x10
	.byte	0x86
	.byte	0x2
	.byte	0x4
	.set L$set$442,LCFI42-LCFI41
	.long L$set$442
	.byte	0xd
	.byte	0x6
	.align 3
LEFDE36:
LSFDE38:
	.set L$set$443,LEFDE38-LASFDE38
	.long L$set$443
LASFDE38:
	.set L$set$444,Lframe0-Lsection__debug_frame
	.long L$set$444
	.quad	LFB1619
	.set L$set$445,LFE1619-LFB1619
	.quad L$set$445
	.byte	0x4
	.set L$set$446,LCFI43-LFB1619
	.long L$set$446
	.byte	0xe
	.byte	0x10
	.byte	0x86
	.byte	0x2
	.byte	0x4
	.set L$set$447,LCFI44-LCFI43
	.long L$set$447
	.byte	0xd
	.byte	0x6
	.byte	0x4
	.set L$set$448,LCFI46-LCFI44
	.long L$set$448
	.byte	0x83
	.byte	0x3
	.align 3
LEFDE38:
LSFDE40:
	.set L$set$449,LEFDE40-LASFDE40
	.long L$set$449
LASFDE40:
	.set L$set$450,Lframe0-Lsection__debug_frame
	.long L$set$450
	.quad	LFB2095
	.set L$set$451,LFE2095-LFB2095
	.quad L$set$451
	.byte	0x4
	.set L$set$452,LCFI47-LFB2095
	.long L$set$452
	.byte	0xe
	.byte	0x10
	.byte	0x86
	.byte	0x2
	.byte	0x4
	.set L$set$453,LCFI48-LCFI47
	.long L$set$453
	.byte	0xd
	.byte	0x6
	.align 3
LEFDE40:
LSFDE42:
	.set L$set$454,LEFDE42-LASFDE42
	.long L$set$454
LASFDE42:
	.set L$set$455,Lframe0-Lsection__debug_frame
	.long L$set$455
	.quad	LFB2098
	.set L$set$456,LFE2098-LFB2098
	.quad L$set$456
	.byte	0x4
	.set L$set$457,LCFI49-LFB2098
	.long L$set$457
	.byte	0xe
	.byte	0x10
	.byte	0x86
	.byte	0x2
	.byte	0x4
	.set L$set$458,LCFI50-LCFI49
	.long L$set$458
	.byte	0xd
	.byte	0x6
	.align 3
LEFDE42:
LSFDE44:
	.set L$set$459,LEFDE44-LASFDE44
	.long L$set$459
LASFDE44:
	.set L$set$460,Lframe0-Lsection__debug_frame
	.long L$set$460
	.quad	LFB2109
	.set L$set$461,LFE2109-LFB2109
	.quad L$set$461
	.byte	0x4
	.set L$set$462,LCFI52-LFB2109
	.long L$set$462
	.byte	0xe
	.byte	0x10
	.byte	0x86
	.byte	0x2
	.byte	0x4
	.set L$set$463,LCFI53-LCFI52
	.long L$set$463
	.byte	0xd
	.byte	0x6
	.align 3
LEFDE44:
LSFDE46:
	.set L$set$464,LEFDE46-LASFDE46
	.long L$set$464
LASFDE46:
	.set L$set$465,Lframe0-Lsection__debug_frame
	.long L$set$465
	.quad	LFB2112
	.set L$set$466,LFE2112-LFB2112
	.quad L$set$466
	.byte	0x4
	.set L$set$467,LCFI54-LFB2112
	.long L$set$467
	.byte	0xe
	.byte	0x10
	.byte	0x86
	.byte	0x2
	.byte	0x4
	.set L$set$468,LCFI55-LCFI54
	.long L$set$468
	.byte	0xd
	.byte	0x6
	.align 3
LEFDE46:
LSFDE48:
	.set L$set$469,LEFDE48-LASFDE48
	.long L$set$469
LASFDE48:
	.set L$set$470,Lframe0-Lsection__debug_frame
	.long L$set$470
	.quad	LFB2116
	.set L$set$471,LFE2116-LFB2116
	.quad L$set$471
	.byte	0x4
	.set L$set$472,LCFI56-LFB2116
	.long L$set$472
	.byte	0xe
	.byte	0x10
	.byte	0x86
	.byte	0x2
	.byte	0x4
	.set L$set$473,LCFI57-LCFI56
	.long L$set$473
	.byte	0xd
	.byte	0x6
	.align 3
LEFDE48:
LSFDE50:
	.set L$set$474,LEFDE50-LASFDE50
	.long L$set$474
LASFDE50:
	.set L$set$475,Lframe0-Lsection__debug_frame
	.long L$set$475
	.quad	LFB2124
	.set L$set$476,LFE2124-LFB2124
	.quad L$set$476
	.byte	0x4
	.set L$set$477,LCFI58-LFB2124
	.long L$set$477
	.byte	0xe
	.byte	0x10
	.byte	0x86
	.byte	0x2
	.byte	0x4
	.set L$set$478,LCFI59-LCFI58
	.long L$set$478
	.byte	0xd
	.byte	0x6
	.align 3
LEFDE50:
LSFDE52:
	.set L$set$479,LEFDE52-LASFDE52
	.long L$set$479
LASFDE52:
	.set L$set$480,Lframe0-Lsection__debug_frame
	.long L$set$480
	.quad	LFB2125
	.set L$set$481,LFE2125-LFB2125
	.quad L$set$481
	.byte	0x4
	.set L$set$482,LCFI60-LFB2125
	.long L$set$482
	.byte	0xe
	.byte	0x10
	.byte	0x86
	.byte	0x2
	.byte	0x4
	.set L$set$483,LCFI61-LCFI60
	.long L$set$483
	.byte	0xd
	.byte	0x6
	.align 3
LEFDE52:
LSFDE54:
	.set L$set$484,LEFDE54-LASFDE54
	.long L$set$484
LASFDE54:
	.set L$set$485,Lframe0-Lsection__debug_frame
	.long L$set$485
	.quad	LFB2146
	.set L$set$486,LFE2146-LFB2146
	.quad L$set$486
	.byte	0x4
	.set L$set$487,LCFI62-LFB2146
	.long L$set$487
	.byte	0xe
	.byte	0x10
	.byte	0x86
	.byte	0x2
	.byte	0x4
	.set L$set$488,LCFI63-LCFI62
	.long L$set$488
	.byte	0xd
	.byte	0x6
	.align 3
LEFDE54:
LSFDE56:
	.set L$set$489,LEFDE56-LASFDE56
	.long L$set$489
LASFDE56:
	.set L$set$490,Lframe0-Lsection__debug_frame
	.long L$set$490
	.quad	LFB2147
	.set L$set$491,LFE2147-LFB2147
	.quad L$set$491
	.byte	0x4
	.set L$set$492,LCFI64-LFB2147
	.long L$set$492
	.byte	0xe
	.byte	0x10
	.byte	0x86
	.byte	0x2
	.byte	0x4
	.set L$set$493,LCFI65-LCFI64
	.long L$set$493
	.byte	0xd
	.byte	0x6
	.align 3
LEFDE56:
LSFDE58:
	.set L$set$494,LEFDE58-LASFDE58
	.long L$set$494
LASFDE58:
	.set L$set$495,Lframe0-Lsection__debug_frame
	.long L$set$495
	.quad	LFB2152
	.set L$set$496,LFE2152-LFB2152
	.quad L$set$496
	.byte	0x4
	.set L$set$497,LCFI66-LFB2152
	.long L$set$497
	.byte	0xe
	.byte	0x10
	.byte	0x86
	.byte	0x2
	.byte	0x4
	.set L$set$498,LCFI67-LCFI66
	.long L$set$498
	.byte	0xd
	.byte	0x6
	.align 3
LEFDE58:
LSFDE60:
	.set L$set$499,LEFDE60-LASFDE60
	.long L$set$499
LASFDE60:
	.set L$set$500,Lframe0-Lsection__debug_frame
	.long L$set$500
	.quad	LFB2203
	.set L$set$501,LFE2203-LFB2203
	.quad L$set$501
	.byte	0x4
	.set L$set$502,LCFI68-LFB2203
	.long L$set$502
	.byte	0xe
	.byte	0x10
	.byte	0x86
	.byte	0x2
	.byte	0x4
	.set L$set$503,LCFI69-LCFI68
	.long L$set$503
	.byte	0xd
	.byte	0x6
	.align 3
LEFDE60:
LSFDE62:
	.set L$set$504,LEFDE62-LASFDE62
	.long L$set$504
LASFDE62:
	.set L$set$505,Lframe0-Lsection__debug_frame
	.long L$set$505
	.quad	LFB2207
	.set L$set$506,LFE2207-LFB2207
	.quad L$set$506
	.byte	0x4
	.set L$set$507,LCFI70-LFB2207
	.long L$set$507
	.byte	0xe
	.byte	0x10
	.byte	0x86
	.byte	0x2
	.byte	0x4
	.set L$set$508,LCFI71-LCFI70
	.long L$set$508
	.byte	0xd
	.byte	0x6
	.align 3
LEFDE62:
LSFDE64:
	.set L$set$509,LEFDE64-LASFDE64
	.long L$set$509
LASFDE64:
	.set L$set$510,Lframe0-Lsection__debug_frame
	.long L$set$510
	.quad	LFB2210
	.set L$set$511,LFE2210-LFB2210
	.quad L$set$511
	.byte	0x4
	.set L$set$512,LCFI72-LFB2210
	.long L$set$512
	.byte	0xe
	.byte	0x10
	.byte	0x86
	.byte	0x2
	.byte	0x4
	.set L$set$513,LCFI73-LCFI72
	.long L$set$513
	.byte	0xd
	.byte	0x6
	.align 3
LEFDE64:
LSFDE66:
	.set L$set$514,LEFDE66-LASFDE66
	.long L$set$514
LASFDE66:
	.set L$set$515,Lframe0-Lsection__debug_frame
	.long L$set$515
	.quad	LFB2211
	.set L$set$516,LFE2211-LFB2211
	.quad L$set$516
	.byte	0x4
	.set L$set$517,LCFI75-LFB2211
	.long L$set$517
	.byte	0xe
	.byte	0x10
	.byte	0x86
	.byte	0x2
	.byte	0x4
	.set L$set$518,LCFI76-LCFI75
	.long L$set$518
	.byte	0xd
	.byte	0x6
	.align 3
LEFDE66:
LSFDE68:
	.set L$set$519,LEFDE68-LASFDE68
	.long L$set$519
LASFDE68:
	.set L$set$520,Lframe0-Lsection__debug_frame
	.long L$set$520
	.quad	LFB2114
	.set L$set$521,LFE2114-LFB2114
	.quad L$set$521
	.byte	0x4
	.set L$set$522,LCFI77-LFB2114
	.long L$set$522
	.byte	0xe
	.byte	0x10
	.byte	0x86
	.byte	0x2
	.byte	0x4
	.set L$set$523,LCFI78-LCFI77
	.long L$set$523
	.byte	0xd
	.byte	0x6
	.align 3
LEFDE68:
LSFDE70:
	.set L$set$524,LEFDE70-LASFDE70
	.long L$set$524
LASFDE70:
	.set L$set$525,Lframe0-Lsection__debug_frame
	.long L$set$525
	.quad	LFB2219
	.set L$set$526,LFE2219-LFB2219
	.quad L$set$526
	.byte	0x4
	.set L$set$527,LCFI80-LFB2219
	.long L$set$527
	.byte	0xe
	.byte	0x10
	.byte	0x86
	.byte	0x2
	.byte	0x4
	.set L$set$528,LCFI81-LCFI80
	.long L$set$528
	.byte	0xd
	.byte	0x6
	.align 3
LEFDE70:
LSFDE72:
	.set L$set$529,LEFDE72-LASFDE72
	.long L$set$529
LASFDE72:
	.set L$set$530,Lframe0-Lsection__debug_frame
	.long L$set$530
	.quad	LFB2221
	.set L$set$531,LFE2221-LFB2221
	.quad L$set$531
	.byte	0x4
	.set L$set$532,LCFI82-LFB2221
	.long L$set$532
	.byte	0xe
	.byte	0x10
	.byte	0x86
	.byte	0x2
	.byte	0x4
	.set L$set$533,LCFI83-LCFI82
	.long L$set$533
	.byte	0xd
	.byte	0x6
	.align 3
LEFDE72:
LSFDE74:
	.set L$set$534,LEFDE74-LASFDE74
	.long L$set$534
LASFDE74:
	.set L$set$535,Lframe0-Lsection__debug_frame
	.long L$set$535
	.quad	LFB2229
	.set L$set$536,LFE2229-LFB2229
	.quad L$set$536
	.byte	0x4
	.set L$set$537,LCFI84-LFB2229
	.long L$set$537
	.byte	0xe
	.byte	0x10
	.byte	0x86
	.byte	0x2
	.byte	0x4
	.set L$set$538,LCFI85-LCFI84
	.long L$set$538
	.byte	0xd
	.byte	0x6
	.align 3
LEFDE74:
LSFDE76:
	.set L$set$539,LEFDE76-LASFDE76
	.long L$set$539
LASFDE76:
	.set L$set$540,Lframe0-Lsection__debug_frame
	.long L$set$540
	.quad	LFB2237
	.set L$set$541,LFE2237-LFB2237
	.quad L$set$541
	.byte	0x4
	.set L$set$542,LCFI86-LFB2237
	.long L$set$542
	.byte	0xe
	.byte	0x10
	.byte	0x86
	.byte	0x2
	.byte	0x4
	.set L$set$543,LCFI87-LCFI86
	.long L$set$543
	.byte	0xd
	.byte	0x6
	.align 3
LEFDE76:
LSFDE78:
	.set L$set$544,LEFDE78-LASFDE78
	.long L$set$544
LASFDE78:
	.set L$set$545,Lframe0-Lsection__debug_frame
	.long L$set$545
	.quad	LFB2130
	.set L$set$546,LFE2130-LFB2130
	.quad L$set$546
	.byte	0x4
	.set L$set$547,LCFI88-LFB2130
	.long L$set$547
	.byte	0xe
	.byte	0x10
	.byte	0x86
	.byte	0x2
	.byte	0x4
	.set L$set$548,LCFI89-LCFI88
	.long L$set$548
	.byte	0xd
	.byte	0x6
	.align 3
LEFDE78:
LSFDE80:
	.set L$set$549,LEFDE80-LASFDE80
	.long L$set$549
LASFDE80:
	.set L$set$550,Lframe0-Lsection__debug_frame
	.long L$set$550
	.quad	LFB2240
	.set L$set$551,LFE2240-LFB2240
	.quad L$set$551
	.byte	0x4
	.set L$set$552,LCFI91-LFB2240
	.long L$set$552
	.byte	0xe
	.byte	0x10
	.byte	0x86
	.byte	0x2
	.byte	0x4
	.set L$set$553,LCFI92-LCFI91
	.long L$set$553
	.byte	0xd
	.byte	0x6
	.align 3
LEFDE80:
LSFDE82:
	.set L$set$554,LEFDE82-LASFDE82
	.long L$set$554
LASFDE82:
	.set L$set$555,Lframe0-Lsection__debug_frame
	.long L$set$555
	.quad	LFB2133
	.set L$set$556,LFE2133-LFB2133
	.quad L$set$556
	.byte	0x4
	.set L$set$557,LCFI93-LFB2133
	.long L$set$557
	.byte	0xe
	.byte	0x10
	.byte	0x86
	.byte	0x2
	.byte	0x4
	.set L$set$558,LCFI94-LCFI93
	.long L$set$558
	.byte	0xd
	.byte	0x6
	.align 3
LEFDE82:
LSFDE84:
	.set L$set$559,LEFDE84-LASFDE84
	.long L$set$559
LASFDE84:
	.set L$set$560,Lframe0-Lsection__debug_frame
	.long L$set$560
	.quad	LFB2132
	.set L$set$561,LFE2132-LFB2132
	.quad L$set$561
	.byte	0x4
	.set L$set$562,LCFI96-LFB2132
	.long L$set$562
	.byte	0xe
	.byte	0x10
	.byte	0x86
	.byte	0x2
	.byte	0x4
	.set L$set$563,LCFI97-LCFI96
	.long L$set$563
	.byte	0xd
	.byte	0x6
	.align 3
LEFDE84:
LSFDE86:
	.set L$set$564,LEFDE86-LASFDE86
	.long L$set$564
LASFDE86:
	.set L$set$565,Lframe0-Lsection__debug_frame
	.long L$set$565
	.quad	LFB2243
	.set L$set$566,LFE2243-LFB2243
	.quad L$set$566
	.byte	0x4
	.set L$set$567,LCFI99-LFB2243
	.long L$set$567
	.byte	0xe
	.byte	0x10
	.byte	0x86
	.byte	0x2
	.byte	0x4
	.set L$set$568,LCFI100-LCFI99
	.long L$set$568
	.byte	0xd
	.byte	0x6
	.align 3
LEFDE86:
LSFDE88:
	.set L$set$569,LEFDE88-LASFDE88
	.long L$set$569
LASFDE88:
	.set L$set$570,Lframe0-Lsection__debug_frame
	.long L$set$570
	.quad	LFB2136
	.set L$set$571,LFE2136-LFB2136
	.quad L$set$571
	.byte	0x4
	.set L$set$572,LCFI101-LFB2136
	.long L$set$572
	.byte	0xe
	.byte	0x10
	.byte	0x86
	.byte	0x2
	.byte	0x4
	.set L$set$573,LCFI102-LCFI101
	.long L$set$573
	.byte	0xd
	.byte	0x6
	.align 3
LEFDE88:
LSFDE90:
	.set L$set$574,LEFDE90-LASFDE90
	.long L$set$574
LASFDE90:
	.set L$set$575,Lframe0-Lsection__debug_frame
	.long L$set$575
	.quad	LFB2135
	.set L$set$576,LFE2135-LFB2135
	.quad L$set$576
	.byte	0x4
	.set L$set$577,LCFI104-LFB2135
	.long L$set$577
	.byte	0xe
	.byte	0x10
	.byte	0x86
	.byte	0x2
	.byte	0x4
	.set L$set$578,LCFI105-LCFI104
	.long L$set$578
	.byte	0xd
	.byte	0x6
	.align 3
LEFDE90:
LSFDE92:
	.set L$set$579,LEFDE92-LASFDE92
	.long L$set$579
LASFDE92:
	.set L$set$580,Lframe0-Lsection__debug_frame
	.long L$set$580
	.quad	LFB2248
	.set L$set$581,LFE2248-LFB2248
	.quad L$set$581
	.byte	0x4
	.set L$set$582,LCFI107-LFB2248
	.long L$set$582
	.byte	0xe
	.byte	0x10
	.byte	0x86
	.byte	0x2
	.byte	0x4
	.set L$set$583,LCFI108-LCFI107
	.long L$set$583
	.byte	0xd
	.byte	0x6
	.align 3
LEFDE92:
LSFDE94:
	.set L$set$584,LEFDE94-LASFDE94
	.long L$set$584
LASFDE94:
	.set L$set$585,Lframe0-Lsection__debug_frame
	.long L$set$585
	.quad	LFB2254
	.set L$set$586,LFE2254-LFB2254
	.quad L$set$586
	.byte	0x4
	.set L$set$587,LCFI110-LFB2254
	.long L$set$587
	.byte	0xe
	.byte	0x10
	.byte	0x86
	.byte	0x2
	.byte	0x4
	.set L$set$588,LCFI111-LCFI110
	.long L$set$588
	.byte	0xd
	.byte	0x6
	.align 3
LEFDE94:
LSFDE96:
	.set L$set$589,LEFDE96-LASFDE96
	.long L$set$589
LASFDE96:
	.set L$set$590,Lframe0-Lsection__debug_frame
	.long L$set$590
	.quad	LFB2256
	.set L$set$591,LFE2256-LFB2256
	.quad L$set$591
	.byte	0x4
	.set L$set$592,LCFI112-LFB2256
	.long L$set$592
	.byte	0xe
	.byte	0x10
	.byte	0x86
	.byte	0x2
	.byte	0x4
	.set L$set$593,LCFI113-LCFI112
	.long L$set$593
	.byte	0xd
	.byte	0x6
	.align 3
LEFDE96:
LSFDE98:
	.set L$set$594,LEFDE98-LASFDE98
	.long L$set$594
LASFDE98:
	.set L$set$595,Lframe0-Lsection__debug_frame
	.long L$set$595
	.quad	LFB2260
	.set L$set$596,LFE2260-LFB2260
	.quad L$set$596
	.byte	0x4
	.set L$set$597,LCFI115-LFB2260
	.long L$set$597
	.byte	0xe
	.byte	0x10
	.byte	0x86
	.byte	0x2
	.byte	0x4
	.set L$set$598,LCFI116-LCFI115
	.long L$set$598
	.byte	0xd
	.byte	0x6
	.align 3
LEFDE98:
LSFDE100:
	.set L$set$599,LEFDE100-LASFDE100
	.long L$set$599
LASFDE100:
	.set L$set$600,Lframe0-Lsection__debug_frame
	.long L$set$600
	.quad	LFB2149
	.set L$set$601,LFE2149-LFB2149
	.quad L$set$601
	.byte	0x4
	.set L$set$602,LCFI117-LFB2149
	.long L$set$602
	.byte	0xe
	.byte	0x10
	.byte	0x86
	.byte	0x2
	.byte	0x4
	.set L$set$603,LCFI118-LCFI117
	.long L$set$603
	.byte	0xd
	.byte	0x6
	.align 3
LEFDE100:
LSFDE102:
	.set L$set$604,LEFDE102-LASFDE102
	.long L$set$604
LASFDE102:
	.set L$set$605,Lframe0-Lsection__debug_frame
	.long L$set$605
	.quad	LFB2148
	.set L$set$606,LFE2148-LFB2148
	.quad L$set$606
	.byte	0x4
	.set L$set$607,LCFI120-LFB2148
	.long L$set$607
	.byte	0xe
	.byte	0x10
	.byte	0x86
	.byte	0x2
	.byte	0x4
	.set L$set$608,LCFI121-LCFI120
	.long L$set$608
	.byte	0xd
	.byte	0x6
	.align 3
LEFDE102:
LSFDE104:
	.set L$set$609,LEFDE104-LASFDE104
	.long L$set$609
LASFDE104:
	.set L$set$610,Lframe0-Lsection__debug_frame
	.long L$set$610
	.quad	LFB2151
	.set L$set$611,LFE2151-LFB2151
	.quad L$set$611
	.byte	0x4
	.set L$set$612,LCFI123-LFB2151
	.long L$set$612
	.byte	0xe
	.byte	0x10
	.byte	0x86
	.byte	0x2
	.byte	0x4
	.set L$set$613,LCFI124-LCFI123
	.long L$set$613
	.byte	0xd
	.byte	0x6
	.align 3
LEFDE104:
LSFDE106:
	.set L$set$614,LEFDE106-LASFDE106
	.long L$set$614
LASFDE106:
	.set L$set$615,Lframe0-Lsection__debug_frame
	.long L$set$615
	.quad	LFB2261
	.set L$set$616,LFE2261-LFB2261
	.quad L$set$616
	.byte	0x4
	.set L$set$617,LCFI126-LFB2261
	.long L$set$617
	.byte	0xe
	.byte	0x10
	.byte	0x86
	.byte	0x2
	.byte	0x4
	.set L$set$618,LCFI127-LCFI126
	.long L$set$618
	.byte	0xd
	.byte	0x6
	.align 3
LEFDE106:
LSFDE108:
	.set L$set$619,LEFDE108-LASFDE108
	.long L$set$619
LASFDE108:
	.set L$set$620,Lframe0-Lsection__debug_frame
	.long L$set$620
	.quad	LFB2150
	.set L$set$621,LFE2150-LFB2150
	.quad L$set$621
	.byte	0x4
	.set L$set$622,LCFI128-LFB2150
	.long L$set$622
	.byte	0xe
	.byte	0x10
	.byte	0x86
	.byte	0x2
	.byte	0x4
	.set L$set$623,LCFI129-LCFI128
	.long L$set$623
	.byte	0xd
	.byte	0x6
	.byte	0x4
	.set L$set$624,LCFI131-LCFI129
	.long L$set$624
	.byte	0x83
	.byte	0x3
	.align 3
LEFDE108:
LSFDE110:
	.set L$set$625,LEFDE110-LASFDE110
	.long L$set$625
LASFDE110:
	.set L$set$626,Lframe0-Lsection__debug_frame
	.long L$set$626
	.quad	LFB2262
	.set L$set$627,LFE2262-LFB2262
	.quad L$set$627
	.byte	0x4
	.set L$set$628,LCFI132-LFB2262
	.long L$set$628
	.byte	0xe
	.byte	0x10
	.byte	0x86
	.byte	0x2
	.byte	0x4
	.set L$set$629,LCFI133-LCFI132
	.long L$set$629
	.byte	0xd
	.byte	0x6
	.align 3
LEFDE110:
LSFDE112:
	.set L$set$630,LEFDE112-LASFDE112
	.long L$set$630
LASFDE112:
	.set L$set$631,Lframe0-Lsection__debug_frame
	.long L$set$631
	.quad	LFB2273
	.set L$set$632,LFE2273-LFB2273
	.quad L$set$632
	.byte	0x4
	.set L$set$633,LCFI134-LFB2273
	.long L$set$633
	.byte	0xe
	.byte	0x10
	.byte	0x86
	.byte	0x2
	.byte	0x4
	.set L$set$634,LCFI135-LCFI134
	.long L$set$634
	.byte	0xd
	.byte	0x6
	.align 3
LEFDE112:
LSFDE114:
	.set L$set$635,LEFDE114-LASFDE114
	.long L$set$635
LASFDE114:
	.set L$set$636,Lframe0-Lsection__debug_frame
	.long L$set$636
	.quad	LFB2157
	.set L$set$637,LFE2157-LFB2157
	.quad L$set$637
	.byte	0x4
	.set L$set$638,LCFI136-LFB2157
	.long L$set$638
	.byte	0xe
	.byte	0x10
	.byte	0x86
	.byte	0x2
	.byte	0x4
	.set L$set$639,LCFI137-LCFI136
	.long L$set$639
	.byte	0xd
	.byte	0x6
	.align 3
LEFDE114:
LSFDE116:
	.set L$set$640,LEFDE116-LASFDE116
	.long L$set$640
LASFDE116:
	.set L$set$641,Lframe0-Lsection__debug_frame
	.long L$set$641
	.quad	LFB2276
	.set L$set$642,LFE2276-LFB2276
	.quad L$set$642
	.byte	0x4
	.set L$set$643,LCFI139-LFB2276
	.long L$set$643
	.byte	0xe
	.byte	0x10
	.byte	0x86
	.byte	0x2
	.byte	0x4
	.set L$set$644,LCFI140-LCFI139
	.long L$set$644
	.byte	0xd
	.byte	0x6
	.align 3
LEFDE116:
LSFDE118:
	.set L$set$645,LEFDE118-LASFDE118
	.long L$set$645
LASFDE118:
	.set L$set$646,Lframe0-Lsection__debug_frame
	.long L$set$646
	.quad	LFB2160
	.set L$set$647,LFE2160-LFB2160
	.quad L$set$647
	.byte	0x4
	.set L$set$648,LCFI141-LFB2160
	.long L$set$648
	.byte	0xe
	.byte	0x10
	.byte	0x86
	.byte	0x2
	.byte	0x4
	.set L$set$649,LCFI142-LCFI141
	.long L$set$649
	.byte	0xd
	.byte	0x6
	.align 3
LEFDE118:
LSFDE120:
	.set L$set$650,LEFDE120-LASFDE120
	.long L$set$650
LASFDE120:
	.set L$set$651,Lframe0-Lsection__debug_frame
	.long L$set$651
	.quad	LFB2159
	.set L$set$652,LFE2159-LFB2159
	.quad L$set$652
	.byte	0x4
	.set L$set$653,LCFI144-LFB2159
	.long L$set$653
	.byte	0xe
	.byte	0x10
	.byte	0x86
	.byte	0x2
	.byte	0x4
	.set L$set$654,LCFI145-LCFI144
	.long L$set$654
	.byte	0xd
	.byte	0x6
	.align 3
LEFDE120:
LSFDE122:
	.set L$set$655,LEFDE122-LASFDE122
	.long L$set$655
LASFDE122:
	.set L$set$656,Lframe0-Lsection__debug_frame
	.long L$set$656
	.quad	LFB2216
	.set L$set$657,LFE2216-LFB2216
	.quad L$set$657
	.byte	0x4
	.set L$set$658,LCFI147-LFB2216
	.long L$set$658
	.byte	0xe
	.byte	0x10
	.byte	0x86
	.byte	0x2
	.byte	0x4
	.set L$set$659,LCFI148-LCFI147
	.long L$set$659
	.byte	0xd
	.byte	0x6
	.align 3
LEFDE122:
LSFDE124:
	.set L$set$660,LEFDE124-LASFDE124
	.long L$set$660
LASFDE124:
	.set L$set$661,Lframe0-Lsection__debug_frame
	.long L$set$661
	.quad	LFB2279
	.set L$set$662,LFE2279-LFB2279
	.quad L$set$662
	.byte	0x4
	.set L$set$663,LCFI150-LFB2279
	.long L$set$663
	.byte	0xe
	.byte	0x10
	.byte	0x86
	.byte	0x2
	.byte	0x4
	.set L$set$664,LCFI151-LCFI150
	.long L$set$664
	.byte	0xd
	.byte	0x6
	.align 3
LEFDE124:
LSFDE126:
	.set L$set$665,LEFDE126-LASFDE126
	.long L$set$665
LASFDE126:
	.set L$set$666,Lframe0-Lsection__debug_frame
	.long L$set$666
	.quad	LFB2162
	.set L$set$667,LFE2162-LFB2162
	.quad L$set$667
	.byte	0x4
	.set L$set$668,LCFI152-LFB2162
	.long L$set$668
	.byte	0xe
	.byte	0x10
	.byte	0x86
	.byte	0x2
	.byte	0x4
	.set L$set$669,LCFI153-LCFI152
	.long L$set$669
	.byte	0xd
	.byte	0x6
	.align 3
LEFDE126:
LSFDE128:
	.set L$set$670,LEFDE128-LASFDE128
	.long L$set$670
LASFDE128:
	.set L$set$671,Lframe0-Lsection__debug_frame
	.long L$set$671
	.quad	LFB2163
	.set L$set$672,LFE2163-LFB2163
	.quad L$set$672
	.byte	0x4
	.set L$set$673,LCFI155-LFB2163
	.long L$set$673
	.byte	0xe
	.byte	0x10
	.byte	0x86
	.byte	0x2
	.byte	0x4
	.set L$set$674,LCFI156-LCFI155
	.long L$set$674
	.byte	0xd
	.byte	0x6
	.align 3
LEFDE128:
LSFDE130:
	.set L$set$675,LEFDE130-LASFDE130
	.long L$set$675
LASFDE130:
	.set L$set$676,Lframe0-Lsection__debug_frame
	.long L$set$676
	.quad	LFB2284
	.set L$set$677,LFE2284-LFB2284
	.quad L$set$677
	.byte	0x4
	.set L$set$678,LCFI158-LFB2284
	.long L$set$678
	.byte	0xe
	.byte	0x10
	.byte	0x86
	.byte	0x2
	.byte	0x4
	.set L$set$679,LCFI159-LCFI158
	.long L$set$679
	.byte	0xd
	.byte	0x6
	.align 3
LEFDE130:
LSFDE132:
	.set L$set$680,LEFDE132-LASFDE132
	.long L$set$680
LASFDE132:
	.set L$set$681,Lframe0-Lsection__debug_frame
	.long L$set$681
	.quad	LFB2289
	.set L$set$682,LFE2289-LFB2289
	.quad L$set$682
	.byte	0x4
	.set L$set$683,LCFI161-LFB2289
	.long L$set$683
	.byte	0xe
	.byte	0x10
	.byte	0x86
	.byte	0x2
	.byte	0x4
	.set L$set$684,LCFI162-LCFI161
	.long L$set$684
	.byte	0xd
	.byte	0x6
	.align 3
LEFDE132:
LSFDE134:
	.set L$set$685,LEFDE134-LASFDE134
	.long L$set$685
LASFDE134:
	.set L$set$686,Lframe0-Lsection__debug_frame
	.long L$set$686
	.quad	LFB2170
	.set L$set$687,LFE2170-LFB2170
	.quad L$set$687
	.byte	0x4
	.set L$set$688,LCFI163-LFB2170
	.long L$set$688
	.byte	0xe
	.byte	0x10
	.byte	0x86
	.byte	0x2
	.byte	0x4
	.set L$set$689,LCFI164-LCFI163
	.long L$set$689
	.byte	0xd
	.byte	0x6
	.align 3
LEFDE134:
LSFDE136:
	.set L$set$690,LEFDE136-LASFDE136
	.long L$set$690
LASFDE136:
	.set L$set$691,Lframe0-Lsection__debug_frame
	.long L$set$691
	.quad	LFB2169
	.set L$set$692,LFE2169-LFB2169
	.quad L$set$692
	.byte	0x4
	.set L$set$693,LCFI166-LFB2169
	.long L$set$693
	.byte	0xe
	.byte	0x10
	.byte	0x86
	.byte	0x2
	.byte	0x4
	.set L$set$694,LCFI167-LCFI166
	.long L$set$694
	.byte	0xd
	.byte	0x6
	.align 3
LEFDE136:
LSFDE138:
	.set L$set$695,LEFDE138-LASFDE138
	.long L$set$695
LASFDE138:
	.set L$set$696,Lframe0-Lsection__debug_frame
	.long L$set$696
	.quad	LFB2295
	.set L$set$697,LFE2295-LFB2295
	.quad L$set$697
	.byte	0x4
	.set L$set$698,LCFI169-LFB2295
	.long L$set$698
	.byte	0xe
	.byte	0x10
	.byte	0x86
	.byte	0x2
	.byte	0x4
	.set L$set$699,LCFI170-LCFI169
	.long L$set$699
	.byte	0xd
	.byte	0x6
	.align 3
LEFDE138:
LSFDE140:
	.set L$set$700,LEFDE140-LASFDE140
	.long L$set$700
LASFDE140:
	.set L$set$701,Lframe0-Lsection__debug_frame
	.long L$set$701
	.quad	LFB2297
	.set L$set$702,LFE2297-LFB2297
	.quad L$set$702
	.byte	0x4
	.set L$set$703,LCFI171-LFB2297
	.long L$set$703
	.byte	0xe
	.byte	0x10
	.byte	0x86
	.byte	0x2
	.byte	0x4
	.set L$set$704,LCFI172-LCFI171
	.long L$set$704
	.byte	0xd
	.byte	0x6
	.align 3
LEFDE140:
LSFDE142:
	.set L$set$705,LEFDE142-LASFDE142
	.long L$set$705
LASFDE142:
	.set L$set$706,Lframe0-Lsection__debug_frame
	.long L$set$706
	.quad	LFB2299
	.set L$set$707,LFE2299-LFB2299
	.quad L$set$707
	.byte	0x4
	.set L$set$708,LCFI174-LFB2299
	.long L$set$708
	.byte	0xe
	.byte	0x10
	.byte	0x86
	.byte	0x2
	.byte	0x4
	.set L$set$709,LCFI175-LCFI174
	.long L$set$709
	.byte	0xd
	.byte	0x6
	.align 3
LEFDE142:
LSFDE144:
	.set L$set$710,LEFDE144-LASFDE144
	.long L$set$710
LASFDE144:
	.set L$set$711,Lframe0-Lsection__debug_frame
	.long L$set$711
	.quad	LFB2302
	.set L$set$712,LFE2302-LFB2302
	.quad L$set$712
	.byte	0x4
	.set L$set$713,LCFI177-LFB2302
	.long L$set$713
	.byte	0xe
	.byte	0x10
	.byte	0x86
	.byte	0x2
	.byte	0x4
	.set L$set$714,LCFI178-LCFI177
	.long L$set$714
	.byte	0xd
	.byte	0x6
	.align 3
LEFDE144:
LSFDE146:
	.set L$set$715,LEFDE146-LASFDE146
	.long L$set$715
LASFDE146:
	.set L$set$716,Lframe0-Lsection__debug_frame
	.long L$set$716
	.quad	LFB2305
	.set L$set$717,LFE2305-LFB2305
	.quad L$set$717
	.byte	0x4
	.set L$set$718,LCFI180-LFB2305
	.long L$set$718
	.byte	0xe
	.byte	0x10
	.byte	0x86
	.byte	0x2
	.byte	0x4
	.set L$set$719,LCFI181-LCFI180
	.long L$set$719
	.byte	0xd
	.byte	0x6
	.align 3
LEFDE146:
LSFDE148:
	.set L$set$720,LEFDE148-LASFDE148
	.long L$set$720
LASFDE148:
	.set L$set$721,Lframe0-Lsection__debug_frame
	.long L$set$721
	.quad	LFB2189
	.set L$set$722,LFE2189-LFB2189
	.quad L$set$722
	.byte	0x4
	.set L$set$723,LCFI182-LFB2189
	.long L$set$723
	.byte	0xe
	.byte	0x10
	.byte	0x86
	.byte	0x2
	.byte	0x4
	.set L$set$724,LCFI183-LCFI182
	.long L$set$724
	.byte	0xd
	.byte	0x6
	.align 3
LEFDE148:
LSFDE150:
	.set L$set$725,LEFDE150-LASFDE150
	.long L$set$725
LASFDE150:
	.set L$set$726,Lframe0-Lsection__debug_frame
	.long L$set$726
	.quad	LFB2308
	.set L$set$727,LFE2308-LFB2308
	.quad L$set$727
	.byte	0x4
	.set L$set$728,LCFI185-LFB2308
	.long L$set$728
	.byte	0xe
	.byte	0x10
	.byte	0x86
	.byte	0x2
	.byte	0x4
	.set L$set$729,LCFI186-LCFI185
	.long L$set$729
	.byte	0xd
	.byte	0x6
	.align 3
LEFDE150:
LSFDE152:
	.set L$set$730,LEFDE152-LASFDE152
	.long L$set$730
LASFDE152:
	.set L$set$731,Lframe0-Lsection__debug_frame
	.long L$set$731
	.quad	LFB2192
	.set L$set$732,LFE2192-LFB2192
	.quad L$set$732
	.byte	0x4
	.set L$set$733,LCFI187-LFB2192
	.long L$set$733
	.byte	0xe
	.byte	0x10
	.byte	0x86
	.byte	0x2
	.byte	0x4
	.set L$set$734,LCFI188-LCFI187
	.long L$set$734
	.byte	0xd
	.byte	0x6
	.align 3
LEFDE152:
LSFDE154:
	.set L$set$735,LEFDE154-LASFDE154
	.long L$set$735
LASFDE154:
	.set L$set$736,Lframe0-Lsection__debug_frame
	.long L$set$736
	.quad	LFB2320
	.set L$set$737,LFE2320-LFB2320
	.quad L$set$737
	.byte	0x4
	.set L$set$738,LCFI190-LFB2320
	.long L$set$738
	.byte	0xe
	.byte	0x10
	.byte	0x86
	.byte	0x2
	.byte	0x4
	.set L$set$739,LCFI191-LCFI190
	.long L$set$739
	.byte	0xd
	.byte	0x6
	.align 3
LEFDE154:
LSFDE156:
	.set L$set$740,LEFDE156-LASFDE156
	.long L$set$740
LASFDE156:
	.set L$set$741,Lframe0-Lsection__debug_frame
	.long L$set$741
	.quad	LFB2201
	.set L$set$742,LFE2201-LFB2201
	.quad L$set$742
	.byte	0x4
	.set L$set$743,LCFI192-LFB2201
	.long L$set$743
	.byte	0xe
	.byte	0x10
	.byte	0x86
	.byte	0x2
	.byte	0x4
	.set L$set$744,LCFI193-LCFI192
	.long L$set$744
	.byte	0xd
	.byte	0x6
	.align 3
LEFDE156:
LSFDE158:
	.set L$set$745,LEFDE158-LASFDE158
	.long L$set$745
LASFDE158:
	.set L$set$746,Lframe0-Lsection__debug_frame
	.long L$set$746
	.quad	LFB2200
	.set L$set$747,LFE2200-LFB2200
	.quad L$set$747
	.byte	0x4
	.set L$set$748,LCFI195-LFB2200
	.long L$set$748
	.byte	0xe
	.byte	0x10
	.byte	0x86
	.byte	0x2
	.byte	0x4
	.set L$set$749,LCFI196-LCFI195
	.long L$set$749
	.byte	0xd
	.byte	0x6
	.align 3
LEFDE158:
LSFDE160:
	.set L$set$750,LEFDE160-LASFDE160
	.long L$set$750
LASFDE160:
	.set L$set$751,Lframe0-Lsection__debug_frame
	.long L$set$751
	.quad	LFB2104
	.set L$set$752,LFE2104-LFB2104
	.quad L$set$752
	.byte	0x4
	.set L$set$753,LCFI198-LFB2104
	.long L$set$753
	.byte	0xe
	.byte	0x10
	.byte	0x86
	.byte	0x2
	.byte	0x4
	.set L$set$754,LCFI199-LCFI198
	.long L$set$754
	.byte	0xd
	.byte	0x6
	.align 3
LEFDE160:
LSFDE162:
	.set L$set$755,LEFDE162-LASFDE162
	.long L$set$755
LASFDE162:
	.set L$set$756,Lframe0-Lsection__debug_frame
	.long L$set$756
	.quad	LFB2322
	.set L$set$757,LFE2322-LFB2322
	.quad L$set$757
	.byte	0x4
	.set L$set$758,LCFI201-LFB2322
	.long L$set$758
	.byte	0xe
	.byte	0x10
	.byte	0x86
	.byte	0x2
	.byte	0x4
	.set L$set$759,LCFI202-LCFI201
	.long L$set$759
	.byte	0xd
	.byte	0x6
	.align 3
LEFDE162:
LSFDE164:
	.set L$set$760,LEFDE164-LASFDE164
	.long L$set$760
LASFDE164:
	.set L$set$761,Lframe0-Lsection__debug_frame
	.long L$set$761
	.quad	LFB2323
	.set L$set$762,LFE2323-LFB2323
	.quad L$set$762
	.byte	0x4
	.set L$set$763,LCFI203-LFB2323
	.long L$set$763
	.byte	0xe
	.byte	0x10
	.byte	0x86
	.byte	0x2
	.byte	0x4
	.set L$set$764,LCFI204-LCFI203
	.long L$set$764
	.byte	0xd
	.byte	0x6
	.align 3
LEFDE164:
LSFDE166:
	.set L$set$765,LEFDE166-LASFDE166
	.long L$set$765
LASFDE166:
	.set L$set$766,Lframe0-Lsection__debug_frame
	.long L$set$766
	.quad	LFB2325
	.set L$set$767,LFE2325-LFB2325
	.quad L$set$767
	.byte	0x4
	.set L$set$768,LCFI205-LFB2325
	.long L$set$768
	.byte	0xe
	.byte	0x10
	.byte	0x86
	.byte	0x2
	.byte	0x4
	.set L$set$769,LCFI206-LCFI205
	.long L$set$769
	.byte	0xd
	.byte	0x6
	.align 3
LEFDE166:
LSFDE168:
	.set L$set$770,LEFDE168-LASFDE168
	.long L$set$770
LASFDE168:
	.set L$set$771,Lframe0-Lsection__debug_frame
	.long L$set$771
	.quad	LFB2326
	.set L$set$772,LFE2326-LFB2326
	.quad L$set$772
	.byte	0x4
	.set L$set$773,LCFI207-LFB2326
	.long L$set$773
	.byte	0xe
	.byte	0x10
	.byte	0x86
	.byte	0x2
	.byte	0x4
	.set L$set$774,LCFI208-LCFI207
	.long L$set$774
	.byte	0xd
	.byte	0x6
	.align 3
LEFDE168:
LSFDE170:
	.set L$set$775,LEFDE170-LASFDE170
	.long L$set$775
LASFDE170:
	.set L$set$776,Lframe0-Lsection__debug_frame
	.long L$set$776
	.quad	LFB2328
	.set L$set$777,LFE2328-LFB2328
	.quad L$set$777
	.byte	0x4
	.set L$set$778,LCFI209-LFB2328
	.long L$set$778
	.byte	0xe
	.byte	0x10
	.byte	0x86
	.byte	0x2
	.byte	0x4
	.set L$set$779,LCFI210-LCFI209
	.long L$set$779
	.byte	0xd
	.byte	0x6
	.align 3
LEFDE170:
LSFDE172:
	.set L$set$780,LEFDE172-LASFDE172
	.long L$set$780
LASFDE172:
	.set L$set$781,Lframe0-Lsection__debug_frame
	.long L$set$781
	.quad	LFB2332
	.set L$set$782,LFE2332-LFB2332
	.quad L$set$782
	.byte	0x4
	.set L$set$783,LCFI212-LFB2332
	.long L$set$783
	.byte	0xe
	.byte	0x10
	.byte	0x86
	.byte	0x2
	.byte	0x4
	.set L$set$784,LCFI213-LCFI212
	.long L$set$784
	.byte	0xd
	.byte	0x6
	.align 3
LEFDE172:
LSFDE174:
	.set L$set$785,LEFDE174-LASFDE174
	.long L$set$785
LASFDE174:
	.set L$set$786,Lframe0-Lsection__debug_frame
	.long L$set$786
	.quad	LFB2212
	.set L$set$787,LFE2212-LFB2212
	.quad L$set$787
	.byte	0x4
	.set L$set$788,LCFI214-LFB2212
	.long L$set$788
	.byte	0xe
	.byte	0x10
	.byte	0x86
	.byte	0x2
	.byte	0x4
	.set L$set$789,LCFI215-LCFI214
	.long L$set$789
	.byte	0xd
	.byte	0x6
	.align 3
LEFDE174:
LSFDE176:
	.set L$set$790,LEFDE176-LASFDE176
	.long L$set$790
LASFDE176:
	.set L$set$791,Lframe0-Lsection__debug_frame
	.long L$set$791
	.quad	LFB2115
	.set L$set$792,LFE2115-LFB2115
	.quad L$set$792
	.byte	0x4
	.set L$set$793,LCFI217-LFB2115
	.long L$set$793
	.byte	0xe
	.byte	0x10
	.byte	0x86
	.byte	0x2
	.byte	0x4
	.set L$set$794,LCFI218-LCFI217
	.long L$set$794
	.byte	0xd
	.byte	0x6
	.align 3
LEFDE176:
LSFDE178:
	.set L$set$795,LEFDE178-LASFDE178
	.long L$set$795
LASFDE178:
	.set L$set$796,Lframe0-Lsection__debug_frame
	.long L$set$796
	.quad	LFB2336
	.set L$set$797,LFE2336-LFB2336
	.quad L$set$797
	.byte	0x4
	.set L$set$798,LCFI220-LFB2336
	.long L$set$798
	.byte	0xe
	.byte	0x10
	.byte	0x86
	.byte	0x2
	.byte	0x4
	.set L$set$799,LCFI221-LCFI220
	.long L$set$799
	.byte	0xd
	.byte	0x6
	.align 3
LEFDE178:
LSFDE180:
	.set L$set$800,LEFDE180-LASFDE180
	.long L$set$800
LASFDE180:
	.set L$set$801,Lframe0-Lsection__debug_frame
	.long L$set$801
	.quad	LFB2282
	.set L$set$802,LFE2282-LFB2282
	.quad L$set$802
	.byte	0x4
	.set L$set$803,LCFI223-LFB2282
	.long L$set$803
	.byte	0xe
	.byte	0x10
	.byte	0x86
	.byte	0x2
	.byte	0x4
	.set L$set$804,LCFI224-LCFI223
	.long L$set$804
	.byte	0xd
	.byte	0x6
	.align 3
LEFDE180:
LSFDE182:
	.set L$set$805,LEFDE182-LASFDE182
	.long L$set$805
LASFDE182:
	.set L$set$806,Lframe0-Lsection__debug_frame
	.long L$set$806
	.quad	LFB2166
	.set L$set$807,LFE2166-LFB2166
	.quad L$set$807
	.byte	0x4
	.set L$set$808,LCFI226-LFB2166
	.long L$set$808
	.byte	0xe
	.byte	0x10
	.byte	0x86
	.byte	0x2
	.byte	0x4
	.set L$set$809,LCFI227-LCFI226
	.long L$set$809
	.byte	0xd
	.byte	0x6
	.align 3
LEFDE182:
LSFDE184:
	.set L$set$810,LEFDE184-LASFDE184
	.long L$set$810
LASFDE184:
	.set L$set$811,Lframe0-Lsection__debug_frame
	.long L$set$811
	.quad	LFB2340
	.set L$set$812,LFE2340-LFB2340
	.quad L$set$812
	.byte	0x4
	.set L$set$813,LCFI229-LFB2340
	.long L$set$813
	.byte	0xe
	.byte	0x10
	.byte	0x86
	.byte	0x2
	.byte	0x4
	.set L$set$814,LCFI230-LCFI229
	.long L$set$814
	.byte	0xd
	.byte	0x6
	.align 3
LEFDE184:
LSFDE186:
	.set L$set$815,LEFDE186-LASFDE186
	.long L$set$815
LASFDE186:
	.set L$set$816,Lframe0-Lsection__debug_frame
	.long L$set$816
	.quad	LFB2226
	.set L$set$817,LFE2226-LFB2226
	.quad L$set$817
	.byte	0x4
	.set L$set$818,LCFI231-LFB2226
	.long L$set$818
	.byte	0xe
	.byte	0x10
	.byte	0x86
	.byte	0x2
	.byte	0x4
	.set L$set$819,LCFI232-LCFI231
	.long L$set$819
	.byte	0xd
	.byte	0x6
	.align 3
LEFDE186:
LSFDE188:
	.set L$set$820,LEFDE188-LASFDE188
	.long L$set$820
LASFDE188:
	.set L$set$821,Lframe0-Lsection__debug_frame
	.long L$set$821
	.quad	LFB2225
	.set L$set$822,LFE2225-LFB2225
	.quad L$set$822
	.byte	0x4
	.set L$set$823,LCFI234-LFB2225
	.long L$set$823
	.byte	0xe
	.byte	0x10
	.byte	0x86
	.byte	0x2
	.byte	0x4
	.set L$set$824,LCFI235-LCFI234
	.long L$set$824
	.byte	0xd
	.byte	0x6
	.align 3
LEFDE188:
LSFDE190:
	.set L$set$825,LEFDE190-LASFDE190
	.long L$set$825
LASFDE190:
	.set L$set$826,Lframe0-Lsection__debug_frame
	.long L$set$826
	.quad	LFB2349
	.set L$set$827,LFE2349-LFB2349
	.quad L$set$827
	.byte	0x4
	.set L$set$828,LCFI237-LFB2349
	.long L$set$828
	.byte	0xe
	.byte	0x10
	.byte	0x86
	.byte	0x2
	.byte	0x4
	.set L$set$829,LCFI238-LCFI237
	.long L$set$829
	.byte	0xd
	.byte	0x6
	.align 3
LEFDE190:
LSFDE192:
	.set L$set$830,LEFDE192-LASFDE192
	.long L$set$830
LASFDE192:
	.set L$set$831,Lframe0-Lsection__debug_frame
	.long L$set$831
	.quad	LFB2249
	.set L$set$832,LFE2249-LFB2249
	.quad L$set$832
	.byte	0x4
	.set L$set$833,LCFI240-LFB2249
	.long L$set$833
	.byte	0xe
	.byte	0x10
	.byte	0x86
	.byte	0x2
	.byte	0x4
	.set L$set$834,LCFI241-LCFI240
	.long L$set$834
	.byte	0xd
	.byte	0x6
	.align 3
LEFDE192:
LSFDE194:
	.set L$set$835,LEFDE194-LASFDE194
	.long L$set$835
LASFDE194:
	.set L$set$836,Lframe0-Lsection__debug_frame
	.long L$set$836
	.quad	LFB2139
	.set L$set$837,LFE2139-LFB2139
	.quad L$set$837
	.byte	0x4
	.set L$set$838,LCFI243-LFB2139
	.long L$set$838
	.byte	0xe
	.byte	0x10
	.byte	0x86
	.byte	0x2
	.byte	0x4
	.set L$set$839,LCFI244-LCFI243
	.long L$set$839
	.byte	0xd
	.byte	0x6
	.align 3
LEFDE194:
LSFDE196:
	.set L$set$840,LEFDE196-LASFDE196
	.long L$set$840
LASFDE196:
	.set L$set$841,Lframe0-Lsection__debug_frame
	.long L$set$841
	.quad	LFB2356
	.set L$set$842,LFE2356-LFB2356
	.quad L$set$842
	.byte	0x4
	.set L$set$843,LCFI246-LFB2356
	.long L$set$843
	.byte	0xe
	.byte	0x10
	.byte	0x86
	.byte	0x2
	.byte	0x4
	.set L$set$844,LCFI247-LCFI246
	.long L$set$844
	.byte	0xd
	.byte	0x6
	.align 3
LEFDE196:
LSFDE198:
	.set L$set$845,LEFDE198-LASFDE198
	.long L$set$845
LASFDE198:
	.set L$set$846,Lframe0-Lsection__debug_frame
	.long L$set$846
	.quad	LFB2264
	.set L$set$847,LFE2264-LFB2264
	.quad L$set$847
	.byte	0x4
	.set L$set$848,LCFI248-LFB2264
	.long L$set$848
	.byte	0xe
	.byte	0x10
	.byte	0x86
	.byte	0x2
	.byte	0x4
	.set L$set$849,LCFI249-LCFI248
	.long L$set$849
	.byte	0xd
	.byte	0x6
	.align 3
LEFDE198:
LSFDE200:
	.set L$set$850,LEFDE200-LASFDE200
	.long L$set$850
LASFDE200:
	.set L$set$851,Lframe0-Lsection__debug_frame
	.long L$set$851
	.quad	LFB2263
	.set L$set$852,LFE2263-LFB2263
	.quad L$set$852
	.byte	0x4
	.set L$set$853,LCFI251-LFB2263
	.long L$set$853
	.byte	0xe
	.byte	0x10
	.byte	0x86
	.byte	0x2
	.byte	0x4
	.set L$set$854,LCFI252-LCFI251
	.long L$set$854
	.byte	0xd
	.byte	0x6
	.align 3
LEFDE200:
LSFDE202:
	.set L$set$855,LEFDE202-LASFDE202
	.long L$set$855
LASFDE202:
	.set L$set$856,Lframe0-Lsection__debug_frame
	.long L$set$856
	.quad	LFB2363
	.set L$set$857,LFE2363-LFB2363
	.quad L$set$857
	.byte	0x4
	.set L$set$858,LCFI254-LFB2363
	.long L$set$858
	.byte	0xe
	.byte	0x10
	.byte	0x86
	.byte	0x2
	.byte	0x4
	.set L$set$859,LCFI255-LCFI254
	.long L$set$859
	.byte	0xd
	.byte	0x6
	.align 3
LEFDE202:
LSFDE204:
	.set L$set$860,LEFDE204-LASFDE204
	.long L$set$860
LASFDE204:
	.set L$set$861,Lframe0-Lsection__debug_frame
	.long L$set$861
	.quad	LFB2365
	.set L$set$862,LFE2365-LFB2365
	.quad L$set$862
	.byte	0x4
	.set L$set$863,LCFI256-LFB2365
	.long L$set$863
	.byte	0xe
	.byte	0x10
	.byte	0x86
	.byte	0x2
	.byte	0x4
	.set L$set$864,LCFI257-LCFI256
	.long L$set$864
	.byte	0xd
	.byte	0x6
	.align 3
LEFDE204:
LSFDE206:
	.set L$set$865,LEFDE206-LASFDE206
	.long L$set$865
LASFDE206:
	.set L$set$866,Lframe0-Lsection__debug_frame
	.long L$set$866
	.quad	LFB2367
	.set L$set$867,LFE2367-LFB2367
	.quad L$set$867
	.byte	0x4
	.set L$set$868,LCFI258-LFB2367
	.long L$set$868
	.byte	0xe
	.byte	0x10
	.byte	0x86
	.byte	0x2
	.byte	0x4
	.set L$set$869,LCFI259-LCFI258
	.long L$set$869
	.byte	0xd
	.byte	0x6
	.align 3
LEFDE206:
LSFDE208:
	.set L$set$870,LEFDE208-LASFDE208
	.long L$set$870
LASFDE208:
	.set L$set$871,Lframe0-Lsection__debug_frame
	.long L$set$871
	.quad	LFB2368
	.set L$set$872,LFE2368-LFB2368
	.quad L$set$872
	.byte	0x4
	.set L$set$873,LCFI260-LFB2368
	.long L$set$873
	.byte	0xe
	.byte	0x10
	.byte	0x86
	.byte	0x2
	.byte	0x4
	.set L$set$874,LCFI261-LCFI260
	.long L$set$874
	.byte	0xd
	.byte	0x6
	.align 3
LEFDE208:
LSFDE210:
	.set L$set$875,LEFDE210-LASFDE210
	.long L$set$875
LASFDE210:
	.set L$set$876,Lframe0-Lsection__debug_frame
	.long L$set$876
	.quad	LFB2369
	.set L$set$877,LFE2369-LFB2369
	.quad L$set$877
	.byte	0x4
	.set L$set$878,LCFI262-LFB2369
	.long L$set$878
	.byte	0xe
	.byte	0x10
	.byte	0x86
	.byte	0x2
	.byte	0x4
	.set L$set$879,LCFI263-LCFI262
	.long L$set$879
	.byte	0xd
	.byte	0x6
	.align 3
LEFDE210:
LSFDE212:
	.set L$set$880,LEFDE212-LASFDE212
	.long L$set$880
LASFDE212:
	.set L$set$881,Lframe0-Lsection__debug_frame
	.long L$set$881
	.quad	LFB2372
	.set L$set$882,LFE2372-LFB2372
	.quad L$set$882
	.byte	0x4
	.set L$set$883,LCFI264-LFB2372
	.long L$set$883
	.byte	0xe
	.byte	0x10
	.byte	0x86
	.byte	0x2
	.byte	0x4
	.set L$set$884,LCFI265-LCFI264
	.long L$set$884
	.byte	0xd
	.byte	0x6
	.align 3
LEFDE212:
LSFDE214:
	.set L$set$885,LEFDE214-LASFDE214
	.long L$set$885
LASFDE214:
	.set L$set$886,Lframe0-Lsection__debug_frame
	.long L$set$886
	.quad	LFB2315
	.set L$set$887,LFE2315-LFB2315
	.quad L$set$887
	.byte	0x4
	.set L$set$888,LCFI266-LFB2315
	.long L$set$888
	.byte	0xe
	.byte	0x10
	.byte	0x86
	.byte	0x2
	.byte	0x4
	.set L$set$889,LCFI267-LCFI266
	.long L$set$889
	.byte	0xd
	.byte	0x6
	.align 3
LEFDE214:
LSFDE216:
	.set L$set$890,LEFDE216-LASFDE216
	.long L$set$890
LASFDE216:
	.set L$set$891,Lframe0-Lsection__debug_frame
	.long L$set$891
	.quad	LFB2381
	.set L$set$892,LFE2381-LFB2381
	.quad L$set$892
	.byte	0x4
	.set L$set$893,LCFI269-LFB2381
	.long L$set$893
	.byte	0xe
	.byte	0x10
	.byte	0x86
	.byte	0x2
	.byte	0x4
	.set L$set$894,LCFI270-LCFI269
	.long L$set$894
	.byte	0xd
	.byte	0x6
	.align 3
LEFDE216:
LSFDE218:
	.set L$set$895,LEFDE218-LASFDE218
	.long L$set$895
LASFDE218:
	.set L$set$896,Lframe0-Lsection__debug_frame
	.long L$set$896
	.quad	LFB2378
	.set L$set$897,LFE2378-LFB2378
	.quad L$set$897
	.byte	0x4
	.set L$set$898,LCFI271-LFB2378
	.long L$set$898
	.byte	0xe
	.byte	0x10
	.byte	0x86
	.byte	0x2
	.byte	0x4
	.set L$set$899,LCFI272-LCFI271
	.long L$set$899
	.byte	0xd
	.byte	0x6
	.align 3
LEFDE218:
LSFDE220:
	.set L$set$900,LEFDE220-LASFDE220
	.long L$set$900
LASFDE220:
	.set L$set$901,Lframe0-Lsection__debug_frame
	.long L$set$901
	.quad	LFB2383
	.set L$set$902,LFE2383-LFB2383
	.quad L$set$902
	.byte	0x4
	.set L$set$903,LCFI274-LFB2383
	.long L$set$903
	.byte	0xe
	.byte	0x10
	.byte	0x86
	.byte	0x2
	.byte	0x4
	.set L$set$904,LCFI275-LCFI274
	.long L$set$904
	.byte	0xd
	.byte	0x6
	.align 3
LEFDE220:
LSFDE222:
	.set L$set$905,LEFDE222-LASFDE222
	.long L$set$905
LASFDE222:
	.set L$set$906,Lframe0-Lsection__debug_frame
	.long L$set$906
	.quad	LFB2327
	.set L$set$907,LFE2327-LFB2327
	.quad L$set$907
	.byte	0x4
	.set L$set$908,LCFI276-LFB2327
	.long L$set$908
	.byte	0xe
	.byte	0x10
	.byte	0x86
	.byte	0x2
	.byte	0x4
	.set L$set$909,LCFI277-LCFI276
	.long L$set$909
	.byte	0xd
	.byte	0x6
	.byte	0x4
	.set L$set$910,LCFI279-LCFI277
	.long L$set$910
	.byte	0x83
	.byte	0x3
	.align 3
LEFDE222:
LSFDE224:
	.set L$set$911,LEFDE224-LASFDE224
	.long L$set$911
LASFDE224:
	.set L$set$912,Lframe0-Lsection__debug_frame
	.long L$set$912
	.quad	LFB2386
	.set L$set$913,LFE2386-LFB2386
	.quad L$set$913
	.byte	0x4
	.set L$set$914,LCFI280-LFB2386
	.long L$set$914
	.byte	0xe
	.byte	0x10
	.byte	0x86
	.byte	0x2
	.byte	0x4
	.set L$set$915,LCFI281-LCFI280
	.long L$set$915
	.byte	0xd
	.byte	0x6
	.align 3
LEFDE224:
LSFDE226:
	.set L$set$916,LEFDE226-LASFDE226
	.long L$set$916
LASFDE226:
	.set L$set$917,Lframe0-Lsection__debug_frame
	.long L$set$917
	.quad	LFB2333
	.set L$set$918,LFE2333-LFB2333
	.quad L$set$918
	.byte	0x4
	.set L$set$919,LCFI282-LFB2333
	.long L$set$919
	.byte	0xe
	.byte	0x10
	.byte	0x86
	.byte	0x2
	.byte	0x4
	.set L$set$920,LCFI283-LCFI282
	.long L$set$920
	.byte	0xd
	.byte	0x6
	.align 3
LEFDE226:
LSFDE228:
	.set L$set$921,LEFDE228-LASFDE228
	.long L$set$921
LASFDE228:
	.set L$set$922,Lframe0-Lsection__debug_frame
	.long L$set$922
	.quad	LFB2220
	.set L$set$923,LFE2220-LFB2220
	.quad L$set$923
	.byte	0x4
	.set L$set$924,LCFI285-LFB2220
	.long L$set$924
	.byte	0xe
	.byte	0x10
	.byte	0x86
	.byte	0x2
	.byte	0x4
	.set L$set$925,LCFI286-LCFI285
	.long L$set$925
	.byte	0xd
	.byte	0x6
	.align 3
LEFDE228:
LSFDE230:
	.set L$set$926,LEFDE230-LASFDE230
	.long L$set$926
LASFDE230:
	.set L$set$927,Lframe0-Lsection__debug_frame
	.long L$set$927
	.quad	LFB2228
	.set L$set$928,LFE2228-LFB2228
	.quad L$set$928
	.byte	0x4
	.set L$set$929,LCFI288-LFB2228
	.long L$set$929
	.byte	0xe
	.byte	0x10
	.byte	0x86
	.byte	0x2
	.byte	0x4
	.set L$set$930,LCFI289-LCFI288
	.long L$set$930
	.byte	0xd
	.byte	0x6
	.align 3
LEFDE230:
LSFDE232:
	.set L$set$931,LEFDE232-LASFDE232
	.long L$set$931
LASFDE232:
	.set L$set$932,Lframe0-Lsection__debug_frame
	.long L$set$932
	.quad	LFB2126
	.set L$set$933,LFE2126-LFB2126
	.quad L$set$933
	.byte	0x4
	.set L$set$934,LCFI291-LFB2126
	.long L$set$934
	.byte	0xe
	.byte	0x10
	.byte	0x86
	.byte	0x2
	.byte	0x4
	.set L$set$935,LCFI292-LCFI291
	.long L$set$935
	.byte	0xd
	.byte	0x6
	.align 3
LEFDE232:
LSFDE234:
	.set L$set$936,LEFDE234-LASFDE234
	.long L$set$936
LASFDE234:
	.set L$set$937,Lframe0-Lsection__debug_frame
	.long L$set$937
	.quad	LFB2389
	.set L$set$938,LFE2389-LFB2389
	.quad L$set$938
	.byte	0x4
	.set L$set$939,LCFI294-LFB2389
	.long L$set$939
	.byte	0xe
	.byte	0x10
	.byte	0x86
	.byte	0x2
	.byte	0x4
	.set L$set$940,LCFI295-LCFI294
	.long L$set$940
	.byte	0xd
	.byte	0x6
	.align 3
LEFDE234:
LSFDE236:
	.set L$set$941,LEFDE236-LASFDE236
	.long L$set$941
LASFDE236:
	.set L$set$942,Lframe0-Lsection__debug_frame
	.long L$set$942
	.quad	LFB2391
	.set L$set$943,LFE2391-LFB2391
	.quad L$set$943
	.byte	0x4
	.set L$set$944,LCFI296-LFB2391
	.long L$set$944
	.byte	0xe
	.byte	0x10
	.byte	0x86
	.byte	0x2
	.byte	0x4
	.set L$set$945,LCFI297-LCFI296
	.long L$set$945
	.byte	0xd
	.byte	0x6
	.align 3
LEFDE236:
LSFDE238:
	.set L$set$946,LEFDE238-LASFDE238
	.long L$set$946
LASFDE238:
	.set L$set$947,Lframe0-Lsection__debug_frame
	.long L$set$947
	.quad	LFB2344
	.set L$set$948,LFE2344-LFB2344
	.quad L$set$948
	.byte	0x4
	.set L$set$949,LCFI298-LFB2344
	.long L$set$949
	.byte	0xe
	.byte	0x10
	.byte	0x86
	.byte	0x2
	.byte	0x4
	.set L$set$950,LCFI299-LCFI298
	.long L$set$950
	.byte	0xd
	.byte	0x6
	.align 3
LEFDE238:
LSFDE240:
	.set L$set$951,LEFDE240-LASFDE240
	.long L$set$951
LASFDE240:
	.set L$set$952,Lframe0-Lsection__debug_frame
	.long L$set$952
	.quad	LFB2233
	.set L$set$953,LFE2233-LFB2233
	.quad L$set$953
	.byte	0x4
	.set L$set$954,LCFI301-LFB2233
	.long L$set$954
	.byte	0xe
	.byte	0x10
	.byte	0x86
	.byte	0x2
	.byte	0x4
	.set L$set$955,LCFI302-LCFI301
	.long L$set$955
	.byte	0xd
	.byte	0x6
	.align 3
LEFDE240:
LSFDE242:
	.set L$set$956,LEFDE242-LASFDE242
	.long L$set$956
LASFDE242:
	.set L$set$957,Lframe0-Lsection__debug_frame
	.long L$set$957
	.quad	LFB2394
	.set L$set$958,LFE2394-LFB2394
	.quad L$set$958
	.byte	0x4
	.set L$set$959,LCFI304-LFB2394
	.long L$set$959
	.byte	0xe
	.byte	0x10
	.byte	0x86
	.byte	0x2
	.byte	0x4
	.set L$set$960,LCFI305-LCFI304
	.long L$set$960
	.byte	0xd
	.byte	0x6
	.align 3
LEFDE242:
LSFDE244:
	.set L$set$961,LEFDE244-LASFDE244
	.long L$set$961
LASFDE244:
	.set L$set$962,Lframe0-Lsection__debug_frame
	.long L$set$962
	.quad	LFB2350
	.set L$set$963,LFE2350-LFB2350
	.quad L$set$963
	.byte	0x4
	.set L$set$964,LCFI306-LFB2350
	.long L$set$964
	.byte	0xe
	.byte	0x10
	.byte	0x86
	.byte	0x2
	.byte	0x4
	.set L$set$965,LCFI307-LCFI306
	.long L$set$965
	.byte	0xd
	.byte	0x6
	.align 3
LEFDE244:
LSFDE246:
	.set L$set$966,LEFDE246-LASFDE246
	.long L$set$966
LASFDE246:
	.set L$set$967,Lframe0-Lsection__debug_frame
	.long L$set$967
	.quad	LFB2255
	.set L$set$968,LFE2255-LFB2255
	.quad L$set$968
	.byte	0x4
	.set L$set$969,LCFI309-LFB2255
	.long L$set$969
	.byte	0xe
	.byte	0x10
	.byte	0x86
	.byte	0x2
	.byte	0x4
	.set L$set$970,LCFI310-LCFI309
	.long L$set$970
	.byte	0xd
	.byte	0x6
	.align 3
LEFDE246:
LSFDE248:
	.set L$set$971,LEFDE248-LASFDE248
	.long L$set$971
LASFDE248:
	.set L$set$972,Lframe0-Lsection__debug_frame
	.long L$set$972
	.quad	LFB2271
	.set L$set$973,LFE2271-LFB2271
	.quad L$set$973
	.byte	0x4
	.set L$set$974,LCFI312-LFB2271
	.long L$set$974
	.byte	0xe
	.byte	0x10
	.byte	0x86
	.byte	0x2
	.byte	0x4
	.set L$set$975,LCFI313-LCFI312
	.long L$set$975
	.byte	0xd
	.byte	0x6
	.align 3
LEFDE248:
LSFDE250:
	.set L$set$976,LEFDE250-LASFDE250
	.long L$set$976
LASFDE250:
	.set L$set$977,Lframe0-Lsection__debug_frame
	.long L$set$977
	.quad	LFB2154
	.set L$set$978,LFE2154-LFB2154
	.quad L$set$978
	.byte	0x4
	.set L$set$979,LCFI315-LFB2154
	.long L$set$979
	.byte	0xe
	.byte	0x10
	.byte	0x86
	.byte	0x2
	.byte	0x4
	.set L$set$980,LCFI316-LCFI315
	.long L$set$980
	.byte	0xd
	.byte	0x6
	.align 3
LEFDE250:
LSFDE252:
	.set L$set$981,LEFDE252-LASFDE252
	.long L$set$981
LASFDE252:
	.set L$set$982,Lframe0-Lsection__debug_frame
	.long L$set$982
	.quad	LFB2396
	.set L$set$983,LFE2396-LFB2396
	.quad L$set$983
	.byte	0x4
	.set L$set$984,LCFI318-LFB2396
	.long L$set$984
	.byte	0xe
	.byte	0x10
	.byte	0x86
	.byte	0x2
	.byte	0x4
	.set L$set$985,LCFI319-LCFI318
	.long L$set$985
	.byte	0xd
	.byte	0x6
	.align 3
LEFDE252:
LSFDE254:
	.set L$set$986,LEFDE254-LASFDE254
	.long L$set$986
LASFDE254:
	.set L$set$987,Lframe0-Lsection__debug_frame
	.long L$set$987
	.quad	LFB2397
	.set L$set$988,LFE2397-LFB2397
	.quad L$set$988
	.byte	0x4
	.set L$set$989,LCFI320-LFB2397
	.long L$set$989
	.byte	0xe
	.byte	0x10
	.byte	0x86
	.byte	0x2
	.byte	0x4
	.set L$set$990,LCFI321-LCFI320
	.long L$set$990
	.byte	0xd
	.byte	0x6
	.align 3
LEFDE254:
LSFDE256:
	.set L$set$991,LEFDE256-LASFDE256
	.long L$set$991
LASFDE256:
	.set L$set$992,Lframe0-Lsection__debug_frame
	.long L$set$992
	.quad	LFB2352
	.set L$set$993,LFE2352-LFB2352
	.quad L$set$993
	.byte	0x4
	.set L$set$994,LCFI322-LFB2352
	.long L$set$994
	.byte	0xe
	.byte	0x10
	.byte	0x86
	.byte	0x2
	.byte	0x4
	.set L$set$995,LCFI323-LCFI322
	.long L$set$995
	.byte	0xd
	.byte	0x6
	.align 3
LEFDE256:
LSFDE258:
	.set L$set$996,LEFDE258-LASFDE258
	.long L$set$996
LASFDE258:
	.set L$set$997,Lframe0-Lsection__debug_frame
	.long L$set$997
	.quad	LFB2400
	.set L$set$998,LFE2400-LFB2400
	.quad L$set$998
	.byte	0x4
	.set L$set$999,LCFI325-LFB2400
	.long L$set$999
	.byte	0xe
	.byte	0x10
	.byte	0x86
	.byte	0x2
	.byte	0x4
	.set L$set$1000,LCFI326-LCFI325
	.long L$set$1000
	.byte	0xd
	.byte	0x6
	.align 3
LEFDE258:
LSFDE260:
	.set L$set$1001,LEFDE260-LASFDE260
	.long L$set$1001
LASFDE260:
	.set L$set$1002,Lframe0-Lsection__debug_frame
	.long L$set$1002
	.quad	LFB2402
	.set L$set$1003,LFE2402-LFB2402
	.quad L$set$1003
	.byte	0x4
	.set L$set$1004,LCFI327-LFB2402
	.long L$set$1004
	.byte	0xe
	.byte	0x10
	.byte	0x86
	.byte	0x2
	.byte	0x4
	.set L$set$1005,LCFI328-LCFI327
	.long L$set$1005
	.byte	0xd
	.byte	0x6
	.align 3
LEFDE260:
LSFDE262:
	.set L$set$1006,LEFDE262-LASFDE262
	.long L$set$1006
LASFDE262:
	.set L$set$1007,Lframe0-Lsection__debug_frame
	.long L$set$1007
	.quad	LFB2360
	.set L$set$1008,LFE2360-LFB2360
	.quad L$set$1008
	.byte	0x4
	.set L$set$1009,LCFI329-LFB2360
	.long L$set$1009
	.byte	0xe
	.byte	0x10
	.byte	0x86
	.byte	0x2
	.byte	0x4
	.set L$set$1010,LCFI330-LCFI329
	.long L$set$1010
	.byte	0xd
	.byte	0x6
	.align 3
LEFDE262:
LSFDE264:
	.set L$set$1011,LEFDE264-LASFDE264
	.long L$set$1011
LASFDE264:
	.set L$set$1012,Lframe0-Lsection__debug_frame
	.long L$set$1012
	.quad	LFB2268
	.set L$set$1013,LFE2268-LFB2268
	.quad L$set$1013
	.byte	0x4
	.set L$set$1014,LCFI332-LFB2268
	.long L$set$1014
	.byte	0xe
	.byte	0x10
	.byte	0x86
	.byte	0x2
	.byte	0x4
	.set L$set$1015,LCFI333-LCFI332
	.long L$set$1015
	.byte	0xd
	.byte	0x6
	.align 3
LEFDE264:
LSFDE266:
	.set L$set$1016,LEFDE266-LASFDE266
	.long L$set$1016
LASFDE266:
	.set L$set$1017,Lframe0-Lsection__debug_frame
	.long L$set$1017
	.quad	LFB2406
	.set L$set$1018,LFE2406-LFB2406
	.quad L$set$1018
	.byte	0x4
	.set L$set$1019,LCFI335-LFB2406
	.long L$set$1019
	.byte	0xe
	.byte	0x10
	.byte	0x86
	.byte	0x2
	.byte	0x4
	.set L$set$1020,LCFI336-LCFI335
	.long L$set$1020
	.byte	0xd
	.byte	0x6
	.align 3
LEFDE266:
LSFDE268:
	.set L$set$1021,LEFDE268-LASFDE268
	.long L$set$1021
LASFDE268:
	.set L$set$1022,Lframe0-Lsection__debug_frame
	.long L$set$1022
	.quad	LFB2366
	.set L$set$1023,LFE2366-LFB2366
	.quad L$set$1023
	.byte	0x4
	.set L$set$1024,LCFI337-LFB2366
	.long L$set$1024
	.byte	0xe
	.byte	0x10
	.byte	0x86
	.byte	0x2
	.byte	0x4
	.set L$set$1025,LCFI338-LCFI337
	.long L$set$1025
	.byte	0xd
	.byte	0x6
	.align 3
LEFDE268:
LSFDE270:
	.set L$set$1026,LEFDE270-LASFDE270
	.long L$set$1026
LASFDE270:
	.set L$set$1027,Lframe0-Lsection__debug_frame
	.long L$set$1027
	.quad	LFB2407
	.set L$set$1028,LFE2407-LFB2407
	.quad L$set$1028
	.byte	0x4
	.set L$set$1029,LCFI340-LFB2407
	.long L$set$1029
	.byte	0xe
	.byte	0x10
	.byte	0x86
	.byte	0x2
	.byte	0x4
	.set L$set$1030,LCFI341-LCFI340
	.long L$set$1030
	.byte	0xd
	.byte	0x6
	.byte	0x4
	.set L$set$1031,LCFI343-LCFI341
	.long L$set$1031
	.byte	0x83
	.byte	0x3
	.align 3
LEFDE270:
LSFDE272:
	.set L$set$1032,LEFDE272-LASFDE272
	.long L$set$1032
LASFDE272:
	.set L$set$1033,Lframe0-Lsection__debug_frame
	.long L$set$1033
	.quad	LFB2409
	.set L$set$1034,LFE2409-LFB2409
	.quad L$set$1034
	.byte	0x4
	.set L$set$1035,LCFI344-LFB2409
	.long L$set$1035
	.byte	0xe
	.byte	0x10
	.byte	0x86
	.byte	0x2
	.byte	0x4
	.set L$set$1036,LCFI345-LCFI344
	.long L$set$1036
	.byte	0xd
	.byte	0x6
	.byte	0x4
	.set L$set$1037,LCFI347-LCFI345
	.long L$set$1037
	.byte	0x83
	.byte	0x3
	.align 3
LEFDE272:
LSFDE274:
	.set L$set$1038,LEFDE274-LASFDE274
	.long L$set$1038
LASFDE274:
	.set L$set$1039,Lframe0-Lsection__debug_frame
	.long L$set$1039
	.quad	LFB2413
	.set L$set$1040,LFE2413-LFB2413
	.quad L$set$1040
	.byte	0x4
	.set L$set$1041,LCFI348-LFB2413
	.long L$set$1041
	.byte	0xe
	.byte	0x10
	.byte	0x86
	.byte	0x2
	.byte	0x4
	.set L$set$1042,LCFI349-LCFI348
	.long L$set$1042
	.byte	0xd
	.byte	0x6
	.align 3
LEFDE274:
LSFDE276:
	.set L$set$1043,LEFDE276-LASFDE276
	.long L$set$1043
LASFDE276:
	.set L$set$1044,Lframe0-Lsection__debug_frame
	.long L$set$1044
	.quad	LFB2415
	.set L$set$1045,LFE2415-LFB2415
	.quad L$set$1045
	.byte	0x4
	.set L$set$1046,LCFI350-LFB2415
	.long L$set$1046
	.byte	0xe
	.byte	0x10
	.byte	0x86
	.byte	0x2
	.byte	0x4
	.set L$set$1047,LCFI351-LCFI350
	.long L$set$1047
	.byte	0xd
	.byte	0x6
	.align 3
LEFDE276:
LSFDE278:
	.set L$set$1048,LEFDE278-LASFDE278
	.long L$set$1048
LASFDE278:
	.set L$set$1049,Lframe0-Lsection__debug_frame
	.long L$set$1049
	.quad	LFB2375
	.set L$set$1050,LFE2375-LFB2375
	.quad L$set$1050
	.byte	0x4
	.set L$set$1051,LCFI352-LFB2375
	.long L$set$1051
	.byte	0xe
	.byte	0x10
	.byte	0x86
	.byte	0x2
	.byte	0x4
	.set L$set$1052,LCFI353-LCFI352
	.long L$set$1052
	.byte	0xd
	.byte	0x6
	.align 3
LEFDE278:
LSFDE280:
	.set L$set$1053,LEFDE280-LASFDE280
	.long L$set$1053
LASFDE280:
	.set L$set$1054,Lframe0-Lsection__debug_frame
	.long L$set$1054
	.quad	LFB2318
	.set L$set$1055,LFE2318-LFB2318
	.quad L$set$1055
	.byte	0x4
	.set L$set$1056,LCFI355-LFB2318
	.long L$set$1056
	.byte	0xe
	.byte	0x10
	.byte	0x86
	.byte	0x2
	.byte	0x4
	.set L$set$1057,LCFI356-LCFI355
	.long L$set$1057
	.byte	0xd
	.byte	0x6
	.align 3
LEFDE280:
LSFDE282:
	.set L$set$1058,LEFDE282-LASFDE282
	.long L$set$1058
LASFDE282:
	.set L$set$1059,Lframe0-Lsection__debug_frame
	.long L$set$1059
	.quad	LFB2198
	.set L$set$1060,LFE2198-LFB2198
	.quad L$set$1060
	.byte	0x4
	.set L$set$1061,LCFI358-LFB2198
	.long L$set$1061
	.byte	0xe
	.byte	0x10
	.byte	0x86
	.byte	0x2
	.byte	0x4
	.set L$set$1062,LCFI359-LCFI358
	.long L$set$1062
	.byte	0xd
	.byte	0x6
	.align 3
LEFDE282:
LSFDE284:
	.set L$set$1063,LEFDE284-LASFDE284
	.long L$set$1063
LASFDE284:
	.set L$set$1064,Lframe0-Lsection__debug_frame
	.long L$set$1064
	.quad	LFB2100
	.set L$set$1065,LFE2100-LFB2100
	.quad L$set$1065
	.byte	0x4
	.set L$set$1066,LCFI361-LFB2100
	.long L$set$1066
	.byte	0xe
	.byte	0x10
	.byte	0x86
	.byte	0x2
	.byte	0x4
	.set L$set$1067,LCFI362-LCFI361
	.long L$set$1067
	.byte	0xd
	.byte	0x6
	.align 3
LEFDE284:
LSFDE286:
	.set L$set$1068,LEFDE286-LASFDE286
	.long L$set$1068
LASFDE286:
	.set L$set$1069,Lframe0-Lsection__debug_frame
	.long L$set$1069
	.quad	LFB2417
	.set L$set$1070,LFE2417-LFB2417
	.quad L$set$1070
	.byte	0x4
	.set L$set$1071,LCFI364-LFB2417
	.long L$set$1071
	.byte	0xe
	.byte	0x10
	.byte	0x86
	.byte	0x2
	.byte	0x4
	.set L$set$1072,LCFI365-LCFI364
	.long L$set$1072
	.byte	0xd
	.byte	0x6
	.align 3
LEFDE286:
LSFDE288:
	.set L$set$1073,LEFDE288-LASFDE288
	.long L$set$1073
LASFDE288:
	.set L$set$1074,Lframe0-Lsection__debug_frame
	.long L$set$1074
	.quad	LFB2420
	.set L$set$1075,LFE2420-LFB2420
	.quad L$set$1075
	.byte	0x4
	.set L$set$1076,LCFI366-LFB2420
	.long L$set$1076
	.byte	0xe
	.byte	0x10
	.byte	0x86
	.byte	0x2
	.byte	0x4
	.set L$set$1077,LCFI367-LCFI366
	.long L$set$1077
	.byte	0xd
	.byte	0x6
	.align 3
LEFDE288:
LSFDE290:
	.set L$set$1078,LEFDE290-LASFDE290
	.long L$set$1078
LASFDE290:
	.set L$set$1079,Lframe0-Lsection__debug_frame
	.long L$set$1079
	.quad	LFB2377
	.set L$set$1080,LFE2377-LFB2377
	.quad L$set$1080
	.byte	0x4
	.set L$set$1081,LCFI369-LFB2377
	.long L$set$1081
	.byte	0xe
	.byte	0x10
	.byte	0x86
	.byte	0x2
	.byte	0x4
	.set L$set$1082,LCFI370-LCFI369
	.long L$set$1082
	.byte	0xd
	.byte	0x6
	.byte	0x4
	.set L$set$1083,LCFI373-LCFI370
	.long L$set$1083
	.byte	0x83
	.byte	0x4
	.byte	0x8c
	.byte	0x3
	.align 3
LEFDE290:
LSFDE292:
	.set L$set$1084,LEFDE292-LASFDE292
	.long L$set$1084
LASFDE292:
	.set L$set$1085,Lframe0-Lsection__debug_frame
	.long L$set$1085
	.quad	LFB2422
	.set L$set$1086,LFE2422-LFB2422
	.quad L$set$1086
	.byte	0x4
	.set L$set$1087,LCFI374-LFB2422
	.long L$set$1087
	.byte	0xe
	.byte	0x10
	.byte	0x86
	.byte	0x2
	.byte	0x4
	.set L$set$1088,LCFI375-LCFI374
	.long L$set$1088
	.byte	0xd
	.byte	0x6
	.align 3
LEFDE292:
LSFDE294:
	.set L$set$1089,LEFDE294-LASFDE294
	.long L$set$1089
LASFDE294:
	.set L$set$1090,Lframe0-Lsection__debug_frame
	.long L$set$1090
	.quad	LFB2384
	.set L$set$1091,LFE2384-LFB2384
	.quad L$set$1091
	.byte	0x4
	.set L$set$1092,LCFI376-LFB2384
	.long L$set$1092
	.byte	0xe
	.byte	0x10
	.byte	0x86
	.byte	0x2
	.byte	0x4
	.set L$set$1093,LCFI377-LCFI376
	.long L$set$1093
	.byte	0xd
	.byte	0x6
	.byte	0x4
	.set L$set$1094,LCFI379-LCFI377
	.long L$set$1094
	.byte	0x83
	.byte	0x3
	.align 3
LEFDE294:
LSFDE296:
	.set L$set$1095,LEFDE296-LASFDE296
	.long L$set$1095
LASFDE296:
	.set L$set$1096,Lframe0-Lsection__debug_frame
	.long L$set$1096
	.quad	LFB2424
	.set L$set$1097,LFE2424-LFB2424
	.quad L$set$1097
	.byte	0x4
	.set L$set$1098,LCFI380-LFB2424
	.long L$set$1098
	.byte	0xe
	.byte	0x10
	.byte	0x86
	.byte	0x2
	.byte	0x4
	.set L$set$1099,LCFI381-LCFI380
	.long L$set$1099
	.byte	0xd
	.byte	0x6
	.align 3
LEFDE296:
LSFDE298:
	.set L$set$1100,LEFDE298-LASFDE298
	.long L$set$1100
LASFDE298:
	.set L$set$1101,Lframe0-Lsection__debug_frame
	.long L$set$1101
	.quad	LFB2431
	.set L$set$1102,LFE2431-LFB2431
	.quad L$set$1102
	.byte	0x4
	.set L$set$1103,LCFI383-LFB2431
	.long L$set$1103
	.byte	0xe
	.byte	0x10
	.byte	0x86
	.byte	0x2
	.byte	0x4
	.set L$set$1104,LCFI384-LCFI383
	.long L$set$1104
	.byte	0xd
	.byte	0x6
	.align 3
LEFDE298:
LSFDE300:
	.set L$set$1105,LEFDE300-LASFDE300
	.long L$set$1105
LASFDE300:
	.set L$set$1106,Lframe0-Lsection__debug_frame
	.long L$set$1106
	.quad	LFB2432
	.set L$set$1107,LFE2432-LFB2432
	.quad L$set$1107
	.byte	0x4
	.set L$set$1108,LCFI386-LFB2432
	.long L$set$1108
	.byte	0xe
	.byte	0x10
	.byte	0x86
	.byte	0x2
	.byte	0x4
	.set L$set$1109,LCFI387-LCFI386
	.long L$set$1109
	.byte	0xd
	.byte	0x6
	.align 3
LEFDE300:
LSFDE302:
	.set L$set$1110,LEFDE302-LASFDE302
	.long L$set$1110
LASFDE302:
	.set L$set$1111,Lframe0-Lsection__debug_frame
	.long L$set$1111
	.quad	LFB2408
	.set L$set$1112,LFE2408-LFB2408
	.quad L$set$1112
	.byte	0x4
	.set L$set$1113,LCFI389-LFB2408
	.long L$set$1113
	.byte	0xe
	.byte	0x10
	.byte	0x86
	.byte	0x2
	.byte	0x4
	.set L$set$1114,LCFI390-LCFI389
	.long L$set$1114
	.byte	0xd
	.byte	0x6
	.align 3
LEFDE302:
LSFDE304:
	.set L$set$1115,LEFDE304-LASFDE304
	.long L$set$1115
LASFDE304:
	.set L$set$1116,Lframe0-Lsection__debug_frame
	.long L$set$1116
	.quad	LFB2441
	.set L$set$1117,LFE2441-LFB2441
	.quad L$set$1117
	.byte	0x4
	.set L$set$1118,LCFI392-LFB2441
	.long L$set$1118
	.byte	0xe
	.byte	0x10
	.byte	0x86
	.byte	0x2
	.byte	0x4
	.set L$set$1119,LCFI393-LCFI392
	.long L$set$1119
	.byte	0xd
	.byte	0x6
	.align 3
LEFDE304:
LSFDE306:
	.set L$set$1120,LEFDE306-LASFDE306
	.long L$set$1120
LASFDE306:
	.set L$set$1121,Lframe0-Lsection__debug_frame
	.long L$set$1121
	.quad	LFB2434
	.set L$set$1122,LFE2434-LFB2434
	.quad L$set$1122
	.byte	0x4
	.set L$set$1123,LCFI394-LFB2434
	.long L$set$1123
	.byte	0xe
	.byte	0x10
	.byte	0x86
	.byte	0x2
	.byte	0x4
	.set L$set$1124,LCFI395-LCFI394
	.long L$set$1124
	.byte	0xd
	.byte	0x6
	.align 3
LEFDE306:
LSFDE308:
	.set L$set$1125,LEFDE308-LASFDE308
	.long L$set$1125
LASFDE308:
	.set L$set$1126,Lframe0-Lsection__debug_frame
	.long L$set$1126
	.quad	LFB2411
	.set L$set$1127,LFE2411-LFB2411
	.quad L$set$1127
	.byte	0x4
	.set L$set$1128,LCFI397-LFB2411
	.long L$set$1128
	.byte	0xe
	.byte	0x10
	.byte	0x86
	.byte	0x2
	.byte	0x4
	.set L$set$1129,LCFI398-LCFI397
	.long L$set$1129
	.byte	0xd
	.byte	0x6
	.align 3
LEFDE308:
LSFDE310:
	.set L$set$1130,LEFDE310-LASFDE310
	.long L$set$1130
LASFDE310:
	.set L$set$1131,Lframe0-Lsection__debug_frame
	.long L$set$1131
	.quad	LFB2443
	.set L$set$1132,LFE2443-LFB2443
	.quad L$set$1132
	.byte	0x4
	.set L$set$1133,LCFI400-LFB2443
	.long L$set$1133
	.byte	0xe
	.byte	0x10
	.byte	0x86
	.byte	0x2
	.byte	0x4
	.set L$set$1134,LCFI401-LCFI400
	.long L$set$1134
	.byte	0xd
	.byte	0x6
	.align 3
LEFDE310:
LSFDE312:
	.set L$set$1135,LEFDE312-LASFDE312
	.long L$set$1135
LASFDE312:
	.set L$set$1136,Lframe0-Lsection__debug_frame
	.long L$set$1136
	.quad	LFB2449
	.set L$set$1137,LFE2449-LFB2449
	.quad L$set$1137
	.byte	0x4
	.set L$set$1138,LCFI402-LFB2449
	.long L$set$1138
	.byte	0xe
	.byte	0x10
	.byte	0x86
	.byte	0x2
	.byte	0x4
	.set L$set$1139,LCFI403-LCFI402
	.long L$set$1139
	.byte	0xd
	.byte	0x6
	.align 3
LEFDE312:
LSFDE314:
	.set L$set$1140,LEFDE314-LASFDE314
	.long L$set$1140
LASFDE314:
	.set L$set$1141,Lframe0-Lsection__debug_frame
	.long L$set$1141
	.quad	LFB2447
	.set L$set$1142,LFE2447-LFB2447
	.quad L$set$1142
	.byte	0x4
	.set L$set$1143,LCFI405-LFB2447
	.long L$set$1143
	.byte	0xe
	.byte	0x10
	.byte	0x86
	.byte	0x2
	.byte	0x4
	.set L$set$1144,LCFI406-LCFI405
	.long L$set$1144
	.byte	0xd
	.byte	0x6
	.byte	0x4
	.set L$set$1145,LCFI408-LCFI406
	.long L$set$1145
	.byte	0x83
	.byte	0x3
	.align 3
LEFDE314:
LSFDE316:
	.set L$set$1146,LEFDE316-LASFDE316
	.long L$set$1146
LASFDE316:
	.set L$set$1147,Lframe0-Lsection__debug_frame
	.long L$set$1147
	.quad	LFB2450
	.set L$set$1148,LFE2450-LFB2450
	.quad L$set$1148
	.byte	0x4
	.set L$set$1149,LCFI409-LFB2450
	.long L$set$1149
	.byte	0xe
	.byte	0x10
	.byte	0x86
	.byte	0x2
	.byte	0x4
	.set L$set$1150,LCFI410-LCFI409
	.long L$set$1150
	.byte	0xd
	.byte	0x6
	.align 3
LEFDE316:
LSFDE318:
	.set L$set$1151,LEFDE318-LASFDE318
	.long L$set$1151
LASFDE318:
	.set L$set$1152,Lframe0-Lsection__debug_frame
	.long L$set$1152
	.quad	LFB2448
	.set L$set$1153,LFE2448-LFB2448
	.quad L$set$1153
	.byte	0x4
	.set L$set$1154,LCFI411-LFB2448
	.long L$set$1154
	.byte	0xe
	.byte	0x10
	.byte	0x86
	.byte	0x2
	.byte	0x4
	.set L$set$1155,LCFI412-LCFI411
	.long L$set$1155
	.byte	0xd
	.byte	0x6
	.align 3
LEFDE318:
LSFDE320:
	.set L$set$1156,LEFDE320-LASFDE320
	.long L$set$1156
LASFDE320:
	.set L$set$1157,Lframe0-Lsection__debug_frame
	.long L$set$1157
	.quad	LFB2342
	.set L$set$1158,LFE2342-LFB2342
	.quad L$set$1158
	.byte	0x4
	.set L$set$1159,LCFI414-LFB2342
	.long L$set$1159
	.byte	0xe
	.byte	0x10
	.byte	0x86
	.byte	0x2
	.byte	0x4
	.set L$set$1160,LCFI415-LCFI414
	.long L$set$1160
	.byte	0xd
	.byte	0x6
	.align 3
LEFDE320:
LSFDE322:
	.set L$set$1161,LEFDE322-LASFDE322
	.long L$set$1161
LASFDE322:
	.set L$set$1162,Lframe0-Lsection__debug_frame
	.long L$set$1162
	.quad	LFB2231
	.set L$set$1163,LFE2231-LFB2231
	.quad L$set$1163
	.byte	0x4
	.set L$set$1164,LCFI417-LFB2231
	.long L$set$1164
	.byte	0xe
	.byte	0x10
	.byte	0x86
	.byte	0x2
	.byte	0x4
	.set L$set$1165,LCFI418-LCFI417
	.long L$set$1165
	.byte	0xd
	.byte	0x6
	.align 3
LEFDE322:
LSFDE324:
	.set L$set$1166,LEFDE324-LASFDE324
	.long L$set$1166
LASFDE324:
	.set L$set$1167,Lframe0-Lsection__debug_frame
	.long L$set$1167
	.quad	LFB2217
	.set L$set$1168,LFE2217-LFB2217
	.quad L$set$1168
	.byte	0x4
	.set L$set$1169,LCFI420-LFB2217
	.long L$set$1169
	.byte	0xe
	.byte	0x10
	.byte	0x86
	.byte	0x2
	.byte	0x4
	.set L$set$1170,LCFI421-LCFI420
	.long L$set$1170
	.byte	0xd
	.byte	0x6
	.align 3
LEFDE324:
LSFDE326:
	.set L$set$1171,LEFDE326-LASFDE326
	.long L$set$1171
LASFDE326:
	.set L$set$1172,Lframe0-Lsection__debug_frame
	.long L$set$1172
	.quad	LFB2120
	.set L$set$1173,LFE2120-LFB2120
	.quad L$set$1173
	.byte	0x4
	.set L$set$1174,LCFI423-LFB2120
	.long L$set$1174
	.byte	0xe
	.byte	0x10
	.byte	0x86
	.byte	0x2
	.byte	0x4
	.set L$set$1175,LCFI424-LCFI423
	.long L$set$1175
	.byte	0xd
	.byte	0x6
	.align 3
LEFDE326:
LSFDE328:
	.set L$set$1176,LEFDE328-LASFDE328
	.long L$set$1176
LASFDE328:
	.set L$set$1177,Lframe0-Lsection__debug_frame
	.long L$set$1177
	.quad	LFB2421
	.set L$set$1178,LFE2421-LFB2421
	.quad L$set$1178
	.byte	0x4
	.set L$set$1179,LCFI426-LFB2421
	.long L$set$1179
	.byte	0xe
	.byte	0x10
	.byte	0x86
	.byte	0x2
	.byte	0x4
	.set L$set$1180,LCFI427-LCFI426
	.long L$set$1180
	.byte	0xd
	.byte	0x6
	.align 3
LEFDE328:
LSFDE330:
	.set L$set$1181,LEFDE330-LASFDE330
	.long L$set$1181
LASFDE330:
	.set L$set$1182,Lframe0-Lsection__debug_frame
	.long L$set$1182
	.quad	LFB2382
	.set L$set$1183,LFE2382-LFB2382
	.quad L$set$1183
	.byte	0x4
	.set L$set$1184,LCFI429-LFB2382
	.long L$set$1184
	.byte	0xe
	.byte	0x10
	.byte	0x86
	.byte	0x2
	.byte	0x4
	.set L$set$1185,LCFI430-LCFI429
	.long L$set$1185
	.byte	0xd
	.byte	0x6
	.align 3
LEFDE330:
LSFDE332:
	.set L$set$1186,LEFDE332-LASFDE332
	.long L$set$1186
LASFDE332:
	.set L$set$1187,Lframe0-Lsection__debug_frame
	.long L$set$1187
	.quad	LFB2324
	.set L$set$1188,LFE2324-LFB2324
	.quad L$set$1188
	.byte	0x4
	.set L$set$1189,LCFI432-LFB2324
	.long L$set$1189
	.byte	0xe
	.byte	0x10
	.byte	0x86
	.byte	0x2
	.byte	0x4
	.set L$set$1190,LCFI433-LCFI432
	.long L$set$1190
	.byte	0xd
	.byte	0x6
	.byte	0x4
	.set L$set$1191,LCFI435-LCFI433
	.long L$set$1191
	.byte	0x83
	.byte	0x3
	.align 3
LEFDE332:
LSFDE334:
	.set L$set$1192,LEFDE334-LASFDE334
	.long L$set$1192
LASFDE334:
	.set L$set$1193,Lframe0-Lsection__debug_frame
	.long L$set$1193
	.quad	LFB2202
	.set L$set$1194,LFE2202-LFB2202
	.quad L$set$1194
	.byte	0x4
	.set L$set$1195,LCFI436-LFB2202
	.long L$set$1195
	.byte	0xe
	.byte	0x10
	.byte	0x86
	.byte	0x2
	.byte	0x4
	.set L$set$1196,LCFI437-LCFI436
	.long L$set$1196
	.byte	0xd
	.byte	0x6
	.align 3
LEFDE334:
LSFDE336:
	.set L$set$1197,LEFDE336-LASFDE336
	.long L$set$1197
LASFDE336:
	.set L$set$1198,Lframe0-Lsection__debug_frame
	.long L$set$1198
	.quad	LFB2286
	.set L$set$1199,LFE2286-LFB2286
	.quad L$set$1199
	.byte	0x4
	.set L$set$1200,LCFI439-LFB2286
	.long L$set$1200
	.byte	0xe
	.byte	0x10
	.byte	0x86
	.byte	0x2
	.byte	0x4
	.set L$set$1201,LCFI440-LCFI439
	.long L$set$1201
	.byte	0xd
	.byte	0x6
	.byte	0x4
	.set L$set$1202,LCFI442-LCFI440
	.long L$set$1202
	.byte	0x83
	.byte	0x3
	.align 3
LEFDE336:
LSFDE338:
	.set L$set$1203,LEFDE338-LASFDE338
	.long L$set$1203
LASFDE338:
	.set L$set$1204,Lframe0-Lsection__debug_frame
	.long L$set$1204
	.quad	LFB2168
	.set L$set$1205,LFE2168-LFB2168
	.quad L$set$1205
	.byte	0x4
	.set L$set$1206,LCFI443-LFB2168
	.long L$set$1206
	.byte	0xe
	.byte	0x10
	.byte	0x86
	.byte	0x2
	.byte	0x4
	.set L$set$1207,LCFI444-LCFI443
	.long L$set$1207
	.byte	0xd
	.byte	0x6
	.align 3
LEFDE338:
LSFDE340:
	.set L$set$1208,LEFDE340-LASFDE340
	.long L$set$1208
LASFDE340:
	.set L$set$1209,Lframe0-Lsection__debug_frame
	.long L$set$1209
	.quad	LFB2106
	.set L$set$1210,LFE2106-LFB2106
	.quad L$set$1210
	.byte	0x4
	.set L$set$1211,LCFI446-LFB2106
	.long L$set$1211
	.byte	0xe
	.byte	0x10
	.byte	0x86
	.byte	0x2
	.byte	0x4
	.set L$set$1212,LCFI447-LCFI446
	.long L$set$1212
	.byte	0xd
	.byte	0x6
	.byte	0x4
	.set L$set$1213,LCFI449-LCFI447
	.long L$set$1213
	.byte	0x83
	.byte	0x3
	.align 3
LEFDE340:
LSFDE342:
	.set L$set$1214,LEFDE342-LASFDE342
	.long L$set$1214
LASFDE342:
	.set L$set$1215,Lframe0-Lsection__debug_frame
	.long L$set$1215
	.quad	LFB2061
	.set L$set$1216,LFE2061-LFB2061
	.quad L$set$1216
	.byte	0x4
	.set L$set$1217,LCFI450-LFB2061
	.long L$set$1217
	.byte	0xe
	.byte	0x10
	.byte	0x86
	.byte	0x2
	.byte	0x4
	.set L$set$1218,LCFI451-LCFI450
	.long L$set$1218
	.byte	0xd
	.byte	0x6
	.align 3
LEFDE342:
LSFDE344:
	.set L$set$1219,LEFDE344-LASFDE344
	.long L$set$1219
LASFDE344:
	.set L$set$1220,Lframe0-Lsection__debug_frame
	.long L$set$1220
	.quad	LFB2358
	.set L$set$1221,LFE2358-LFB2358
	.quad L$set$1221
	.byte	0x4
	.set L$set$1222,LCFI453-LFB2358
	.long L$set$1222
	.byte	0xe
	.byte	0x10
	.byte	0x86
	.byte	0x2
	.byte	0x4
	.set L$set$1223,LCFI454-LCFI453
	.long L$set$1223
	.byte	0xd
	.byte	0x6
	.align 3
LEFDE344:
LSFDE346:
	.set L$set$1224,LEFDE346-LASFDE346
	.long L$set$1224
LASFDE346:
	.set L$set$1225,Lframe0-Lsection__debug_frame
	.long L$set$1225
	.quad	LFB2266
	.set L$set$1226,LFE2266-LFB2266
	.quad L$set$1226
	.byte	0x4
	.set L$set$1227,LCFI456-LFB2266
	.long L$set$1227
	.byte	0xe
	.byte	0x10
	.byte	0x86
	.byte	0x2
	.byte	0x4
	.set L$set$1228,LCFI457-LCFI456
	.long L$set$1228
	.byte	0xd
	.byte	0x6
	.align 3
LEFDE346:
LSFDE348:
	.set L$set$1229,LEFDE348-LASFDE348
	.long L$set$1229
LASFDE348:
	.set L$set$1230,Lframe0-Lsection__debug_frame
	.long L$set$1230
	.quad	LFB2252
	.set L$set$1231,LFE2252-LFB2252
	.quad L$set$1231
	.byte	0x4
	.set L$set$1232,LCFI459-LFB2252
	.long L$set$1232
	.byte	0xe
	.byte	0x10
	.byte	0x86
	.byte	0x2
	.byte	0x4
	.set L$set$1233,LCFI460-LCFI459
	.long L$set$1233
	.byte	0xd
	.byte	0x6
	.align 3
LEFDE348:
LSFDE350:
	.set L$set$1234,LEFDE350-LASFDE350
	.long L$set$1234
LASFDE350:
	.set L$set$1235,Lframe0-Lsection__debug_frame
	.long L$set$1235
	.quad	LFB2142
	.set L$set$1236,LFE2142-LFB2142
	.quad L$set$1236
	.byte	0x4
	.set L$set$1237,LCFI462-LFB2142
	.long L$set$1237
	.byte	0xe
	.byte	0x10
	.byte	0x86
	.byte	0x2
	.byte	0x4
	.set L$set$1238,LCFI463-LCFI462
	.long L$set$1238
	.byte	0xd
	.byte	0x6
	.align 3
LEFDE350:
LSFDE352:
	.set L$set$1239,LEFDE352-LASFDE352
	.long L$set$1239
LASFDE352:
	.set L$set$1240,Lframe0-Lsection__debug_frame
	.long L$set$1240
	.quad	LFB2440
	.set L$set$1241,LFE2440-LFB2440
	.quad L$set$1241
	.byte	0x4
	.set L$set$1242,LCFI465-LFB2440
	.long L$set$1242
	.byte	0xe
	.byte	0x10
	.byte	0x86
	.byte	0x2
	.byte	0x4
	.set L$set$1243,LCFI466-LCFI465
	.long L$set$1243
	.byte	0xd
	.byte	0x6
	.align 3
LEFDE352:
LSFDE354:
	.set L$set$1244,LEFDE354-LASFDE354
	.long L$set$1244
LASFDE354:
	.set L$set$1245,Lframe0-Lsection__debug_frame
	.long L$set$1245
	.quad	LFB2430
	.set L$set$1246,LFE2430-LFB2430
	.quad L$set$1246
	.byte	0x4
	.set L$set$1247,LCFI468-LFB2430
	.long L$set$1247
	.byte	0xe
	.byte	0x10
	.byte	0x86
	.byte	0x2
	.byte	0x4
	.set L$set$1248,LCFI469-LCFI468
	.long L$set$1248
	.byte	0xd
	.byte	0x6
	.align 3
LEFDE354:
LSFDE356:
	.set L$set$1249,LEFDE356-LASFDE356
	.long L$set$1249
LASFDE356:
	.set L$set$1250,Lframe0-Lsection__debug_frame
	.long L$set$1250
	.quad	LFB2405
	.set L$set$1251,LFE2405-LFB2405
	.quad L$set$1251
	.byte	0x4
	.set L$set$1252,LCFI471-LFB2405
	.long L$set$1252
	.byte	0xe
	.byte	0x10
	.byte	0x86
	.byte	0x2
	.byte	0x4
	.set L$set$1253,LCFI472-LCFI471
	.long L$set$1253
	.byte	0xd
	.byte	0x6
	.align 3
LEFDE356:
LSFDE358:
	.set L$set$1254,LEFDE358-LASFDE358
	.long L$set$1254
LASFDE358:
	.set L$set$1255,Lframe0-Lsection__debug_frame
	.long L$set$1255
	.quad	LFB2364
	.set L$set$1256,LFE2364-LFB2364
	.quad L$set$1256
	.byte	0x4
	.set L$set$1257,LCFI474-LFB2364
	.long L$set$1257
	.byte	0xe
	.byte	0x10
	.byte	0x86
	.byte	0x2
	.byte	0x4
	.set L$set$1258,LCFI475-LCFI474
	.long L$set$1258
	.byte	0xd
	.byte	0x6
	.align 3
LEFDE358:
LSFDE360:
	.set L$set$1259,LEFDE360-LASFDE360
	.long L$set$1259
LASFDE360:
	.set L$set$1260,Lframe0-Lsection__debug_frame
	.long L$set$1260
	.quad	LFB2426
	.set L$set$1261,LFE2426-LFB2426
	.quad L$set$1261
	.byte	0x4
	.set L$set$1262,LCFI477-LFB2426
	.long L$set$1262
	.byte	0xe
	.byte	0x10
	.byte	0x86
	.byte	0x2
	.byte	0x4
	.set L$set$1263,LCFI478-LCFI477
	.long L$set$1263
	.byte	0xd
	.byte	0x6
	.align 3
LEFDE360:
LSFDE362:
	.set L$set$1264,LEFDE362-LASFDE362
	.long L$set$1264
LASFDE362:
	.set L$set$1265,Lframe0-Lsection__debug_frame
	.long L$set$1265
	.quad	LFB2392
	.set L$set$1266,LFE2392-LFB2392
	.quad L$set$1266
	.byte	0x4
	.set L$set$1267,LCFI480-LFB2392
	.long L$set$1267
	.byte	0xe
	.byte	0x10
	.byte	0x86
	.byte	0x2
	.byte	0x4
	.set L$set$1268,LCFI481-LCFI480
	.long L$set$1268
	.byte	0xd
	.byte	0x6
	.align 3
LEFDE362:
LSFDE364:
	.set L$set$1269,LEFDE364-LASFDE364
	.long L$set$1269
LASFDE364:
	.set L$set$1270,Lframe0-Lsection__debug_frame
	.long L$set$1270
	.quad	LFB2433
	.set L$set$1271,LFE2433-LFB2433
	.quad L$set$1271
	.byte	0x4
	.set L$set$1272,LCFI483-LFB2433
	.long L$set$1272
	.byte	0xe
	.byte	0x10
	.byte	0x86
	.byte	0x2
	.byte	0x4
	.set L$set$1273,LCFI484-LCFI483
	.long L$set$1273
	.byte	0xd
	.byte	0x6
	.byte	0x4
	.set L$set$1274,LCFI487-LCFI484
	.long L$set$1274
	.byte	0x83
	.byte	0x4
	.byte	0x8c
	.byte	0x3
	.align 3
LEFDE364:
LSFDE366:
	.set L$set$1275,LEFDE366-LASFDE366
	.long L$set$1275
LASFDE366:
	.set L$set$1276,Lframe0-Lsection__debug_frame
	.long L$set$1276
	.quad	LFB2410
	.set L$set$1277,LFE2410-LFB2410
	.quad L$set$1277
	.byte	0x4
	.set L$set$1278,LCFI488-LFB2410
	.long L$set$1278
	.byte	0xe
	.byte	0x10
	.byte	0x86
	.byte	0x2
	.byte	0x4
	.set L$set$1279,LCFI489-LCFI488
	.long L$set$1279
	.byte	0xd
	.byte	0x6
	.align 3
LEFDE366:
LSFDE368:
	.set L$set$1280,LEFDE368-LASFDE368
	.long L$set$1280
LASFDE368:
	.set L$set$1281,Lframe0-Lsection__debug_frame
	.long L$set$1281
	.quad	LFB2446
	.set L$set$1282,LFE2446-LFB2446
	.quad L$set$1282
	.byte	0x4
	.set L$set$1283,LCFI491-LFB2446
	.long L$set$1283
	.byte	0xe
	.byte	0x10
	.byte	0x86
	.byte	0x2
	.byte	0x4
	.set L$set$1284,LCFI492-LCFI491
	.long L$set$1284
	.byte	0xd
	.byte	0x6
	.byte	0x4
	.set L$set$1285,LCFI494-LCFI492
	.long L$set$1285
	.byte	0x83
	.byte	0x3
	.align 3
LEFDE368:
LSFDE370:
	.set L$set$1286,LEFDE370-LASFDE370
	.long L$set$1286
LASFDE370:
	.set L$set$1287,Lframe0-Lsection__debug_frame
	.long L$set$1287
	.quad	LFB2445
	.set L$set$1288,LFE2445-LFB2445
	.quad L$set$1288
	.byte	0x4
	.set L$set$1289,LCFI495-LFB2445
	.long L$set$1289
	.byte	0xe
	.byte	0x10
	.byte	0x86
	.byte	0x2
	.byte	0x4
	.set L$set$1290,LCFI496-LCFI495
	.long L$set$1290
	.byte	0xd
	.byte	0x6
	.align 3
LEFDE370:
LSFDE372:
	.set L$set$1291,LEFDE372-LASFDE372
	.long L$set$1291
LASFDE372:
	.set L$set$1292,Lframe0-Lsection__debug_frame
	.long L$set$1292
	.quad	LFB2442
	.set L$set$1293,LFE2442-LFB2442
	.quad L$set$1293
	.byte	0x4
	.set L$set$1294,LCFI498-LFB2442
	.long L$set$1294
	.byte	0xe
	.byte	0x10
	.byte	0x86
	.byte	0x2
	.byte	0x4
	.set L$set$1295,LCFI499-LCFI498
	.long L$set$1295
	.byte	0xd
	.byte	0x6
	.align 3
LEFDE372:
LSFDE374:
	.set L$set$1296,LEFDE374-LASFDE374
	.long L$set$1296
LASFDE374:
	.set L$set$1297,Lframe0-Lsection__debug_frame
	.long L$set$1297
	.quad	LFB2435
	.set L$set$1298,LFE2435-LFB2435
	.quad L$set$1298
	.byte	0x4
	.set L$set$1299,LCFI501-LFB2435
	.long L$set$1299
	.byte	0xe
	.byte	0x10
	.byte	0x86
	.byte	0x2
	.byte	0x4
	.set L$set$1300,LCFI502-LCFI501
	.long L$set$1300
	.byte	0xd
	.byte	0x6
	.align 3
LEFDE374:
LSFDE376:
	.set L$set$1301,LEFDE376-LASFDE376
	.long L$set$1301
LASFDE376:
	.set L$set$1302,Lframe0-Lsection__debug_frame
	.long L$set$1302
	.quad	LFB2412
	.set L$set$1303,LFE2412-LFB2412
	.quad L$set$1303
	.byte	0x4
	.set L$set$1304,LCFI504-LFB2412
	.long L$set$1304
	.byte	0xe
	.byte	0x10
	.byte	0x86
	.byte	0x2
	.byte	0x4
	.set L$set$1305,LCFI505-LCFI504
	.long L$set$1305
	.byte	0xd
	.byte	0x6
	.align 3
LEFDE376:
LSFDE378:
	.set L$set$1306,LEFDE378-LASFDE378
	.long L$set$1306
LASFDE378:
	.set L$set$1307,Lframe0-Lsection__debug_frame
	.long L$set$1307
	.quad	LFB2345
	.set L$set$1308,LFE2345-LFB2345
	.quad L$set$1308
	.byte	0x4
	.set L$set$1309,LCFI507-LFB2345
	.long L$set$1309
	.byte	0xe
	.byte	0x10
	.byte	0x86
	.byte	0x2
	.byte	0x4
	.set L$set$1310,LCFI508-LCFI507
	.long L$set$1310
	.byte	0xd
	.byte	0x6
	.align 3
LEFDE378:
LSFDE380:
	.set L$set$1311,LEFDE380-LASFDE380
	.long L$set$1311
LASFDE380:
	.set L$set$1312,Lframe0-Lsection__debug_frame
	.long L$set$1312
	.quad	LFB2234
	.set L$set$1313,LFE2234-LFB2234
	.quad L$set$1313
	.byte	0x4
	.set L$set$1314,LCFI510-LFB2234
	.long L$set$1314
	.byte	0xe
	.byte	0x10
	.byte	0x86
	.byte	0x2
	.byte	0x4
	.set L$set$1315,LCFI511-LCFI510
	.long L$set$1315
	.byte	0xd
	.byte	0x6
	.align 3
LEFDE380:
LSFDE382:
	.set L$set$1316,LEFDE382-LASFDE382
	.long L$set$1316
LASFDE382:
	.set L$set$1317,Lframe0-Lsection__debug_frame
	.long L$set$1317
	.quad	LFB2393
	.set L$set$1318,LFE2393-LFB2393
	.quad L$set$1318
	.byte	0x4
	.set L$set$1319,LCFI513-LFB2393
	.long L$set$1319
	.byte	0xe
	.byte	0x10
	.byte	0x86
	.byte	0x2
	.byte	0x4
	.set L$set$1320,LCFI514-LCFI513
	.long L$set$1320
	.byte	0xd
	.byte	0x6
	.align 3
LEFDE382:
LSFDE384:
	.set L$set$1321,LEFDE384-LASFDE384
	.long L$set$1321
LASFDE384:
	.set L$set$1322,Lframe0-Lsection__debug_frame
	.long L$set$1322
	.quad	LFB2346
	.set L$set$1323,LFE2346-LFB2346
	.quad L$set$1323
	.byte	0x4
	.set L$set$1324,LCFI516-LFB2346
	.long L$set$1324
	.byte	0xe
	.byte	0x10
	.byte	0x86
	.byte	0x2
	.byte	0x4
	.set L$set$1325,LCFI517-LCFI516
	.long L$set$1325
	.byte	0xd
	.byte	0x6
	.align 3
LEFDE384:
LSFDE386:
	.set L$set$1326,LEFDE386-LASFDE386
	.long L$set$1326
LASFDE386:
	.set L$set$1327,Lframe0-Lsection__debug_frame
	.long L$set$1327
	.quad	LFB2235
	.set L$set$1328,LFE2235-LFB2235
	.quad L$set$1328
	.byte	0x4
	.set L$set$1329,LCFI519-LFB2235
	.long L$set$1329
	.byte	0xe
	.byte	0x10
	.byte	0x86
	.byte	0x2
	.byte	0x4
	.set L$set$1330,LCFI520-LCFI519
	.long L$set$1330
	.byte	0xd
	.byte	0x6
	.align 3
LEFDE386:
LSFDE388:
	.set L$set$1331,LEFDE388-LASFDE388
	.long L$set$1331
LASFDE388:
	.set L$set$1332,Lframe0-Lsection__debug_frame
	.long L$set$1332
	.quad	LFB2390
	.set L$set$1333,LFE2390-LFB2390
	.quad L$set$1333
	.byte	0x4
	.set L$set$1334,LCFI522-LFB2390
	.long L$set$1334
	.byte	0xe
	.byte	0x10
	.byte	0x86
	.byte	0x2
	.byte	0x4
	.set L$set$1335,LCFI523-LCFI522
	.long L$set$1335
	.byte	0xd
	.byte	0x6
	.align 3
LEFDE388:
LSFDE390:
	.set L$set$1336,LEFDE390-LASFDE390
	.long L$set$1336
LASFDE390:
	.set L$set$1337,Lframe0-Lsection__debug_frame
	.long L$set$1337
	.quad	LFB2437
	.set L$set$1338,LFE2437-LFB2437
	.quad L$set$1338
	.byte	0x4
	.set L$set$1339,LCFI525-LFB2437
	.long L$set$1339
	.byte	0xe
	.byte	0x10
	.byte	0x86
	.byte	0x2
	.byte	0x4
	.set L$set$1340,LCFI526-LCFI525
	.long L$set$1340
	.byte	0xd
	.byte	0x6
	.byte	0x4
	.set L$set$1341,LCFI528-LCFI526
	.long L$set$1341
	.byte	0x83
	.byte	0x3
	.align 3
LEFDE390:
LSFDE392:
	.set L$set$1342,LEFDE392-LASFDE392
	.long L$set$1342
LASFDE392:
	.set L$set$1343,Lframe0-Lsection__debug_frame
	.long L$set$1343
	.quad	LFB2425
	.set L$set$1344,LFE2425-LFB2425
	.quad L$set$1344
	.byte	0x4
	.set L$set$1345,LCFI529-LFB2425
	.long L$set$1345
	.byte	0xe
	.byte	0x10
	.byte	0x86
	.byte	0x2
	.byte	0x4
	.set L$set$1346,LCFI530-LCFI529
	.long L$set$1346
	.byte	0xd
	.byte	0x6
	.align 3
LEFDE392:
LSFDE394:
	.set L$set$1347,LEFDE394-LASFDE394
	.long L$set$1347
LASFDE394:
	.set L$set$1348,Lframe0-Lsection__debug_frame
	.long L$set$1348
	.quad	LFB2388
	.set L$set$1349,LFE2388-LFB2388
	.quad L$set$1349
	.byte	0x4
	.set L$set$1350,LCFI532-LFB2388
	.long L$set$1350
	.byte	0xe
	.byte	0x10
	.byte	0x86
	.byte	0x2
	.byte	0x4
	.set L$set$1351,LCFI533-LCFI532
	.long L$set$1351
	.byte	0xd
	.byte	0x6
	.align 3
LEFDE394:
LSFDE396:
	.set L$set$1352,LEFDE396-LASFDE396
	.long L$set$1352
LASFDE396:
	.set L$set$1353,Lframe0-Lsection__debug_frame
	.long L$set$1353
	.quad	LFB2341
	.set L$set$1354,LFE2341-LFB2341
	.quad L$set$1354
	.byte	0x4
	.set L$set$1355,LCFI535-LFB2341
	.long L$set$1355
	.byte	0xe
	.byte	0x10
	.byte	0x86
	.byte	0x2
	.byte	0x4
	.set L$set$1356,LCFI536-LCFI535
	.long L$set$1356
	.byte	0xd
	.byte	0x6
	.align 3
LEFDE396:
LSFDE398:
	.set L$set$1357,LEFDE398-LASFDE398
	.long L$set$1357
LASFDE398:
	.set L$set$1358,Lframe0-Lsection__debug_frame
	.long L$set$1358
	.quad	LFB2227
	.set L$set$1359,LFE2227-LFB2227
	.quad L$set$1359
	.byte	0x4
	.set L$set$1360,LCFI538-LFB2227
	.long L$set$1360
	.byte	0xe
	.byte	0x10
	.byte	0x86
	.byte	0x2
	.byte	0x4
	.set L$set$1361,LCFI539-LCFI538
	.long L$set$1361
	.byte	0xd
	.byte	0x6
	.align 3
LEFDE398:
LSFDE400:
	.set L$set$1362,LEFDE400-LASFDE400
	.long L$set$1362
LASFDE400:
	.set L$set$1363,Lframe0-Lsection__debug_frame
	.long L$set$1363
	.quad	LFB2343
	.set L$set$1364,LFE2343-LFB2343
	.quad L$set$1364
	.byte	0x4
	.set L$set$1365,LCFI541-LFB2343
	.long L$set$1365
	.byte	0xe
	.byte	0x10
	.byte	0x86
	.byte	0x2
	.byte	0x4
	.set L$set$1366,LCFI542-LCFI541
	.long L$set$1366
	.byte	0xd
	.byte	0x6
	.byte	0x4
	.set L$set$1367,LCFI545-LCFI542
	.long L$set$1367
	.byte	0x83
	.byte	0x4
	.byte	0x8c
	.byte	0x3
	.align 3
LEFDE400:
LSFDE402:
	.set L$set$1368,LEFDE402-LASFDE402
	.long L$set$1368
LASFDE402:
	.set L$set$1369,Lframe0-Lsection__debug_frame
	.long L$set$1369
	.quad	LFB2232
	.set L$set$1370,LFE2232-LFB2232
	.quad L$set$1370
	.byte	0x4
	.set L$set$1371,LCFI546-LFB2232
	.long L$set$1371
	.byte	0xe
	.byte	0x10
	.byte	0x86
	.byte	0x2
	.byte	0x4
	.set L$set$1372,LCFI547-LCFI546
	.long L$set$1372
	.byte	0xd
	.byte	0x6
	.align 3
LEFDE402:
LSFDE404:
	.set L$set$1373,LEFDE404-LASFDE404
	.long L$set$1373
LASFDE404:
	.set L$set$1374,Lframe0-Lsection__debug_frame
	.long L$set$1374
	.quad	LFB2438
	.set L$set$1375,LFE2438-LFB2438
	.quad L$set$1375
	.byte	0x4
	.set L$set$1376,LCFI549-LFB2438
	.long L$set$1376
	.byte	0xe
	.byte	0x10
	.byte	0x86
	.byte	0x2
	.byte	0x4
	.set L$set$1377,LCFI550-LCFI549
	.long L$set$1377
	.byte	0xd
	.byte	0x6
	.align 3
LEFDE404:
LSFDE406:
	.set L$set$1378,LEFDE406-LASFDE406
	.long L$set$1378
LASFDE406:
	.set L$set$1379,Lframe0-Lsection__debug_frame
	.long L$set$1379
	.quad	LFB2427
	.set L$set$1380,LFE2427-LFB2427
	.quad L$set$1380
	.byte	0x4
	.set L$set$1381,LCFI552-LFB2427
	.long L$set$1381
	.byte	0xe
	.byte	0x10
	.byte	0x86
	.byte	0x2
	.byte	0x4
	.set L$set$1382,LCFI553-LCFI552
	.long L$set$1382
	.byte	0xd
	.byte	0x6
	.align 3
LEFDE406:
LSFDE408:
	.set L$set$1383,LEFDE408-LASFDE408
	.long L$set$1383
LASFDE408:
	.set L$set$1384,Lframe0-Lsection__debug_frame
	.long L$set$1384
	.quad	LFB2395
	.set L$set$1385,LFE2395-LFB2395
	.quad L$set$1385
	.byte	0x4
	.set L$set$1386,LCFI555-LFB2395
	.long L$set$1386
	.byte	0xe
	.byte	0x10
	.byte	0x86
	.byte	0x2
	.byte	0x4
	.set L$set$1387,LCFI556-LCFI555
	.long L$set$1387
	.byte	0xd
	.byte	0x6
	.align 3
LEFDE408:
LSFDE410:
	.set L$set$1388,LEFDE410-LASFDE410
	.long L$set$1388
LASFDE410:
	.set L$set$1389,Lframe0-Lsection__debug_frame
	.long L$set$1389
	.quad	LFB2351
	.set L$set$1390,LFE2351-LFB2351
	.quad L$set$1390
	.byte	0x4
	.set L$set$1391,LCFI558-LFB2351
	.long L$set$1391
	.byte	0xe
	.byte	0x10
	.byte	0x86
	.byte	0x2
	.byte	0x4
	.set L$set$1392,LCFI559-LCFI558
	.long L$set$1392
	.byte	0xd
	.byte	0x6
	.align 3
LEFDE410:
LSFDE412:
	.set L$set$1393,LEFDE412-LASFDE412
	.long L$set$1393
LASFDE412:
	.set L$set$1394,Lframe0-Lsection__debug_frame
	.long L$set$1394
	.quad	LFB2429
	.set L$set$1395,LFE2429-LFB2429
	.quad L$set$1395
	.byte	0x4
	.set L$set$1396,LCFI561-LFB2429
	.long L$set$1396
	.byte	0xe
	.byte	0x10
	.byte	0x86
	.byte	0x2
	.byte	0x4
	.set L$set$1397,LCFI562-LCFI561
	.long L$set$1397
	.byte	0xd
	.byte	0x6
	.align 3
LEFDE412:
LSFDE414:
	.set L$set$1398,LEFDE414-LASFDE414
	.long L$set$1398
LASFDE414:
	.set L$set$1399,Lframe0-Lsection__debug_frame
	.long L$set$1399
	.quad	LFB2403
	.set L$set$1400,LFE2403-LFB2403
	.quad L$set$1400
	.byte	0x4
	.set L$set$1401,LCFI564-LFB2403
	.long L$set$1401
	.byte	0xe
	.byte	0x10
	.byte	0x86
	.byte	0x2
	.byte	0x4
	.set L$set$1402,LCFI565-LCFI564
	.long L$set$1402
	.byte	0xd
	.byte	0x6
	.align 3
LEFDE414:
LSFDE416:
	.set L$set$1403,LEFDE416-LASFDE416
	.long L$set$1403
LASFDE416:
	.set L$set$1404,Lframe0-Lsection__debug_frame
	.long L$set$1404
	.quad	LFB2361
	.set L$set$1405,LFE2361-LFB2361
	.quad L$set$1405
	.byte	0x4
	.set L$set$1406,LCFI567-LFB2361
	.long L$set$1406
	.byte	0xe
	.byte	0x10
	.byte	0x86
	.byte	0x2
	.byte	0x4
	.set L$set$1407,LCFI568-LCFI567
	.long L$set$1407
	.byte	0xd
	.byte	0x6
	.align 3
LEFDE416:
LSFDE418:
	.set L$set$1408,LEFDE418-LASFDE418
	.long L$set$1408
LASFDE418:
	.set L$set$1409,Lframe0-Lsection__debug_frame
	.long L$set$1409
	.quad	LFB2269
	.set L$set$1410,LFE2269-LFB2269
	.quad L$set$1410
	.byte	0x4
	.set L$set$1411,LCFI570-LFB2269
	.long L$set$1411
	.byte	0xe
	.byte	0x10
	.byte	0x86
	.byte	0x2
	.byte	0x4
	.set L$set$1412,LCFI571-LCFI570
	.long L$set$1412
	.byte	0xd
	.byte	0x6
	.align 3
LEFDE418:
LSFDE420:
	.set L$set$1413,LEFDE420-LASFDE420
	.long L$set$1413
LASFDE420:
	.set L$set$1414,Lframe0-Lsection__debug_frame
	.long L$set$1414
	.quad	LFB2404
	.set L$set$1415,LFE2404-LFB2404
	.quad L$set$1415
	.byte	0x4
	.set L$set$1416,LCFI573-LFB2404
	.long L$set$1416
	.byte	0xe
	.byte	0x10
	.byte	0x86
	.byte	0x2
	.byte	0x4
	.set L$set$1417,LCFI574-LCFI573
	.long L$set$1417
	.byte	0xd
	.byte	0x6
	.align 3
LEFDE420:
LSFDE422:
	.set L$set$1418,LEFDE422-LASFDE422
	.long L$set$1418
LASFDE422:
	.set L$set$1419,Lframe0-Lsection__debug_frame
	.long L$set$1419
	.quad	LFB2362
	.set L$set$1420,LFE2362-LFB2362
	.quad L$set$1420
	.byte	0x4
	.set L$set$1421,LCFI576-LFB2362
	.long L$set$1421
	.byte	0xe
	.byte	0x10
	.byte	0x86
	.byte	0x2
	.byte	0x4
	.set L$set$1422,LCFI577-LCFI576
	.long L$set$1422
	.byte	0xd
	.byte	0x6
	.align 3
LEFDE422:
LSFDE424:
	.set L$set$1423,LEFDE424-LASFDE424
	.long L$set$1423
LASFDE424:
	.set L$set$1424,Lframe0-Lsection__debug_frame
	.long L$set$1424
	.quad	LFB2270
	.set L$set$1425,LFE2270-LFB2270
	.quad L$set$1425
	.byte	0x4
	.set L$set$1426,LCFI579-LFB2270
	.long L$set$1426
	.byte	0xe
	.byte	0x10
	.byte	0x86
	.byte	0x2
	.byte	0x4
	.set L$set$1427,LCFI580-LCFI579
	.long L$set$1427
	.byte	0xd
	.byte	0x6
	.align 3
LEFDE424:
LSFDE426:
	.set L$set$1428,LEFDE426-LASFDE426
	.long L$set$1428
LASFDE426:
	.set L$set$1429,Lframe0-Lsection__debug_frame
	.long L$set$1429
	.quad	LFB2401
	.set L$set$1430,LFE2401-LFB2401
	.quad L$set$1430
	.byte	0x4
	.set L$set$1431,LCFI582-LFB2401
	.long L$set$1431
	.byte	0xe
	.byte	0x10
	.byte	0x86
	.byte	0x2
	.byte	0x4
	.set L$set$1432,LCFI583-LCFI582
	.long L$set$1432
	.byte	0xd
	.byte	0x6
	.align 3
LEFDE426:
LSFDE428:
	.set L$set$1433,LEFDE428-LASFDE428
	.long L$set$1433
LASFDE428:
	.set L$set$1434,Lframe0-Lsection__debug_frame
	.long L$set$1434
	.quad	LFB2444
	.set L$set$1435,LFE2444-LFB2444
	.quad L$set$1435
	.byte	0x4
	.set L$set$1436,LCFI585-LFB2444
	.long L$set$1436
	.byte	0xe
	.byte	0x10
	.byte	0x86
	.byte	0x2
	.byte	0x4
	.set L$set$1437,LCFI586-LCFI585
	.long L$set$1437
	.byte	0xd
	.byte	0x6
	.byte	0x4
	.set L$set$1438,LCFI588-LCFI586
	.long L$set$1438
	.byte	0x83
	.byte	0x3
	.align 3
LEFDE428:
LSFDE430:
	.set L$set$1439,LEFDE430-LASFDE430
	.long L$set$1439
LASFDE430:
	.set L$set$1440,Lframe0-Lsection__debug_frame
	.long L$set$1440
	.quad	LFB2439
	.set L$set$1441,LFE2439-LFB2439
	.quad L$set$1441
	.byte	0x4
	.set L$set$1442,LCFI589-LFB2439
	.long L$set$1442
	.byte	0xe
	.byte	0x10
	.byte	0x86
	.byte	0x2
	.byte	0x4
	.set L$set$1443,LCFI590-LCFI589
	.long L$set$1443
	.byte	0xd
	.byte	0x6
	.align 3
LEFDE430:
LSFDE432:
	.set L$set$1444,LEFDE432-LASFDE432
	.long L$set$1444
LASFDE432:
	.set L$set$1445,Lframe0-Lsection__debug_frame
	.long L$set$1445
	.quad	LFB2428
	.set L$set$1446,LFE2428-LFB2428
	.quad L$set$1446
	.byte	0x4
	.set L$set$1447,LCFI592-LFB2428
	.long L$set$1447
	.byte	0xe
	.byte	0x10
	.byte	0x86
	.byte	0x2
	.byte	0x4
	.set L$set$1448,LCFI593-LCFI592
	.long L$set$1448
	.byte	0xd
	.byte	0x6
	.align 3
LEFDE432:
LSFDE434:
	.set L$set$1449,LEFDE434-LASFDE434
	.long L$set$1449
LASFDE434:
	.set L$set$1450,Lframe0-Lsection__debug_frame
	.long L$set$1450
	.quad	LFB2399
	.set L$set$1451,LFE2399-LFB2399
	.quad L$set$1451
	.byte	0x4
	.set L$set$1452,LCFI595-LFB2399
	.long L$set$1452
	.byte	0xe
	.byte	0x10
	.byte	0x86
	.byte	0x2
	.byte	0x4
	.set L$set$1453,LCFI596-LCFI595
	.long L$set$1453
	.byte	0xd
	.byte	0x6
	.align 3
LEFDE434:
LSFDE436:
	.set L$set$1454,LEFDE436-LASFDE436
	.long L$set$1454
LASFDE436:
	.set L$set$1455,Lframe0-Lsection__debug_frame
	.long L$set$1455
	.quad	LFB2357
	.set L$set$1456,LFE2357-LFB2357
	.quad L$set$1456
	.byte	0x4
	.set L$set$1457,LCFI598-LFB2357
	.long L$set$1457
	.byte	0xe
	.byte	0x10
	.byte	0x86
	.byte	0x2
	.byte	0x4
	.set L$set$1458,LCFI599-LCFI598
	.long L$set$1458
	.byte	0xd
	.byte	0x6
	.align 3
LEFDE436:
LSFDE438:
	.set L$set$1459,LEFDE438-LASFDE438
	.long L$set$1459
LASFDE438:
	.set L$set$1460,Lframe0-Lsection__debug_frame
	.long L$set$1460
	.quad	LFB2359
	.set L$set$1461,LFE2359-LFB2359
	.quad L$set$1461
	.byte	0x4
	.set L$set$1462,LCFI601-LFB2359
	.long L$set$1462
	.byte	0xe
	.byte	0x10
	.byte	0x86
	.byte	0x2
	.byte	0x4
	.set L$set$1463,LCFI602-LCFI601
	.long L$set$1463
	.byte	0xd
	.byte	0x6
	.byte	0x4
	.set L$set$1464,LCFI605-LCFI602
	.long L$set$1464
	.byte	0x83
	.byte	0x4
	.byte	0x8c
	.byte	0x3
	.align 3
LEFDE438:
LSFDE440:
	.set L$set$1465,LEFDE440-LASFDE440
	.long L$set$1465
LASFDE440:
	.set L$set$1466,Lframe0-Lsection__debug_frame
	.long L$set$1466
	.quad	LFB2267
	.set L$set$1467,LFE2267-LFB2267
	.quad L$set$1467
	.byte	0x4
	.set L$set$1468,LCFI606-LFB2267
	.long L$set$1468
	.byte	0xe
	.byte	0x10
	.byte	0x86
	.byte	0x2
	.byte	0x4
	.set L$set$1469,LCFI607-LCFI606
	.long L$set$1469
	.byte	0xd
	.byte	0x6
	.align 3
LEFDE440:
LSFDE442:
	.set L$set$1470,LEFDE442-LASFDE442
	.long L$set$1470
LASFDE442:
	.set L$set$1471,Lframe0-Lsection__debug_frame
	.long L$set$1471
	.quad	LFB2387
	.set L$set$1472,LFE2387-LFB2387
	.quad L$set$1472
	.byte	0x4
	.set L$set$1473,LCFI609-LFB2387
	.long L$set$1473
	.byte	0xe
	.byte	0x10
	.byte	0x86
	.byte	0x2
	.byte	0x4
	.set L$set$1474,LCFI610-LCFI609
	.long L$set$1474
	.byte	0xd
	.byte	0x6
	.align 3
LEFDE442:
LSFDE444:
	.set L$set$1475,LEFDE444-LASFDE444
	.long L$set$1475
LASFDE444:
	.set L$set$1476,Lframe0-Lsection__debug_frame
	.long L$set$1476
	.quad	LFB2337
	.set L$set$1477,LFE2337-LFB2337
	.quad L$set$1477
	.byte	0x4
	.set L$set$1478,LCFI612-LFB2337
	.long L$set$1478
	.byte	0xe
	.byte	0x10
	.byte	0x86
	.byte	0x2
	.byte	0x4
	.set L$set$1479,LCFI613-LCFI612
	.long L$set$1479
	.byte	0xd
	.byte	0x6
	.align 3
LEFDE444:
LSFDE446:
	.set L$set$1480,LEFDE446-LASFDE446
	.long L$set$1480
LASFDE446:
	.set L$set$1481,Lframe0-Lsection__debug_frame
	.long L$set$1481
	.quad	LFB2370
	.set L$set$1482,LFE2370-LFB2370
	.quad L$set$1482
	.byte	0x4
	.set L$set$1483,LCFI615-LFB2370
	.long L$set$1483
	.byte	0xe
	.byte	0x10
	.byte	0x86
	.byte	0x2
	.byte	0x4
	.set L$set$1484,LCFI616-LCFI615
	.long L$set$1484
	.byte	0xd
	.byte	0x6
	.byte	0x4
	.set L$set$1485,LCFI618-LCFI616
	.long L$set$1485
	.byte	0x83
	.byte	0x3
	.align 3
LEFDE446:
LSFDE448:
	.set L$set$1486,LEFDE448-LASFDE448
	.long L$set$1486
LASFDE448:
	.set L$set$1487,Lframe0-Lsection__debug_frame
	.long L$set$1487
	.quad	LFB2290
	.set L$set$1488,LFE2290-LFB2290
	.quad L$set$1488
	.byte	0x4
	.set L$set$1489,LCFI619-LFB2290
	.long L$set$1489
	.byte	0xe
	.byte	0x10
	.byte	0x86
	.byte	0x2
	.byte	0x4
	.set L$set$1490,LCFI620-LCFI619
	.long L$set$1490
	.byte	0xd
	.byte	0x6
	.align 3
LEFDE448:
LSFDE450:
	.set L$set$1491,LEFDE450-LASFDE450
	.long L$set$1491
LASFDE450:
	.set L$set$1492,Lframe0-Lsection__debug_frame
	.long L$set$1492
	.quad	LFB2171
	.set L$set$1493,LFE2171-LFB2171
	.quad L$set$1493
	.byte	0x4
	.set L$set$1494,LCFI622-LFB2171
	.long L$set$1494
	.byte	0xe
	.byte	0x10
	.byte	0x86
	.byte	0x2
	.byte	0x4
	.set L$set$1495,LCFI623-LCFI622
	.long L$set$1495
	.byte	0xd
	.byte	0x6
	.align 3
LEFDE450:
LSFDE452:
	.set L$set$1496,LEFDE452-LASFDE452
	.long L$set$1496
LASFDE452:
	.set L$set$1497,Lframe0-Lsection__debug_frame
	.long L$set$1497
	.quad	LFB2223
	.set L$set$1498,LFE2223-LFB2223
	.quad L$set$1498
	.byte	0x4
	.set L$set$1499,LCFI625-LFB2223
	.long L$set$1499
	.byte	0xe
	.byte	0x10
	.byte	0x86
	.byte	0x2
	.byte	0x4
	.set L$set$1500,LCFI626-LCFI625
	.long L$set$1500
	.byte	0xd
	.byte	0x6
	.byte	0x4
	.set L$set$1501,LCFI628-LCFI626
	.long L$set$1501
	.byte	0x83
	.byte	0x3
	.align 3
LEFDE452:
LSFDE454:
	.set L$set$1502,LEFDE454-LASFDE454
	.long L$set$1502
LASFDE454:
	.set L$set$1503,Lframe0-Lsection__debug_frame
	.long L$set$1503
	.quad	LFB2123
	.set L$set$1504,LFE2123-LFB2123
	.quad L$set$1504
	.byte	0x4
	.set L$set$1505,LCFI629-LFB2123
	.long L$set$1505
	.byte	0xe
	.byte	0x10
	.byte	0x86
	.byte	0x2
	.byte	0x4
	.set L$set$1506,LCFI630-LCFI629
	.long L$set$1506
	.byte	0xd
	.byte	0x6
	.byte	0x4
	.set L$set$1507,LCFI633-LCFI630
	.long L$set$1507
	.byte	0x83
	.byte	0x4
	.byte	0x8c
	.byte	0x3
	.align 3
LEFDE454:
LSFDE456:
	.set L$set$1508,LEFDE456-LASFDE456
	.long L$set$1508
LASFDE456:
	.set L$set$1509,Lframe0-Lsection__debug_frame
	.long L$set$1509
	.quad	LFB2285
	.set L$set$1510,LFE2285-LFB2285
	.quad L$set$1510
	.byte	0x4
	.set L$set$1511,LCFI634-LFB2285
	.long L$set$1511
	.byte	0xe
	.byte	0x10
	.byte	0x86
	.byte	0x2
	.byte	0x4
	.set L$set$1512,LCFI635-LCFI634
	.long L$set$1512
	.byte	0xd
	.byte	0x6
	.byte	0x4
	.set L$set$1513,LCFI638-LCFI635
	.long L$set$1513
	.byte	0x83
	.byte	0x4
	.byte	0x8c
	.byte	0x3
	.align 3
LEFDE456:
LSFDE458:
	.set L$set$1514,LEFDE458-LASFDE458
	.long L$set$1514
LASFDE458:
	.set L$set$1515,Lframe0-Lsection__debug_frame
	.long L$set$1515
	.quad	LFB2167
	.set L$set$1516,LFE2167-LFB2167
	.quad L$set$1516
	.byte	0x4
	.set L$set$1517,LCFI639-LFB2167
	.long L$set$1517
	.byte	0xe
	.byte	0x10
	.byte	0x86
	.byte	0x2
	.byte	0x4
	.set L$set$1518,LCFI640-LCFI639
	.long L$set$1518
	.byte	0xd
	.byte	0x6
	.align 3
LEFDE458:
LSFDE460:
	.set L$set$1519,LEFDE460-LASFDE460
	.long L$set$1519
LASFDE460:
	.set L$set$1520,Lframe0-Lsection__debug_frame
	.long L$set$1520
	.quad	LFB2230
	.set L$set$1521,LFE2230-LFB2230
	.quad L$set$1521
	.byte	0x4
	.set L$set$1522,LCFI642-LFB2230
	.long L$set$1522
	.byte	0xe
	.byte	0x10
	.byte	0x86
	.byte	0x2
	.byte	0x4
	.set L$set$1523,LCFI643-LCFI642
	.long L$set$1523
	.byte	0xd
	.byte	0x6
	.align 3
LEFDE460:
LSFDE462:
	.set L$set$1524,LEFDE462-LASFDE462
	.long L$set$1524
LASFDE462:
	.set L$set$1525,Lframe0-Lsection__debug_frame
	.long L$set$1525
	.quad	LFB2127
	.set L$set$1526,LFE2127-LFB2127
	.quad L$set$1526
	.byte	0x4
	.set L$set$1527,LCFI645-LFB2127
	.long L$set$1527
	.byte	0xe
	.byte	0x10
	.byte	0x86
	.byte	0x2
	.byte	0x4
	.set L$set$1528,LCFI646-LCFI645
	.long L$set$1528
	.byte	0xd
	.byte	0x6
	.byte	0x4
	.set L$set$1529,LCFI650-LCFI646
	.long L$set$1529
	.byte	0x83
	.byte	0x5
	.byte	0x8c
	.byte	0x4
	.byte	0x8d
	.byte	0x3
	.align 3
LEFDE462:
LSFDE464:
	.set L$set$1530,LEFDE464-LASFDE464
	.long L$set$1530
LASFDE464:
	.set L$set$1531,Lframe0-Lsection__debug_frame
	.long L$set$1531
	.quad	LFB2436
	.set L$set$1532,LFE2436-LFB2436
	.quad L$set$1532
	.byte	0x4
	.set L$set$1533,LCFI651-LFB2436
	.long L$set$1533
	.byte	0xe
	.byte	0x10
	.byte	0x86
	.byte	0x2
	.byte	0x4
	.set L$set$1534,LCFI652-LCFI651
	.long L$set$1534
	.byte	0xd
	.byte	0x6
	.align 3
LEFDE464:
LSFDE466:
	.set L$set$1535,LEFDE466-LASFDE466
	.long L$set$1535
LASFDE466:
	.set L$set$1536,Lframe0-Lsection__debug_frame
	.long L$set$1536
	.quad	LFB2423
	.set L$set$1537,LFE2423-LFB2423
	.quad L$set$1537
	.byte	0x4
	.set L$set$1538,LCFI654-LFB2423
	.long L$set$1538
	.byte	0xe
	.byte	0x10
	.byte	0x86
	.byte	0x2
	.byte	0x4
	.set L$set$1539,LCFI655-LCFI654
	.long L$set$1539
	.byte	0xd
	.byte	0x6
	.align 3
LEFDE466:
LSFDE468:
	.set L$set$1540,LEFDE468-LASFDE468
	.long L$set$1540
LASFDE468:
	.set L$set$1541,Lframe0-Lsection__debug_frame
	.long L$set$1541
	.quad	LFB2385
	.set L$set$1542,LFE2385-LFB2385
	.quad L$set$1542
	.byte	0x4
	.set L$set$1543,LCFI657-LFB2385
	.long L$set$1543
	.byte	0xe
	.byte	0x10
	.byte	0x86
	.byte	0x2
	.byte	0x4
	.set L$set$1544,LCFI658-LCFI657
	.long L$set$1544
	.byte	0xd
	.byte	0x6
	.byte	0x4
	.set L$set$1545,LCFI660-LCFI658
	.long L$set$1545
	.byte	0x83
	.byte	0x3
	.align 3
LEFDE468:
LSFDE470:
	.set L$set$1546,LEFDE470-LASFDE470
	.long L$set$1546
LASFDE470:
	.set L$set$1547,Lframe0-Lsection__debug_frame
	.long L$set$1547
	.quad	LFB2398
	.set L$set$1548,LFE2398-LFB2398
	.quad L$set$1548
	.byte	0x4
	.set L$set$1549,LCFI661-LFB2398
	.long L$set$1549
	.byte	0xe
	.byte	0x10
	.byte	0x86
	.byte	0x2
	.byte	0x4
	.set L$set$1550,LCFI662-LCFI661
	.long L$set$1550
	.byte	0xd
	.byte	0x6
	.align 3
LEFDE470:
LSFDE472:
	.set L$set$1551,LEFDE472-LASFDE472
	.long L$set$1551
LASFDE472:
	.set L$set$1552,Lframe0-Lsection__debug_frame
	.long L$set$1552
	.quad	LFB2353
	.set L$set$1553,LFE2353-LFB2353
	.quad L$set$1553
	.byte	0x4
	.set L$set$1554,LCFI664-LFB2353
	.long L$set$1554
	.byte	0xe
	.byte	0x10
	.byte	0x86
	.byte	0x2
	.byte	0x4
	.set L$set$1555,LCFI665-LCFI664
	.long L$set$1555
	.byte	0xd
	.byte	0x6
	.align 3
LEFDE472:
LSFDE474:
	.set L$set$1556,LEFDE474-LASFDE474
	.long L$set$1556
LASFDE474:
	.set L$set$1557,Lframe0-Lsection__debug_frame
	.long L$set$1557
	.quad	LFB2257
	.set L$set$1558,LFE2257-LFB2257
	.quad L$set$1558
	.byte	0x4
	.set L$set$1559,LCFI667-LFB2257
	.long L$set$1559
	.byte	0xe
	.byte	0x10
	.byte	0x86
	.byte	0x2
	.byte	0x4
	.set L$set$1560,LCFI668-LCFI667
	.long L$set$1560
	.byte	0xd
	.byte	0x6
	.byte	0x4
	.set L$set$1561,LCFI671-LCFI668
	.long L$set$1561
	.byte	0x83
	.byte	0x4
	.byte	0x8c
	.byte	0x3
	.align 3
LEFDE474:
LSFDE476:
	.set L$set$1562,LEFDE476-LASFDE476
	.long L$set$1562
LASFDE476:
	.set L$set$1563,Lframe0-Lsection__debug_frame
	.long L$set$1563
	.quad	LFB2143
	.set L$set$1564,LFE2143-LFB2143
	.quad L$set$1564
	.byte	0x4
	.set L$set$1565,LCFI672-LFB2143
	.long L$set$1565
	.byte	0xe
	.byte	0x10
	.byte	0x86
	.byte	0x2
	.byte	0x4
	.set L$set$1566,LCFI673-LCFI672
	.long L$set$1566
	.byte	0xd
	.byte	0x6
	.align 3
LEFDE476:
LSFDE478:
	.set L$set$1567,LEFDE478-LASFDE478
	.long L$set$1567
LASFDE478:
	.set L$set$1568,Lframe0-Lsection__debug_frame
	.long L$set$1568
	.quad	LFB2265
	.set L$set$1569,LFE2265-LFB2265
	.quad L$set$1569
	.byte	0x4
	.set L$set$1570,LCFI675-LFB2265
	.long L$set$1570
	.byte	0xe
	.byte	0x10
	.byte	0x86
	.byte	0x2
	.byte	0x4
	.set L$set$1571,LCFI676-LCFI675
	.long L$set$1571
	.byte	0xd
	.byte	0x6
	.align 3
LEFDE478:
LSFDE480:
	.set L$set$1572,LEFDE480-LASFDE480
	.long L$set$1572
LASFDE480:
	.set L$set$1573,Lframe0-Lsection__debug_frame
	.long L$set$1573
	.quad	LFB2153
	.set L$set$1574,LFE2153-LFB2153
	.quad L$set$1574
	.byte	0x4
	.set L$set$1575,LCFI678-LFB2153
	.long L$set$1575
	.byte	0xe
	.byte	0x10
	.byte	0x86
	.byte	0x2
	.byte	0x4
	.set L$set$1576,LCFI679-LCFI678
	.long L$set$1576
	.byte	0xd
	.byte	0x6
	.byte	0x4
	.set L$set$1577,LCFI683-LCFI679
	.long L$set$1577
	.byte	0x83
	.byte	0x5
	.byte	0x8c
	.byte	0x4
	.byte	0x8d
	.byte	0x3
	.align 3
LEFDE480:
LSFDE482:
	.set L$set$1578,LEFDE482-LASFDE482
	.long L$set$1578
LASFDE482:
	.set L$set$1579,Lframe0-Lsection__debug_frame
	.long L$set$1579
	.quad	LFB2329
	.set L$set$1580,LFE2329-LFB2329
	.quad L$set$1580
	.byte	0x4
	.set L$set$1581,LCFI684-LFB2329
	.long L$set$1581
	.byte	0xe
	.byte	0x10
	.byte	0x86
	.byte	0x2
	.byte	0x4
	.set L$set$1582,LCFI685-LCFI684
	.long L$set$1582
	.byte	0xd
	.byte	0x6
	.byte	0x4
	.set L$set$1583,LCFI687-LCFI685
	.long L$set$1583
	.byte	0x83
	.byte	0x3
	.align 3
LEFDE482:
LSFDE484:
	.set L$set$1584,LEFDE484-LASFDE484
	.long L$set$1584
LASFDE484:
	.set L$set$1585,Lframe0-Lsection__debug_frame
	.long L$set$1585
	.quad	LFB2204
	.set L$set$1586,LFE2204-LFB2204
	.quad L$set$1586
	.byte	0x4
	.set L$set$1587,LCFI688-LFB2204
	.long L$set$1587
	.byte	0xe
	.byte	0x10
	.byte	0x86
	.byte	0x2
	.byte	0x4
	.set L$set$1588,LCFI689-LCFI688
	.long L$set$1588
	.byte	0xd
	.byte	0x6
	.byte	0x4
	.set L$set$1589,LCFI691-LCFI689
	.long L$set$1589
	.byte	0x83
	.byte	0x3
	.align 3
LEFDE484:
LSFDE486:
	.set L$set$1590,LEFDE486-LASFDE486
	.long L$set$1590
LASFDE486:
	.set L$set$1591,Lframe0-Lsection__debug_frame
	.long L$set$1591
	.quad	LFB2113
	.set L$set$1592,LFE2113-LFB2113
	.quad L$set$1592
	.byte	0x4
	.set L$set$1593,LCFI692-LFB2113
	.long L$set$1593
	.byte	0xe
	.byte	0x10
	.byte	0x86
	.byte	0x2
	.byte	0x4
	.set L$set$1594,LCFI693-LCFI692
	.long L$set$1594
	.byte	0xd
	.byte	0x6
	.align 3
LEFDE486:
LSFDE488:
	.set L$set$1595,LEFDE488-LASFDE488
	.long L$set$1595
LASFDE488:
	.set L$set$1596,Lframe0-Lsection__debug_frame
	.long L$set$1596
	.quad	LFB2067
	.set L$set$1597,LFE2067-LFB2067
	.quad L$set$1597
	.byte	0x4
	.set L$set$1598,LCFI695-LFB2067
	.long L$set$1598
	.byte	0xe
	.byte	0x10
	.byte	0x86
	.byte	0x2
	.byte	0x4
	.set L$set$1599,LCFI696-LCFI695
	.long L$set$1599
	.byte	0xd
	.byte	0x6
	.byte	0x4
	.set L$set$1600,LCFI698-LCFI696
	.long L$set$1600
	.byte	0x83
	.byte	0x3
	.align 3
LEFDE488:
LSFDE490:
	.set L$set$1601,LEFDE490-LASFDE490
	.long L$set$1601
LASFDE490:
	.set L$set$1602,Lframe0-Lsection__debug_frame
	.long L$set$1602
	.quad	LFB2068
	.set L$set$1603,LFE2068-LFB2068
	.quad L$set$1603
	.byte	0x4
	.set L$set$1604,LCFI699-LFB2068
	.long L$set$1604
	.byte	0xe
	.byte	0x10
	.byte	0x86
	.byte	0x2
	.byte	0x4
	.set L$set$1605,LCFI700-LCFI699
	.long L$set$1605
	.byte	0xd
	.byte	0x6
	.byte	0x4
	.set L$set$1606,LCFI702-LCFI700
	.long L$set$1606
	.byte	0x83
	.byte	0x3
	.align 3
LEFDE490:
LSFDE492:
	.set L$set$1607,LEFDE492-LASFDE492
	.long L$set$1607
LASFDE492:
	.set L$set$1608,Lframe0-Lsection__debug_frame
	.long L$set$1608
	.quad	LFB2065
	.set L$set$1609,LFE2065-LFB2065
	.quad L$set$1609
	.byte	0x4
	.set L$set$1610,LCFI703-LFB2065
	.long L$set$1610
	.byte	0xe
	.byte	0x10
	.byte	0x86
	.byte	0x2
	.byte	0x4
	.set L$set$1611,LCFI704-LCFI703
	.long L$set$1611
	.byte	0xd
	.byte	0x6
	.byte	0x4
	.set L$set$1612,LCFI706-LCFI704
	.long L$set$1612
	.byte	0x83
	.byte	0x3
	.align 3
LEFDE492:
LSFDE494:
	.set L$set$1613,LEFDE494-LASFDE494
	.long L$set$1613
LASFDE494:
	.set L$set$1614,Lframe0-Lsection__debug_frame
	.long L$set$1614
	.quad	LFB2069
	.set L$set$1615,LFE2069-LFB2069
	.quad L$set$1615
	.byte	0x4
	.set L$set$1616,LCFI707-LFB2069
	.long L$set$1616
	.byte	0xe
	.byte	0x10
	.byte	0x86
	.byte	0x2
	.byte	0x4
	.set L$set$1617,LCFI708-LCFI707
	.long L$set$1617
	.byte	0xd
	.byte	0x6
	.byte	0x4
	.set L$set$1618,LCFI710-LCFI708
	.long L$set$1618
	.byte	0x83
	.byte	0x3
	.align 3
LEFDE494:
LSFDE496:
	.set L$set$1619,LEFDE496-LASFDE496
	.long L$set$1619
LASFDE496:
	.set L$set$1620,Lframe0-Lsection__debug_frame
	.long L$set$1620
	.quad	LFB2070
	.set L$set$1621,LFE2070-LFB2070
	.quad L$set$1621
	.byte	0x4
	.set L$set$1622,LCFI711-LFB2070
	.long L$set$1622
	.byte	0xe
	.byte	0x10
	.byte	0x86
	.byte	0x2
	.byte	0x4
	.set L$set$1623,LCFI712-LCFI711
	.long L$set$1623
	.byte	0xd
	.byte	0x6
	.byte	0x4
	.set L$set$1624,LCFI715-LCFI712
	.long L$set$1624
	.byte	0x83
	.byte	0x4
	.byte	0x8c
	.byte	0x3
	.align 3
LEFDE496:
LSFDE498:
	.set L$set$1625,LEFDE498-LASFDE498
	.long L$set$1625
LASFDE498:
	.set L$set$1626,Lframe0-Lsection__debug_frame
	.long L$set$1626
	.quad	LFB2062
	.set L$set$1627,LFE2062-LFB2062
	.quad L$set$1627
	.byte	0x4
	.set L$set$1628,LCFI716-LFB2062
	.long L$set$1628
	.byte	0xe
	.byte	0x10
	.byte	0x86
	.byte	0x2
	.byte	0x4
	.set L$set$1629,LCFI717-LCFI716
	.long L$set$1629
	.byte	0xd
	.byte	0x6
	.byte	0x4
	.set L$set$1630,LCFI719-LCFI717
	.long L$set$1630
	.byte	0x83
	.byte	0x3
	.align 3
LEFDE498:
LSFDE500:
	.set L$set$1631,LEFDE500-LASFDE500
	.long L$set$1631
LASFDE500:
	.set L$set$1632,Lframe0-Lsection__debug_frame
	.long L$set$1632
	.quad	LFB2063
	.set L$set$1633,LFE2063-LFB2063
	.quad L$set$1633
	.byte	0x4
	.set L$set$1634,LCFI720-LFB2063
	.long L$set$1634
	.byte	0xe
	.byte	0x10
	.byte	0x86
	.byte	0x2
	.byte	0x4
	.set L$set$1635,LCFI721-LCFI720
	.long L$set$1635
	.byte	0xd
	.byte	0x6
	.byte	0x4
	.set L$set$1636,LCFI723-LCFI721
	.long L$set$1636
	.byte	0x83
	.byte	0x3
	.align 3
LEFDE500:
LSFDE502:
	.set L$set$1637,LEFDE502-LASFDE502
	.long L$set$1637
LASFDE502:
	.set L$set$1638,Lframe0-Lsection__debug_frame
	.long L$set$1638
	.quad	LFB2117
	.set L$set$1639,LFE2117-LFB2117
	.quad L$set$1639
	.byte	0x4
	.set L$set$1640,LCFI724-LFB2117
	.long L$set$1640
	.byte	0xe
	.byte	0x10
	.byte	0x86
	.byte	0x2
	.byte	0x4
	.set L$set$1641,LCFI725-LCFI724
	.long L$set$1641
	.byte	0xd
	.byte	0x6
	.align 3
LEFDE502:
LSFDE504:
	.set L$set$1642,LEFDE504-LASFDE504
	.long L$set$1642
LASFDE504:
	.set L$set$1643,Lframe0-Lsection__debug_frame
	.long L$set$1643
	.quad	LFB2058
	.set L$set$1644,LFE2058-LFB2058
	.quad L$set$1644
	.byte	0x4
	.set L$set$1645,LCFI727-LFB2058
	.long L$set$1645
	.byte	0xe
	.byte	0x10
	.byte	0x86
	.byte	0x2
	.byte	0x4
	.set L$set$1646,LCFI728-LCFI727
	.long L$set$1646
	.byte	0xd
	.byte	0x6
	.byte	0x4
	.set L$set$1647,LCFI730-LCFI728
	.long L$set$1647
	.byte	0x83
	.byte	0x3
	.align 3
LEFDE504:
LSFDE506:
	.set L$set$1648,LEFDE506-LASFDE506
	.long L$set$1648
LASFDE506:
	.set L$set$1649,Lframe0-Lsection__debug_frame
	.long L$set$1649
	.quad	LFB2057
	.set L$set$1650,LFE2057-LFB2057
	.quad L$set$1650
	.byte	0x4
	.set L$set$1651,LCFI731-LFB2057
	.long L$set$1651
	.byte	0xe
	.byte	0x10
	.byte	0x86
	.byte	0x2
	.byte	0x4
	.set L$set$1652,LCFI732-LCFI731
	.long L$set$1652
	.byte	0xd
	.byte	0x6
	.align 3
LEFDE506:
LSFDE508:
	.set L$set$1653,LEFDE508-LASFDE508
	.long L$set$1653
LASFDE508:
	.set L$set$1654,Lframe0-Lsection__debug_frame
	.long L$set$1654
	.quad	LFB2056
	.set L$set$1655,LFE2056-LFB2056
	.quad L$set$1655
	.byte	0x4
	.set L$set$1656,LCFI734-LFB2056
	.long L$set$1656
	.byte	0xe
	.byte	0x10
	.byte	0x86
	.byte	0x2
	.byte	0x4
	.set L$set$1657,LCFI735-LCFI734
	.long L$set$1657
	.byte	0xd
	.byte	0x6
	.align 3
LEFDE508:
LSFDE510:
	.set L$set$1658,LEFDE510-LASFDE510
	.long L$set$1658
LASFDE510:
	.set L$set$1659,Lframe0-Lsection__debug_frame
	.long L$set$1659
	.quad	LFB2055
	.set L$set$1660,LFE2055-LFB2055
	.quad L$set$1660
	.byte	0x4
	.set L$set$1661,LCFI737-LFB2055
	.long L$set$1661
	.byte	0xe
	.byte	0x10
	.byte	0x86
	.byte	0x2
	.byte	0x4
	.set L$set$1662,LCFI738-LCFI737
	.long L$set$1662
	.byte	0xd
	.byte	0x6
	.align 3
LEFDE510:
LSFDE512:
	.set L$set$1663,LEFDE512-LASFDE512
	.long L$set$1663
LASFDE512:
	.set L$set$1664,Lframe0-Lsection__debug_frame
	.long L$set$1664
	.quad	LFB2053
	.set L$set$1665,LFE2053-LFB2053
	.quad L$set$1665
	.byte	0x4
	.set L$set$1666,LCFI740-LFB2053
	.long L$set$1666
	.byte	0xe
	.byte	0x10
	.byte	0x86
	.byte	0x2
	.byte	0x4
	.set L$set$1667,LCFI741-LCFI740
	.long L$set$1667
	.byte	0xd
	.byte	0x6
	.byte	0x4
	.set L$set$1668,LCFI743-LCFI741
	.long L$set$1668
	.byte	0x83
	.byte	0x3
	.align 3
LEFDE512:
LSFDE514:
	.set L$set$1669,LEFDE514-LASFDE514
	.long L$set$1669
LASFDE514:
	.set L$set$1670,Lframe0-Lsection__debug_frame
	.long L$set$1670
	.quad	LFB2052
	.set L$set$1671,LFE2052-LFB2052
	.quad L$set$1671
	.byte	0x4
	.set L$set$1672,LCFI744-LFB2052
	.long L$set$1672
	.byte	0xe
	.byte	0x10
	.byte	0x86
	.byte	0x2
	.byte	0x4
	.set L$set$1673,LCFI745-LCFI744
	.long L$set$1673
	.byte	0xd
	.byte	0x6
	.byte	0x4
	.set L$set$1674,LCFI747-LCFI745
	.long L$set$1674
	.byte	0x83
	.byte	0x3
	.align 3
LEFDE514:
	.section __TEXT,__eh_frame,coalesced,no_toc+strip_static_syms+live_support
EH_frame1:
	.set L$set$1675,LECIE1-LSCIE1
	.long L$set$1675
LSCIE1:
	.long	0x0
	.byte	0x1
	.ascii "zPLR\0"
	.byte	0x1
	.byte	0x78
	.byte	0x10
	.byte	0x7
	.byte	0x9b
	.long	___gxx_personality_v0+4@GOTPCREL
	.byte	0x10
	.byte	0x10
	.byte	0xc
	.byte	0x7
	.byte	0x8
	.byte	0x90
	.byte	0x1
	.align 3
LECIE1:
.globl __ZnwmPv.eh
	.weak_definition __ZnwmPv.eh
__ZnwmPv.eh:
LSFDE1:
	.set L$set$1676,LEFDE1-LASFDE1
	.long L$set$1676
LASFDE1:
	.long	LASFDE1-EH_frame1
	.quad	LFB243-.
	.set L$set$1677,LFE243-LFB243
	.quad L$set$1677
	.byte	0x8
	.quad	0x0
	.byte	0x4
	.set L$set$1678,LCFI0-LFB243
	.long L$set$1678
	.byte	0xe
	.byte	0x10
	.byte	0x86
	.byte	0x2
	.byte	0x4
	.set L$set$1679,LCFI1-LCFI0
	.long L$set$1679
	.byte	0xd
	.byte	0x6
	.align 3
LEFDE1:
.globl __ZNSt14numeric_limitsItE3maxEv.eh
	.weak_definition __ZNSt14numeric_limitsItE3maxEv.eh
__ZNSt14numeric_limitsItE3maxEv.eh:
LSFDE3:
	.set L$set$1680,LEFDE3-LASFDE3
	.long L$set$1680
LASFDE3:
	.long	LASFDE3-EH_frame1
	.quad	LFB565-.
	.set L$set$1681,LFE565-LFB565
	.quad L$set$1681
	.byte	0x8
	.quad	0x0
	.byte	0x4
	.set L$set$1682,LCFI2-LFB565
	.long L$set$1682
	.byte	0xe
	.byte	0x10
	.byte	0x86
	.byte	0x2
	.byte	0x4
	.set L$set$1683,LCFI3-LCFI2
	.long L$set$1683
	.byte	0xd
	.byte	0x6
	.align 3
LEFDE3:
.globl __ZN6EValueC1Ev.eh
	.weak_definition __ZN6EValueC1Ev.eh
__ZN6EValueC1Ev.eh:
LSFDE5:
	.set L$set$1684,LEFDE5-LASFDE5
	.long L$set$1684
LASFDE5:
	.long	LASFDE5-EH_frame1
	.quad	LFB1942-.
	.set L$set$1685,LFE1942-LFB1942
	.quad L$set$1685
	.byte	0x8
	.quad	0x0
	.byte	0x4
	.set L$set$1686,LCFI4-LFB1942
	.long L$set$1686
	.byte	0xe
	.byte	0x10
	.byte	0x86
	.byte	0x2
	.byte	0x4
	.set L$set$1687,LCFI5-LCFI4
	.long L$set$1687
	.byte	0xd
	.byte	0x6
	.align 3
LEFDE5:
.globl __ZN6EValue7addRailEv.eh
	.weak_definition __ZN6EValue7addRailEv.eh
__ZN6EValue7addRailEv.eh:
LSFDE7:
	.set L$set$1688,LEFDE7-LASFDE7
	.long L$set$1688
LASFDE7:
	.long	LASFDE7-EH_frame1
	.quad	LFB1943-.
	.set L$set$1689,LFE1943-LFB1943
	.quad L$set$1689
	.byte	0x8
	.quad	0x0
	.byte	0x4
	.set L$set$1690,LCFI7-LFB1943
	.long L$set$1690
	.byte	0xe
	.byte	0x10
	.byte	0x86
	.byte	0x2
	.byte	0x4
	.set L$set$1691,LCFI8-LCFI7
	.long L$set$1691
	.byte	0xd
	.byte	0x6
	.align 3
LEFDE7:
.globl __ZN6EValue13addConnectionEv.eh
	.weak_definition __ZN6EValue13addConnectionEv.eh
__ZN6EValue13addConnectionEv.eh:
LSFDE9:
	.set L$set$1692,LEFDE9-LASFDE9
	.long L$set$1692
LASFDE9:
	.long	LASFDE9-EH_frame1
	.quad	LFB1944-.
	.set L$set$1693,LFE1944-LFB1944
	.quad L$set$1693
	.byte	0x8
	.quad	0x0
	.byte	0x4
	.set L$set$1694,LCFI9-LFB1944
	.long L$set$1694
	.byte	0xe
	.byte	0x10
	.byte	0x86
	.byte	0x2
	.byte	0x4
	.set L$set$1695,LCFI10-LCFI9
	.long L$set$1695
	.byte	0xd
	.byte	0x6
	.align 3
LEFDE9:
.globl __ZN6EValue10addBarrierEv.eh
	.weak_definition __ZN6EValue10addBarrierEv.eh
__ZN6EValue10addBarrierEv.eh:
LSFDE11:
	.set L$set$1696,LEFDE11-LASFDE11
	.long L$set$1696
LASFDE11:
	.long	LASFDE11-EH_frame1
	.quad	LFB1945-.
	.set L$set$1697,LFE1945-LFB1945
	.quad L$set$1697
	.byte	0x8
	.quad	0x0
	.byte	0x4
	.set L$set$1698,LCFI11-LFB1945
	.long L$set$1698
	.byte	0xe
	.byte	0x10
	.byte	0x86
	.byte	0x2
	.byte	0x4
	.set L$set$1699,LCFI12-LCFI11
	.long L$set$1699
	.byte	0xd
	.byte	0x6
	.align 3
LEFDE11:
.globl __ZN6EValue15addCheapBarrierEv.eh
	.weak_definition __ZN6EValue15addCheapBarrierEv.eh
__ZN6EValue15addCheapBarrierEv.eh:
LSFDE13:
	.set L$set$1700,LEFDE13-LASFDE13
	.long L$set$1700
LASFDE13:
	.long	LASFDE13-EH_frame1
	.quad	LFB1946-.
	.set L$set$1701,LFE1946-LFB1946
	.quad L$set$1701
	.byte	0x8
	.quad	0x0
	.byte	0x4
	.set L$set$1702,LCFI13-LFB1946
	.long L$set$1702
	.byte	0xe
	.byte	0x10
	.byte	0x86
	.byte	0x2
	.byte	0x4
	.set L$set$1703,LCFI14-LCFI13
	.long L$set$1703
	.byte	0xd
	.byte	0x6
	.align 3
LEFDE13:
.globl __ZN6EValueaSEj.eh
	.weak_definition __ZN6EValueaSEj.eh
__ZN6EValueaSEj.eh:
LSFDE15:
	.set L$set$1704,LEFDE15-LASFDE15
	.long L$set$1704
LASFDE15:
	.long	LASFDE15-EH_frame1
	.quad	LFB1947-.
	.set L$set$1705,LFE1947-LFB1947
	.quad L$set$1705
	.byte	0x8
	.quad	0x0
	.byte	0x4
	.set L$set$1706,LCFI15-LFB1947
	.long L$set$1706
	.byte	0xe
	.byte	0x10
	.byte	0x86
	.byte	0x2
	.byte	0x4
	.set L$set$1707,LCFI16-LCFI15
	.long L$set$1707
	.byte	0xd
	.byte	0x6
	.align 3
LEFDE15:
.globl __ZNK6EValuemiERKS_.eh
	.weak_definition __ZNK6EValuemiERKS_.eh
__ZNK6EValuemiERKS_.eh:
LSFDE17:
	.set L$set$1708,LEFDE17-LASFDE17
	.long L$set$1708
LASFDE17:
	.long	LASFDE17-EH_frame1
	.quad	LFB1948-.
	.set L$set$1709,LFE1948-LFB1948
	.quad L$set$1709
	.byte	0x8
	.quad	0x0
	.byte	0x4
	.set L$set$1710,LCFI17-LFB1948
	.long L$set$1710
	.byte	0xe
	.byte	0x10
	.byte	0x86
	.byte	0x2
	.byte	0x4
	.set L$set$1711,LCFI18-LCFI17
	.long L$set$1711
	.byte	0xd
	.byte	0x6
	.align 3
LEFDE17:
.globl __ZNK6EValuegtEj.eh
	.weak_definition __ZNK6EValuegtEj.eh
__ZNK6EValuegtEj.eh:
LSFDE19:
	.set L$set$1712,LEFDE19-LASFDE19
	.long L$set$1712
LASFDE19:
	.long	LASFDE19-EH_frame1
	.quad	LFB1949-.
	.set L$set$1713,LFE1949-LFB1949
	.quad L$set$1713
	.byte	0x8
	.quad	0x0
	.byte	0x4
	.set L$set$1714,LCFI20-LFB1949
	.long L$set$1714
	.byte	0xe
	.byte	0x10
	.byte	0x86
	.byte	0x2
	.byte	0x4
	.set L$set$1715,LCFI21-LCFI20
	.long L$set$1715
	.byte	0xd
	.byte	0x6
	.align 3
LEFDE19:
.globl __ZNK6EValueeqEj.eh
	.weak_definition __ZNK6EValueeqEj.eh
__ZNK6EValueeqEj.eh:
LSFDE21:
	.set L$set$1716,LEFDE21-LASFDE21
	.long L$set$1716
LASFDE21:
	.long	LASFDE21-EH_frame1
	.quad	LFB1950-.
	.set L$set$1717,LFE1950-LFB1950
	.quad L$set$1717
	.byte	0x8
	.quad	0x0
	.byte	0x4
	.set L$set$1718,LCFI22-LFB1950
	.long L$set$1718
	.byte	0xe
	.byte	0x10
	.byte	0x86
	.byte	0x2
	.byte	0x4
	.set L$set$1719,LCFI23-LCFI22
	.long L$set$1719
	.byte	0xd
	.byte	0x6
	.align 3
LEFDE21:
.globl __ZNK6EValuegeEj.eh
	.weak_definition __ZNK6EValuegeEj.eh
__ZNK6EValuegeEj.eh:
LSFDE23:
	.set L$set$1720,LEFDE23-LASFDE23
	.long L$set$1720
LASFDE23:
	.long	LASFDE23-EH_frame1
	.quad	LFB1951-.
	.set L$set$1721,LFE1951-LFB1951
	.quad L$set$1721
	.byte	0x8
	.quad	0x0
	.byte	0x4
	.set L$set$1722,LCFI24-LFB1951
	.long L$set$1722
	.byte	0xe
	.byte	0x10
	.byte	0x86
	.byte	0x2
	.byte	0x4
	.set L$set$1723,LCFI25-LCFI24
	.long L$set$1723
	.byte	0xd
	.byte	0x6
	.align 3
LEFDE23:
.globl __ZNK6EValueleEj.eh
	.weak_definition __ZNK6EValueleEj.eh
__ZNK6EValueleEj.eh:
LSFDE25:
	.set L$set$1724,LEFDE25-LASFDE25
	.long L$set$1724
LASFDE25:
	.long	LASFDE25-EH_frame1
	.quad	LFB1952-.
	.set L$set$1725,LFE1952-LFB1952
	.quad L$set$1725
	.byte	0x8
	.quad	0x0
	.byte	0x4
	.set L$set$1726,LCFI27-LFB1952
	.long L$set$1726
	.byte	0xe
	.byte	0x10
	.byte	0x86
	.byte	0x2
	.byte	0x4
	.set L$set$1727,LCFI28-LCFI27
	.long L$set$1727
	.byte	0xd
	.byte	0x6
	.align 3
LEFDE25:
.globl __ZNK6EValueltES_.eh
	.weak_definition __ZNK6EValueltES_.eh
__ZNK6EValueltES_.eh:
LSFDE27:
	.set L$set$1728,LEFDE27-LASFDE27
	.long L$set$1728
LASFDE27:
	.long	LASFDE27-EH_frame1
	.quad	LFB1953-.
	.set L$set$1729,LFE1953-LFB1953
	.quad L$set$1729
	.byte	0x8
	.quad	0x0
	.byte	0x4
	.set L$set$1730,LCFI30-LFB1953
	.long L$set$1730
	.byte	0xe
	.byte	0x10
	.byte	0x86
	.byte	0x2
	.byte	0x4
	.set L$set$1731,LCFI31-LCFI30
	.long L$set$1731
	.byte	0xd
	.byte	0x6
	.align 3
LEFDE27:
.globl __ZNK6EValuegtES_.eh
	.weak_definition __ZNK6EValuegtES_.eh
__ZNK6EValuegtES_.eh:
LSFDE29:
	.set L$set$1732,LEFDE29-LASFDE29
	.long L$set$1732
LASFDE29:
	.long	LASFDE29-EH_frame1
	.quad	LFB1954-.
	.set L$set$1733,LFE1954-LFB1954
	.quad L$set$1733
	.byte	0x8
	.quad	0x0
	.byte	0x4
	.set L$set$1734,LCFI32-LFB1954
	.long L$set$1734
	.byte	0xe
	.byte	0x10
	.byte	0x86
	.byte	0x2
	.byte	0x4
	.set L$set$1735,LCFI33-LCFI32
	.long L$set$1735
	.byte	0xd
	.byte	0x6
	.align 3
LEFDE29:
.globl __ZNK6EValueleES_.eh
	.weak_definition __ZNK6EValueleES_.eh
__ZNK6EValueleES_.eh:
LSFDE31:
	.set L$set$1736,LEFDE31-LASFDE31
	.long L$set$1736
LASFDE31:
	.long	LASFDE31-EH_frame1
	.quad	LFB1955-.
	.set L$set$1737,LFE1955-LFB1955
	.quad L$set$1737
	.byte	0x8
	.quad	0x0
	.byte	0x4
	.set L$set$1738,LCFI34-LFB1955
	.long L$set$1738
	.byte	0xe
	.byte	0x10
	.byte	0x86
	.byte	0x2
	.byte	0x4
	.set L$set$1739,LCFI35-LCFI34
	.long L$set$1739
	.byte	0xd
	.byte	0x6
	.align 3
LEFDE31:
.globl __ZN7DavidAI27gatherInformationEndOfRoundEPK11RoundLogger.eh
__ZN7DavidAI27gatherInformationEndOfRoundEPK11RoundLogger.eh:
LSFDE33:
	.set L$set$1740,LEFDE33-LASFDE33
	.long L$set$1740
LASFDE33:
	.long	LASFDE33-EH_frame1
	.quad	LFB2064-.
	.set L$set$1741,LFE2064-LFB2064
	.quad L$set$1741
	.byte	0x8
	.quad	0x0
	.byte	0x4
	.set L$set$1742,LCFI37-LFB2064
	.long L$set$1742
	.byte	0xe
	.byte	0x10
	.byte	0x86
	.byte	0x2
	.byte	0x4
	.set L$set$1743,LCFI38-LCFI37
	.long L$set$1743
	.byte	0xd
	.byte	0x6
	.align 3
LEFDE33:
.globl __ZN6VectoraSERKS_.eh
	.weak_definition __ZN6VectoraSERKS_.eh
__ZN6VectoraSERKS_.eh:
LSFDE35:
	.set L$set$1744,LEFDE35-LASFDE35
	.long L$set$1744
LASFDE35:
	.long	LASFDE35-EH_frame1
	.quad	LFB2066-.
	.set L$set$1745,LFE2066-LFB2066
	.quad L$set$1745
	.byte	0x8
	.quad	0x0
	.byte	0x4
	.set L$set$1746,LCFI39-LFB2066
	.long L$set$1746
	.byte	0xe
	.byte	0x10
	.byte	0x86
	.byte	0x2
	.byte	0x4
	.set L$set$1747,LCFI40-LCFI39
	.long L$set$1747
	.byte	0xd
	.byte	0x6
	.align 3
LEFDE35:
.globl __ZSt3minImERKT_S2_S2_.eh
	.weak_definition __ZSt3minImERKT_S2_S2_.eh
__ZSt3minImERKT_S2_S2_.eh:
LSFDE37:
	.set L$set$1748,LEFDE37-LASFDE37
	.long L$set$1748
LASFDE37:
	.long	LASFDE37-EH_frame1
	.quad	LFB2071-.
	.set L$set$1749,LFE2071-LFB2071
	.quad L$set$1749
	.byte	0x8
	.quad	0x0
	.byte	0x4
	.set L$set$1750,LCFI41-LFB2071
	.long L$set$1750
	.byte	0xe
	.byte	0x10
	.byte	0x86
	.byte	0x2
	.byte	0x4
	.set L$set$1751,LCFI42-LCFI41
	.long L$set$1751
	.byte	0xd
	.byte	0x6
	.align 3
LEFDE37:
__ZStL17__verify_groupingPKcmRKSs.eh:
LSFDE39:
	.set L$set$1752,LEFDE39-LASFDE39
	.long L$set$1752
LASFDE39:
	.long	LASFDE39-EH_frame1
	.quad	LFB1619-.
	.set L$set$1753,LFE1619-LFB1619
	.quad L$set$1753
	.byte	0x8
	.quad	0x0
	.byte	0x4
	.set L$set$1754,LCFI43-LFB1619
	.long L$set$1754
	.byte	0xe
	.byte	0x10
	.byte	0x86
	.byte	0x2
	.byte	0x4
	.set L$set$1755,LCFI44-LCFI43
	.long L$set$1755
	.byte	0xd
	.byte	0x6
	.byte	0x4
	.set L$set$1756,LCFI46-LCFI44
	.long L$set$1756
	.byte	0x83
	.byte	0x3
	.align 3
LEFDE39:
.globl __ZNSt15binary_functionI6EValueS0_bEC2Ev.eh
	.weak_definition __ZNSt15binary_functionI6EValueS0_bEC2Ev.eh
__ZNSt15binary_functionI6EValueS0_bEC2Ev.eh:
LSFDE41:
	.set L$set$1757,LEFDE41-LASFDE41
	.long L$set$1757
LASFDE41:
	.long	LASFDE41-EH_frame1
	.quad	LFB2095-.
	.set L$set$1758,LFE2095-LFB2095
	.quad L$set$1758
	.byte	0x8
	.quad	0x0
	.byte	0x4
	.set L$set$1759,LCFI47-LFB2095
	.long L$set$1759
	.byte	0xe
	.byte	0x10
	.byte	0x86
	.byte	0x2
	.byte	0x4
	.set L$set$1760,LCFI48-LCFI47
	.long L$set$1760
	.byte	0xd
	.byte	0x6
	.align 3
LEFDE41:
.globl __ZNSt4lessI6EValueEC1Ev.eh
	.weak_definition __ZNSt4lessI6EValueEC1Ev.eh
__ZNSt4lessI6EValueEC1Ev.eh:
LSFDE43:
	.set L$set$1761,LEFDE43-LASFDE43
	.long L$set$1761
LASFDE43:
	.long	LASFDE43-EH_frame1
	.quad	LFB2098-.
	.set L$set$1762,LFE2098-LFB2098
	.quad L$set$1762
	.byte	0x8
	.quad	0x0
	.byte	0x4
	.set L$set$1763,LCFI49-LFB2098
	.long L$set$1763
	.byte	0xe
	.byte	0x10
	.byte	0x86
	.byte	0x2
	.byte	0x4
	.set L$set$1764,LCFI50-LCFI49
	.long L$set$1764
	.byte	0xd
	.byte	0x6
	.align 3
LEFDE43:
.globl __ZNSt4pairI6EValuePK4CityEC1ERKS0_RKS3_.eh
	.weak_definition __ZNSt4pairI6EValuePK4CityEC1ERKS0_RKS3_.eh
__ZNSt4pairI6EValuePK4CityEC1ERKS0_RKS3_.eh:
LSFDE45:
	.set L$set$1765,LEFDE45-LASFDE45
	.long L$set$1765
LASFDE45:
	.long	LASFDE45-EH_frame1
	.quad	LFB2109-.
	.set L$set$1766,LFE2109-LFB2109
	.quad L$set$1766
	.byte	0x8
	.quad	0x0
	.byte	0x4
	.set L$set$1767,LCFI52-LFB2109
	.long L$set$1767
	.byte	0xe
	.byte	0x10
	.byte	0x86
	.byte	0x2
	.byte	0x4
	.set L$set$1768,LCFI53-LCFI52
	.long L$set$1768
	.byte	0xd
	.byte	0x6
	.align 3
LEFDE45:
.globl __ZNSt4pairIK6EValuePK4CityEC1IS0_S4_EERKS_IT_T0_E.eh
	.weak_definition __ZNSt4pairIK6EValuePK4CityEC1IS0_S4_EERKS_IT_T0_E.eh
__ZNSt4pairIK6EValuePK4CityEC1IS0_S4_EERKS_IT_T0_E.eh:
LSFDE47:
	.set L$set$1769,LEFDE47-LASFDE47
	.long L$set$1769
LASFDE47:
	.long	LASFDE47-EH_frame1
	.quad	LFB2112-.
	.set L$set$1770,LFE2112-LFB2112
	.quad L$set$1770
	.byte	0x8
	.quad	0x0
	.byte	0x4
	.set L$set$1771,LCFI54-LFB2112
	.long L$set$1771
	.byte	0xe
	.byte	0x10
	.byte	0x86
	.byte	0x2
	.byte	0x4
	.set L$set$1772,LCFI55-LCFI54
	.long L$set$1772
	.byte	0xd
	.byte	0x6
	.align 3
LEFDE47:
.globl __ZNKSt17_Rb_tree_iteratorISt4pairIK6EValuePK4CityEEptEv.eh
	.weak_definition __ZNKSt17_Rb_tree_iteratorISt4pairIK6EValuePK4CityEEptEv.eh
__ZNKSt17_Rb_tree_iteratorISt4pairIK6EValuePK4CityEEptEv.eh:
LSFDE49:
	.set L$set$1773,LEFDE49-LASFDE49
	.long L$set$1773
LASFDE49:
	.long	LASFDE49-EH_frame1
	.quad	LFB2116-.
	.set L$set$1774,LFE2116-LFB2116
	.quad L$set$1774
	.byte	0x8
	.quad	0x0
	.byte	0x4
	.set L$set$1775,LCFI56-LFB2116
	.long L$set$1775
	.byte	0xe
	.byte	0x10
	.byte	0x86
	.byte	0x2
	.byte	0x4
	.set L$set$1776,LCFI57-LCFI56
	.long L$set$1776
	.byte	0xd
	.byte	0x6
	.align 3
LEFDE49:
.globl __ZNKSt6vectorIPK10ConnectionSaIS2_EE4sizeEv.eh
	.weak_definition __ZNKSt6vectorIPK10ConnectionSaIS2_EE4sizeEv.eh
__ZNKSt6vectorIPK10ConnectionSaIS2_EE4sizeEv.eh:
LSFDE51:
	.set L$set$1777,LEFDE51-LASFDE51
	.long L$set$1777
LASFDE51:
	.long	LASFDE51-EH_frame1
	.quad	LFB2124-.
	.set L$set$1778,LFE2124-LFB2124
	.quad L$set$1778
	.byte	0x8
	.quad	0x0
	.byte	0x4
	.set L$set$1779,LCFI58-LFB2124
	.long L$set$1779
	.byte	0xe
	.byte	0x10
	.byte	0x86
	.byte	0x2
	.byte	0x4
	.set L$set$1780,LCFI59-LCFI58
	.long L$set$1780
	.byte	0xd
	.byte	0x6
	.align 3
LEFDE51:
.globl __ZNSt6vectorIPK10ConnectionSaIS2_EEixEm.eh
	.weak_definition __ZNSt6vectorIPK10ConnectionSaIS2_EEixEm.eh
__ZNSt6vectorIPK10ConnectionSaIS2_EEixEm.eh:
LSFDE53:
	.set L$set$1781,LEFDE53-LASFDE53
	.long L$set$1781
LASFDE53:
	.long	LASFDE53-EH_frame1
	.quad	LFB2125-.
	.set L$set$1782,LFE2125-LFB2125
	.quad L$set$1782
	.byte	0x8
	.quad	0x0
	.byte	0x4
	.set L$set$1783,LCFI60-LFB2125
	.long L$set$1783
	.byte	0xe
	.byte	0x10
	.byte	0x86
	.byte	0x2
	.byte	0x4
	.set L$set$1784,LCFI61-LCFI60
	.long L$set$1784
	.byte	0xd
	.byte	0x6
	.align 3
LEFDE53:
.globl __ZN9__gnu_cxx17__normal_iteratorIPPK10CoordinateSt6vectorIS3_SaIS3_EEEC1Ev.eh
	.weak_definition __ZN9__gnu_cxx17__normal_iteratorIPPK10CoordinateSt6vectorIS3_SaIS3_EEEC1Ev.eh
__ZN9__gnu_cxx17__normal_iteratorIPPK10CoordinateSt6vectorIS3_SaIS3_EEEC1Ev.eh:
LSFDE55:
	.set L$set$1785,LEFDE55-LASFDE55
	.long L$set$1785
LASFDE55:
	.long	LASFDE55-EH_frame1
	.quad	LFB2146-.
	.set L$set$1786,LFE2146-LFB2146
	.quad L$set$1786
	.byte	0x8
	.quad	0x0
	.byte	0x4
	.set L$set$1787,LCFI62-LFB2146
	.long L$set$1787
	.byte	0xe
	.byte	0x10
	.byte	0x86
	.byte	0x2
	.byte	0x4
	.set L$set$1788,LCFI63-LCFI62
	.long L$set$1788
	.byte	0xd
	.byte	0x6
	.align 3
LEFDE55:
.globl __ZNKSt6vectorIPK10CoordinateSaIS2_EE4sizeEv.eh
	.weak_definition __ZNKSt6vectorIPK10CoordinateSaIS2_EE4sizeEv.eh
__ZNKSt6vectorIPK10CoordinateSaIS2_EE4sizeEv.eh:
LSFDE57:
	.set L$set$1789,LEFDE57-LASFDE57
	.long L$set$1789
LASFDE57:
	.long	LASFDE57-EH_frame1
	.quad	LFB2147-.
	.set L$set$1790,LFE2147-LFB2147
	.quad L$set$1790
	.byte	0x8
	.quad	0x0
	.byte	0x4
	.set L$set$1791,LCFI64-LFB2147
	.long L$set$1791
	.byte	0xe
	.byte	0x10
	.byte	0x86
	.byte	0x2
	.byte	0x4
	.set L$set$1792,LCFI65-LCFI64
	.long L$set$1792
	.byte	0xd
	.byte	0x6
	.align 3
LEFDE57:
.globl __ZNK9__gnu_cxx17__normal_iteratorIPPK10CoordinateSt6vectorIS3_SaIS3_EEEdeEv.eh
	.weak_definition __ZNK9__gnu_cxx17__normal_iteratorIPPK10CoordinateSt6vectorIS3_SaIS3_EEEdeEv.eh
__ZNK9__gnu_cxx17__normal_iteratorIPPK10CoordinateSt6vectorIS3_SaIS3_EEEdeEv.eh:
LSFDE59:
	.set L$set$1793,LEFDE59-LASFDE59
	.long L$set$1793
LASFDE59:
	.long	LASFDE59-EH_frame1
	.quad	LFB2152-.
	.set L$set$1794,LFE2152-LFB2152
	.quad L$set$1794
	.byte	0x8
	.quad	0x0
	.byte	0x4
	.set L$set$1795,LCFI66-LFB2152
	.long L$set$1795
	.byte	0xe
	.byte	0x10
	.byte	0x86
	.byte	0x2
	.byte	0x4
	.set L$set$1796,LCFI67-LCFI66
	.long L$set$1796
	.byte	0xd
	.byte	0x6
	.align 3
LEFDE59:
.globl __ZNSt8_Rb_treeI6EValueSt4pairIKS0_PK4CityESt10_Select1stIS6_ESt4lessIS0_ESaIS6_EE8_M_beginEv.eh
	.weak_definition __ZNSt8_Rb_treeI6EValueSt4pairIKS0_PK4CityESt10_Select1stIS6_ESt4lessIS0_ESaIS6_EE8_M_beginEv.eh
__ZNSt8_Rb_treeI6EValueSt4pairIKS0_PK4CityESt10_Select1stIS6_ESt4lessIS0_ESaIS6_EE8_M_beginEv.eh:
LSFDE61:
	.set L$set$1797,LEFDE61-LASFDE61
	.long L$set$1797
LASFDE61:
	.long	LASFDE61-EH_frame1
	.quad	LFB2203-.
	.set L$set$1798,LFE2203-LFB2203
	.quad L$set$1798
	.byte	0x8
	.quad	0x0
	.byte	0x4
	.set L$set$1799,LCFI68-LFB2203
	.long L$set$1799
	.byte	0xe
	.byte	0x10
	.byte	0x86
	.byte	0x2
	.byte	0x4
	.set L$set$1800,LCFI69-LCFI68
	.long L$set$1800
	.byte	0xd
	.byte	0x6
	.align 3
LEFDE61:
.globl __ZNSt14unary_functionISt4pairIK6EValuePK4CityES2_EC2Ev.eh
	.weak_definition __ZNSt14unary_functionISt4pairIK6EValuePK4CityES2_EC2Ev.eh
__ZNSt14unary_functionISt4pairIK6EValuePK4CityES2_EC2Ev.eh:
LSFDE63:
	.set L$set$1801,LEFDE63-LASFDE63
	.long L$set$1801
LASFDE63:
	.long	LASFDE63-EH_frame1
	.quad	LFB2207-.
	.set L$set$1802,LFE2207-LFB2207
	.quad L$set$1802
	.byte	0x8
	.quad	0x0
	.byte	0x4
	.set L$set$1803,LCFI70-LFB2207
	.long L$set$1803
	.byte	0xe
	.byte	0x10
	.byte	0x86
	.byte	0x2
	.byte	0x4
	.set L$set$1804,LCFI71-LCFI70
	.long L$set$1804
	.byte	0xd
	.byte	0x6
	.align 3
LEFDE63:
.globl __ZNSt10_Select1stISt4pairIK6EValuePK4CityEEC1Ev.eh
	.weak_definition __ZNSt10_Select1stISt4pairIK6EValuePK4CityEEC1Ev.eh
__ZNSt10_Select1stISt4pairIK6EValuePK4CityEEC1Ev.eh:
LSFDE65:
	.set L$set$1805,LEFDE65-LASFDE65
	.long L$set$1805
LASFDE65:
	.long	LASFDE65-EH_frame1
	.quad	LFB2210-.
	.set L$set$1806,LFE2210-LFB2210
	.quad L$set$1806
	.byte	0x8
	.quad	0x0
	.byte	0x4
	.set L$set$1807,LCFI72-LFB2210
	.long L$set$1807
	.byte	0xe
	.byte	0x10
	.byte	0x86
	.byte	0x2
	.byte	0x4
	.set L$set$1808,LCFI73-LCFI72
	.long L$set$1808
	.byte	0xd
	.byte	0x6
	.align 3
LEFDE65:
.globl __ZNKSt8_Rb_treeI6EValueSt4pairIKS0_PK4CityESt10_Select1stIS6_ESt4lessIS0_ESaIS6_EE4sizeEv.eh
	.weak_definition __ZNKSt8_Rb_treeI6EValueSt4pairIKS0_PK4CityESt10_Select1stIS6_ESt4lessIS0_ESaIS6_EE4sizeEv.eh
__ZNKSt8_Rb_treeI6EValueSt4pairIKS0_PK4CityESt10_Select1stIS6_ESt4lessIS0_ESaIS6_EE4sizeEv.eh:
LSFDE67:
	.set L$set$1809,LEFDE67-LASFDE67
	.long L$set$1809
LASFDE67:
	.long	LASFDE67-EH_frame1
	.quad	LFB2211-.
	.set L$set$1810,LFE2211-LFB2211
	.quad L$set$1810
	.byte	0x8
	.quad	0x0
	.byte	0x4
	.set L$set$1811,LCFI75-LFB2211
	.long L$set$1811
	.byte	0xe
	.byte	0x10
	.byte	0x86
	.byte	0x2
	.byte	0x4
	.set L$set$1812,LCFI76-LCFI75
	.long L$set$1812
	.byte	0xd
	.byte	0x6
	.align 3
LEFDE67:
.globl __ZNKSt8multimapI6EValuePK4CitySt4lessIS0_ESaISt4pairIKS0_S3_EEE4sizeEv.eh
	.weak_definition __ZNKSt8multimapI6EValuePK4CitySt4lessIS0_ESaISt4pairIKS0_S3_EEE4sizeEv.eh
__ZNKSt8multimapI6EValuePK4CitySt4lessIS0_ESaISt4pairIKS0_S3_EEE4sizeEv.eh:
LSFDE69:
	.set L$set$1813,LEFDE69-LASFDE69
	.long L$set$1813
LASFDE69:
	.long	LASFDE69-EH_frame1
	.quad	LFB2114-.
	.set L$set$1814,LFE2114-LFB2114
	.quad L$set$1814
	.byte	0x8
	.quad	0x0
	.byte	0x4
	.set L$set$1815,LCFI77-LFB2114
	.long L$set$1815
	.byte	0xe
	.byte	0x10
	.byte	0x86
	.byte	0x2
	.byte	0x4
	.set L$set$1816,LCFI78-LCFI77
	.long L$set$1816
	.byte	0xd
	.byte	0x6
	.align 3
LEFDE69:
.globl __ZNSt12_Vector_baseIPK10ConnectionSaIS2_EE19_M_get_Tp_allocatorEv.eh
	.weak_definition __ZNSt12_Vector_baseIPK10ConnectionSaIS2_EE19_M_get_Tp_allocatorEv.eh
__ZNSt12_Vector_baseIPK10ConnectionSaIS2_EE19_M_get_Tp_allocatorEv.eh:
LSFDE71:
	.set L$set$1817,LEFDE71-LASFDE71
	.long L$set$1817
LASFDE71:
	.long	LASFDE71-EH_frame1
	.quad	LFB2219-.
	.set L$set$1818,LFE2219-LFB2219
	.quad L$set$1818
	.byte	0x8
	.quad	0x0
	.byte	0x4
	.set L$set$1819,LCFI80-LFB2219
	.long L$set$1819
	.byte	0xe
	.byte	0x10
	.byte	0x86
	.byte	0x2
	.byte	0x4
	.set L$set$1820,LCFI81-LCFI80
	.long L$set$1820
	.byte	0xd
	.byte	0x6
	.align 3
LEFDE71:
.globl __ZNKSt12_Vector_baseIPK10ConnectionSaIS2_EE19_M_get_Tp_allocatorEv.eh
	.weak_definition __ZNKSt12_Vector_baseIPK10ConnectionSaIS2_EE19_M_get_Tp_allocatorEv.eh
__ZNKSt12_Vector_baseIPK10ConnectionSaIS2_EE19_M_get_Tp_allocatorEv.eh:
LSFDE73:
	.set L$set$1821,LEFDE73-LASFDE73
	.long L$set$1821
LASFDE73:
	.long	LASFDE73-EH_frame1
	.quad	LFB2221-.
	.set L$set$1822,LFE2221-LFB2221
	.quad L$set$1822
	.byte	0x8
	.quad	0x0
	.byte	0x4
	.set L$set$1823,LCFI82-LFB2221
	.long L$set$1823
	.byte	0xe
	.byte	0x10
	.byte	0x86
	.byte	0x2
	.byte	0x4
	.set L$set$1824,LCFI83-LCFI82
	.long L$set$1824
	.byte	0xd
	.byte	0x6
	.align 3
LEFDE73:
.globl __ZNKSt6vectorIPK10ConnectionSaIS2_EE8capacityEv.eh
	.weak_definition __ZNKSt6vectorIPK10ConnectionSaIS2_EE8capacityEv.eh
__ZNKSt6vectorIPK10ConnectionSaIS2_EE8capacityEv.eh:
LSFDE75:
	.set L$set$1825,LEFDE75-LASFDE75
	.long L$set$1825
LASFDE75:
	.long	LASFDE75-EH_frame1
	.quad	LFB2229-.
	.set L$set$1826,LFE2229-LFB2229
	.quad L$set$1826
	.byte	0x8
	.quad	0x0
	.byte	0x4
	.set L$set$1827,LCFI84-LFB2229
	.long L$set$1827
	.byte	0xe
	.byte	0x10
	.byte	0x86
	.byte	0x2
	.byte	0x4
	.set L$set$1828,LCFI85-LCFI84
	.long L$set$1828
	.byte	0xd
	.byte	0x6
	.align 3
LEFDE75:
.globl __ZN9__gnu_cxx13new_allocatorIPK10CoordinateEC2Ev.eh
	.weak_definition __ZN9__gnu_cxx13new_allocatorIPK10CoordinateEC2Ev.eh
__ZN9__gnu_cxx13new_allocatorIPK10CoordinateEC2Ev.eh:
LSFDE77:
	.set L$set$1829,LEFDE77-LASFDE77
	.long L$set$1829
LASFDE77:
	.long	LASFDE77-EH_frame1
	.quad	LFB2237-.
	.set L$set$1830,LFE2237-LFB2237
	.quad L$set$1830
	.byte	0x8
	.quad	0x0
	.byte	0x4
	.set L$set$1831,LCFI86-LFB2237
	.long L$set$1831
	.byte	0xe
	.byte	0x10
	.byte	0x86
	.byte	0x2
	.byte	0x4
	.set L$set$1832,LCFI87-LCFI86
	.long L$set$1832
	.byte	0xd
	.byte	0x6
	.align 3
LEFDE77:
.globl __ZNSaIPK10CoordinateEC1Ev.eh
	.weak_definition __ZNSaIPK10CoordinateEC1Ev.eh
__ZNSaIPK10CoordinateEC1Ev.eh:
LSFDE79:
	.set L$set$1833,LEFDE79-LASFDE79
	.long L$set$1833
LASFDE79:
	.long	LASFDE79-EH_frame1
	.quad	LFB2130-.
	.set L$set$1834,LFE2130-LFB2130
	.quad L$set$1834
	.byte	0x8
	.quad	0x0
	.byte	0x4
	.set L$set$1835,LCFI88-LFB2130
	.long L$set$1835
	.byte	0xe
	.byte	0x10
	.byte	0x86
	.byte	0x2
	.byte	0x4
	.set L$set$1836,LCFI89-LCFI88
	.long L$set$1836
	.byte	0xd
	.byte	0x6
	.align 3
LEFDE79:
.globl __ZN9__gnu_cxx13new_allocatorIPK10CoordinateED2Ev.eh
	.weak_definition __ZN9__gnu_cxx13new_allocatorIPK10CoordinateED2Ev.eh
__ZN9__gnu_cxx13new_allocatorIPK10CoordinateED2Ev.eh:
LSFDE81:
	.set L$set$1837,LEFDE81-LASFDE81
	.long L$set$1837
LASFDE81:
	.long	LASFDE81-EH_frame1
	.quad	LFB2240-.
	.set L$set$1838,LFE2240-LFB2240
	.quad L$set$1838
	.byte	0x8
	.quad	0x0
	.byte	0x4
	.set L$set$1839,LCFI91-LFB2240
	.long L$set$1839
	.byte	0xe
	.byte	0x10
	.byte	0x86
	.byte	0x2
	.byte	0x4
	.set L$set$1840,LCFI92-LCFI91
	.long L$set$1840
	.byte	0xd
	.byte	0x6
	.align 3
LEFDE81:
.globl __ZNSaIPK10CoordinateED1Ev.eh
	.weak_definition __ZNSaIPK10CoordinateED1Ev.eh
__ZNSaIPK10CoordinateED1Ev.eh:
LSFDE83:
	.set L$set$1841,LEFDE83-LASFDE83
	.long L$set$1841
LASFDE83:
	.long	LASFDE83-EH_frame1
	.quad	LFB2133-.
	.set L$set$1842,LFE2133-LFB2133
	.quad L$set$1842
	.byte	0x8
	.quad	0x0
	.byte	0x4
	.set L$set$1843,LCFI93-LFB2133
	.long L$set$1843
	.byte	0xe
	.byte	0x10
	.byte	0x86
	.byte	0x2
	.byte	0x4
	.set L$set$1844,LCFI94-LCFI93
	.long L$set$1844
	.byte	0xd
	.byte	0x6
	.align 3
LEFDE83:
.globl __ZNSaIPK10CoordinateED2Ev.eh
	.weak_definition __ZNSaIPK10CoordinateED2Ev.eh
__ZNSaIPK10CoordinateED2Ev.eh:
LSFDE85:
	.set L$set$1845,LEFDE85-LASFDE85
	.long L$set$1845
LASFDE85:
	.long	LASFDE85-EH_frame1
	.quad	LFB2132-.
	.set L$set$1846,LFE2132-LFB2132
	.quad L$set$1846
	.byte	0x8
	.quad	0x0
	.byte	0x4
	.set L$set$1847,LCFI96-LFB2132
	.long L$set$1847
	.byte	0xe
	.byte	0x10
	.byte	0x86
	.byte	0x2
	.byte	0x4
	.set L$set$1848,LCFI97-LCFI96
	.long L$set$1848
	.byte	0xd
	.byte	0x6
	.align 3
LEFDE85:
.globl __ZN9__gnu_cxx13new_allocatorIPK10CoordinateEC2ERKS4_.eh
	.weak_definition __ZN9__gnu_cxx13new_allocatorIPK10CoordinateEC2ERKS4_.eh
__ZN9__gnu_cxx13new_allocatorIPK10CoordinateEC2ERKS4_.eh:
LSFDE87:
	.set L$set$1849,LEFDE87-LASFDE87
	.long L$set$1849
LASFDE87:
	.long	LASFDE87-EH_frame1
	.quad	LFB2243-.
	.set L$set$1850,LFE2243-LFB2243
	.quad L$set$1850
	.byte	0x8
	.quad	0x0
	.byte	0x4
	.set L$set$1851,LCFI99-LFB2243
	.long L$set$1851
	.byte	0xe
	.byte	0x10
	.byte	0x86
	.byte	0x2
	.byte	0x4
	.set L$set$1852,LCFI100-LCFI99
	.long L$set$1852
	.byte	0xd
	.byte	0x6
	.align 3
LEFDE87:
.globl __ZNSaIPK10CoordinateEC1ERKS2_.eh
	.weak_definition __ZNSaIPK10CoordinateEC1ERKS2_.eh
__ZNSaIPK10CoordinateEC1ERKS2_.eh:
LSFDE89:
	.set L$set$1853,LEFDE89-LASFDE89
	.long L$set$1853
LASFDE89:
	.long	LASFDE89-EH_frame1
	.quad	LFB2136-.
	.set L$set$1854,LFE2136-LFB2136
	.quad L$set$1854
	.byte	0x8
	.quad	0x0
	.byte	0x4
	.set L$set$1855,LCFI101-LFB2136
	.long L$set$1855
	.byte	0xe
	.byte	0x10
	.byte	0x86
	.byte	0x2
	.byte	0x4
	.set L$set$1856,LCFI102-LCFI101
	.long L$set$1856
	.byte	0xd
	.byte	0x6
	.align 3
LEFDE89:
.globl __ZNSaIPK10CoordinateEC2ERKS2_.eh
	.weak_definition __ZNSaIPK10CoordinateEC2ERKS2_.eh
__ZNSaIPK10CoordinateEC2ERKS2_.eh:
LSFDE91:
	.set L$set$1857,LEFDE91-LASFDE91
	.long L$set$1857
LASFDE91:
	.long	LASFDE91-EH_frame1
	.quad	LFB2135-.
	.set L$set$1858,LFE2135-LFB2135
	.quad L$set$1858
	.byte	0x8
	.quad	0x0
	.byte	0x4
	.set L$set$1859,LCFI104-LFB2135
	.long L$set$1859
	.byte	0xe
	.byte	0x10
	.byte	0x86
	.byte	0x2
	.byte	0x4
	.set L$set$1860,LCFI105-LCFI104
	.long L$set$1860
	.byte	0xd
	.byte	0x6
	.align 3
LEFDE91:
.globl __ZNSt12_Vector_baseIPK10CoordinateSaIS2_EE12_Vector_implD1Ev.eh
	.weak_definition __ZNSt12_Vector_baseIPK10CoordinateSaIS2_EE12_Vector_implD1Ev.eh
__ZNSt12_Vector_baseIPK10CoordinateSaIS2_EE12_Vector_implD1Ev.eh:
LSFDE93:
	.set L$set$1861,LEFDE93-LASFDE93
	.long L$set$1861
LASFDE93:
	.long	LASFDE93-EH_frame1
	.quad	LFB2248-.
	.set L$set$1862,LFE2248-LFB2248
	.quad L$set$1862
	.byte	0x8
	.quad	0x0
	.byte	0x4
	.set L$set$1863,LCFI107-LFB2248
	.long L$set$1863
	.byte	0xe
	.byte	0x10
	.byte	0x86
	.byte	0x2
	.byte	0x4
	.set L$set$1864,LCFI108-LCFI107
	.long L$set$1864
	.byte	0xd
	.byte	0x6
	.align 3
LEFDE93:
.globl __ZNSt12_Vector_baseIPK10CoordinateSaIS2_EE19_M_get_Tp_allocatorEv.eh
	.weak_definition __ZNSt12_Vector_baseIPK10CoordinateSaIS2_EE19_M_get_Tp_allocatorEv.eh
__ZNSt12_Vector_baseIPK10CoordinateSaIS2_EE19_M_get_Tp_allocatorEv.eh:
LSFDE95:
	.set L$set$1865,LEFDE95-LASFDE95
	.long L$set$1865
LASFDE95:
	.long	LASFDE95-EH_frame1
	.quad	LFB2254-.
	.set L$set$1866,LFE2254-LFB2254
	.quad L$set$1866
	.byte	0x8
	.quad	0x0
	.byte	0x4
	.set L$set$1867,LCFI110-LFB2254
	.long L$set$1867
	.byte	0xe
	.byte	0x10
	.byte	0x86
	.byte	0x2
	.byte	0x4
	.set L$set$1868,LCFI111-LCFI110
	.long L$set$1868
	.byte	0xd
	.byte	0x6
	.align 3
LEFDE95:
.globl __ZN9__gnu_cxx13new_allocatorIPK10CoordinateE9constructEPS3_RKS3_.eh
	.weak_definition __ZN9__gnu_cxx13new_allocatorIPK10CoordinateE9constructEPS3_RKS3_.eh
__ZN9__gnu_cxx13new_allocatorIPK10CoordinateE9constructEPS3_RKS3_.eh:
LSFDE97:
	.set L$set$1869,LEFDE97-LASFDE97
	.long L$set$1869
LASFDE97:
	.long	LASFDE97-EH_frame1
	.quad	LFB2256-.
	.set L$set$1870,LFE2256-LFB2256
	.quad L$set$1870
	.byte	0x8
	.quad	0x0
	.byte	0x4
	.set L$set$1871,LCFI112-LFB2256
	.long L$set$1871
	.byte	0xe
	.byte	0x10
	.byte	0x86
	.byte	0x2
	.byte	0x4
	.set L$set$1872,LCFI113-LCFI112
	.long L$set$1872
	.byte	0xd
	.byte	0x6
	.align 3
LEFDE97:
.globl __ZN9__gnu_cxx17__normal_iteratorIPPK10CoordinateSt6vectorIS3_SaIS3_EEEC1ERKS4_.eh
	.weak_definition __ZN9__gnu_cxx17__normal_iteratorIPPK10CoordinateSt6vectorIS3_SaIS3_EEEC1ERKS4_.eh
__ZN9__gnu_cxx17__normal_iteratorIPPK10CoordinateSt6vectorIS3_SaIS3_EEEC1ERKS4_.eh:
LSFDE99:
	.set L$set$1873,LEFDE99-LASFDE99
	.long L$set$1873
LASFDE99:
	.long	LASFDE99-EH_frame1
	.quad	LFB2260-.
	.set L$set$1874,LFE2260-LFB2260
	.quad L$set$1874
	.byte	0x8
	.quad	0x0
	.byte	0x4
	.set L$set$1875,LCFI115-LFB2260
	.long L$set$1875
	.byte	0xe
	.byte	0x10
	.byte	0x86
	.byte	0x2
	.byte	0x4
	.set L$set$1876,LCFI116-LCFI115
	.long L$set$1876
	.byte	0xd
	.byte	0x6
	.align 3
LEFDE99:
.globl __ZNSt6vectorIPK10CoordinateSaIS2_EE3endEv.eh
	.weak_definition __ZNSt6vectorIPK10CoordinateSaIS2_EE3endEv.eh
__ZNSt6vectorIPK10CoordinateSaIS2_EE3endEv.eh:
LSFDE101:
	.set L$set$1877,LEFDE101-LASFDE101
	.long L$set$1877
LASFDE101:
	.long	LASFDE101-EH_frame1
	.quad	LFB2149-.
	.set L$set$1878,LFE2149-LFB2149
	.quad L$set$1878
	.byte	0x8
	.quad	0x0
	.byte	0x4
	.set L$set$1879,LCFI117-LFB2149
	.long L$set$1879
	.byte	0xe
	.byte	0x10
	.byte	0x86
	.byte	0x2
	.byte	0x4
	.set L$set$1880,LCFI118-LCFI117
	.long L$set$1880
	.byte	0xd
	.byte	0x6
	.align 3
LEFDE101:
.globl __ZNSt6vectorIPK10CoordinateSaIS2_EE5beginEv.eh
	.weak_definition __ZNSt6vectorIPK10CoordinateSaIS2_EE5beginEv.eh
__ZNSt6vectorIPK10CoordinateSaIS2_EE5beginEv.eh:
LSFDE103:
	.set L$set$1881,LEFDE103-LASFDE103
	.long L$set$1881
LASFDE103:
	.long	LASFDE103-EH_frame1
	.quad	LFB2148-.
	.set L$set$1882,LFE2148-LFB2148
	.quad L$set$1882
	.byte	0x8
	.quad	0x0
	.byte	0x4
	.set L$set$1883,LCFI120-LFB2148
	.long L$set$1883
	.byte	0xe
	.byte	0x10
	.byte	0x86
	.byte	0x2
	.byte	0x4
	.set L$set$1884,LCFI121-LCFI120
	.long L$set$1884
	.byte	0xd
	.byte	0x6
	.align 3
LEFDE103:
.globl __ZN9__gnu_cxx17__normal_iteratorIPPK10CoordinateSt6vectorIS3_SaIS3_EEEppEi.eh
	.weak_definition __ZN9__gnu_cxx17__normal_iteratorIPPK10CoordinateSt6vectorIS3_SaIS3_EEEppEi.eh
__ZN9__gnu_cxx17__normal_iteratorIPPK10CoordinateSt6vectorIS3_SaIS3_EEEppEi.eh:
LSFDE105:
	.set L$set$1885,LEFDE105-LASFDE105
	.long L$set$1885
LASFDE105:
	.long	LASFDE105-EH_frame1
	.quad	LFB2151-.
	.set L$set$1886,LFE2151-LFB2151
	.quad L$set$1886
	.byte	0x8
	.quad	0x0
	.byte	0x4
	.set L$set$1887,LCFI123-LFB2151
	.long L$set$1887
	.byte	0xe
	.byte	0x10
	.byte	0x86
	.byte	0x2
	.byte	0x4
	.set L$set$1888,LCFI124-LCFI123
	.long L$set$1888
	.byte	0xd
	.byte	0x6
	.align 3
LEFDE105:
.globl __ZNK9__gnu_cxx17__normal_iteratorIPPK10CoordinateSt6vectorIS3_SaIS3_EEE4baseEv.eh
	.weak_definition __ZNK9__gnu_cxx17__normal_iteratorIPPK10CoordinateSt6vectorIS3_SaIS3_EEE4baseEv.eh
__ZNK9__gnu_cxx17__normal_iteratorIPPK10CoordinateSt6vectorIS3_SaIS3_EEE4baseEv.eh:
LSFDE107:
	.set L$set$1889,LEFDE107-LASFDE107
	.long L$set$1889
LASFDE107:
	.long	LASFDE107-EH_frame1
	.quad	LFB2261-.
	.set L$set$1890,LFE2261-LFB2261
	.quad L$set$1890
	.byte	0x8
	.quad	0x0
	.byte	0x4
	.set L$set$1891,LCFI126-LFB2261
	.long L$set$1891
	.byte	0xe
	.byte	0x10
	.byte	0x86
	.byte	0x2
	.byte	0x4
	.set L$set$1892,LCFI127-LCFI126
	.long L$set$1892
	.byte	0xd
	.byte	0x6
	.align 3
LEFDE107:
.globl __ZN9__gnu_cxxneIPPK10CoordinateSt6vectorIS3_SaIS3_EEEEbRKNS_17__normal_iteratorIT_T0_EESD_.eh
	.weak_definition __ZN9__gnu_cxxneIPPK10CoordinateSt6vectorIS3_SaIS3_EEEEbRKNS_17__normal_iteratorIT_T0_EESD_.eh
__ZN9__gnu_cxxneIPPK10CoordinateSt6vectorIS3_SaIS3_EEEEbRKNS_17__normal_iteratorIT_T0_EESD_.eh:
LSFDE109:
	.set L$set$1893,LEFDE109-LASFDE109
	.long L$set$1893
LASFDE109:
	.long	LASFDE109-EH_frame1
	.quad	LFB2150-.
	.set L$set$1894,LFE2150-LFB2150
	.quad L$set$1894
	.byte	0x8
	.quad	0x0
	.byte	0x4
	.set L$set$1895,LCFI128-LFB2150
	.long L$set$1895
	.byte	0xe
	.byte	0x10
	.byte	0x86
	.byte	0x2
	.byte	0x4
	.set L$set$1896,LCFI129-LCFI128
	.long L$set$1896
	.byte	0xd
	.byte	0x6
	.byte	0x4
	.set L$set$1897,LCFI131-LCFI129
	.long L$set$1897
	.byte	0x83
	.byte	0x3
	.align 3
LEFDE109:
.globl __ZNKSt6vectorIPK10CoordinateSaIS2_EE8capacityEv.eh
	.weak_definition __ZNKSt6vectorIPK10CoordinateSaIS2_EE8capacityEv.eh
__ZNKSt6vectorIPK10CoordinateSaIS2_EE8capacityEv.eh:
LSFDE111:
	.set L$set$1898,LEFDE111-LASFDE111
	.long L$set$1898
LASFDE111:
	.long	LASFDE111-EH_frame1
	.quad	LFB2262-.
	.set L$set$1899,LFE2262-LFB2262
	.quad L$set$1899
	.byte	0x8
	.quad	0x0
	.byte	0x4
	.set L$set$1900,LCFI132-LFB2262
	.long L$set$1900
	.byte	0xe
	.byte	0x10
	.byte	0x86
	.byte	0x2
	.byte	0x4
	.set L$set$1901,LCFI133-LCFI132
	.long L$set$1901
	.byte	0xd
	.byte	0x6
	.align 3
LEFDE111:
.globl __ZN9__gnu_cxx13new_allocatorIPK10ConnectionEC2Ev.eh
	.weak_definition __ZN9__gnu_cxx13new_allocatorIPK10ConnectionEC2Ev.eh
__ZN9__gnu_cxx13new_allocatorIPK10ConnectionEC2Ev.eh:
LSFDE113:
	.set L$set$1902,LEFDE113-LASFDE113
	.long L$set$1902
LASFDE113:
	.long	LASFDE113-EH_frame1
	.quad	LFB2273-.
	.set L$set$1903,LFE2273-LFB2273
	.quad L$set$1903
	.byte	0x8
	.quad	0x0
	.byte	0x4
	.set L$set$1904,LCFI134-LFB2273
	.long L$set$1904
	.byte	0xe
	.byte	0x10
	.byte	0x86
	.byte	0x2
	.byte	0x4
	.set L$set$1905,LCFI135-LCFI134
	.long L$set$1905
	.byte	0xd
	.byte	0x6
	.align 3
LEFDE113:
.globl __ZNSaIPK10ConnectionEC1Ev.eh
	.weak_definition __ZNSaIPK10ConnectionEC1Ev.eh
__ZNSaIPK10ConnectionEC1Ev.eh:
LSFDE115:
	.set L$set$1906,LEFDE115-LASFDE115
	.long L$set$1906
LASFDE115:
	.long	LASFDE115-EH_frame1
	.quad	LFB2157-.
	.set L$set$1907,LFE2157-LFB2157
	.quad L$set$1907
	.byte	0x8
	.quad	0x0
	.byte	0x4
	.set L$set$1908,LCFI136-LFB2157
	.long L$set$1908
	.byte	0xe
	.byte	0x10
	.byte	0x86
	.byte	0x2
	.byte	0x4
	.set L$set$1909,LCFI137-LCFI136
	.long L$set$1909
	.byte	0xd
	.byte	0x6
	.align 3
LEFDE115:
.globl __ZN9__gnu_cxx13new_allocatorIPK10ConnectionED2Ev.eh
	.weak_definition __ZN9__gnu_cxx13new_allocatorIPK10ConnectionED2Ev.eh
__ZN9__gnu_cxx13new_allocatorIPK10ConnectionED2Ev.eh:
LSFDE117:
	.set L$set$1910,LEFDE117-LASFDE117
	.long L$set$1910
LASFDE117:
	.long	LASFDE117-EH_frame1
	.quad	LFB2276-.
	.set L$set$1911,LFE2276-LFB2276
	.quad L$set$1911
	.byte	0x8
	.quad	0x0
	.byte	0x4
	.set L$set$1912,LCFI139-LFB2276
	.long L$set$1912
	.byte	0xe
	.byte	0x10
	.byte	0x86
	.byte	0x2
	.byte	0x4
	.set L$set$1913,LCFI140-LCFI139
	.long L$set$1913
	.byte	0xd
	.byte	0x6
	.align 3
LEFDE117:
.globl __ZNSaIPK10ConnectionED1Ev.eh
	.weak_definition __ZNSaIPK10ConnectionED1Ev.eh
__ZNSaIPK10ConnectionED1Ev.eh:
LSFDE119:
	.set L$set$1914,LEFDE119-LASFDE119
	.long L$set$1914
LASFDE119:
	.long	LASFDE119-EH_frame1
	.quad	LFB2160-.
	.set L$set$1915,LFE2160-LFB2160
	.quad L$set$1915
	.byte	0x8
	.quad	0x0
	.byte	0x4
	.set L$set$1916,LCFI141-LFB2160
	.long L$set$1916
	.byte	0xe
	.byte	0x10
	.byte	0x86
	.byte	0x2
	.byte	0x4
	.set L$set$1917,LCFI142-LCFI141
	.long L$set$1917
	.byte	0xd
	.byte	0x6
	.align 3
LEFDE119:
.globl __ZNSaIPK10ConnectionED2Ev.eh
	.weak_definition __ZNSaIPK10ConnectionED2Ev.eh
__ZNSaIPK10ConnectionED2Ev.eh:
LSFDE121:
	.set L$set$1918,LEFDE121-LASFDE121
	.long L$set$1918
LASFDE121:
	.long	LASFDE121-EH_frame1
	.quad	LFB2159-.
	.set L$set$1919,LFE2159-LFB2159
	.quad L$set$1919
	.byte	0x8
	.quad	0x0
	.byte	0x4
	.set L$set$1920,LCFI144-LFB2159
	.long L$set$1920
	.byte	0xe
	.byte	0x10
	.byte	0x86
	.byte	0x2
	.byte	0x4
	.set L$set$1921,LCFI145-LCFI144
	.long L$set$1921
	.byte	0xd
	.byte	0x6
	.align 3
LEFDE121:
.globl __ZNSt12_Vector_baseIPK10ConnectionSaIS2_EE12_Vector_implD1Ev.eh
	.weak_definition __ZNSt12_Vector_baseIPK10ConnectionSaIS2_EE12_Vector_implD1Ev.eh
__ZNSt12_Vector_baseIPK10ConnectionSaIS2_EE12_Vector_implD1Ev.eh:
LSFDE123:
	.set L$set$1922,LEFDE123-LASFDE123
	.long L$set$1922
LASFDE123:
	.long	LASFDE123-EH_frame1
	.quad	LFB2216-.
	.set L$set$1923,LFE2216-LFB2216
	.quad L$set$1923
	.byte	0x8
	.quad	0x0
	.byte	0x4
	.set L$set$1924,LCFI147-LFB2216
	.long L$set$1924
	.byte	0xe
	.byte	0x10
	.byte	0x86
	.byte	0x2
	.byte	0x4
	.set L$set$1925,LCFI148-LCFI147
	.long L$set$1925
	.byte	0xd
	.byte	0x6
	.align 3
LEFDE123:
.globl __ZN9__gnu_cxx13new_allocatorIPK10ConnectionEC2ERKS4_.eh
	.weak_definition __ZN9__gnu_cxx13new_allocatorIPK10ConnectionEC2ERKS4_.eh
__ZN9__gnu_cxx13new_allocatorIPK10ConnectionEC2ERKS4_.eh:
LSFDE125:
	.set L$set$1926,LEFDE125-LASFDE125
	.long L$set$1926
LASFDE125:
	.long	LASFDE125-EH_frame1
	.quad	LFB2279-.
	.set L$set$1927,LFE2279-LFB2279
	.quad L$set$1927
	.byte	0x8
	.quad	0x0
	.byte	0x4
	.set L$set$1928,LCFI150-LFB2279
	.long L$set$1928
	.byte	0xe
	.byte	0x10
	.byte	0x86
	.byte	0x2
	.byte	0x4
	.set L$set$1929,LCFI151-LCFI150
	.long L$set$1929
	.byte	0xd
	.byte	0x6
	.align 3
LEFDE125:
.globl __ZNSaIPK10ConnectionEC2ERKS2_.eh
	.weak_definition __ZNSaIPK10ConnectionEC2ERKS2_.eh
__ZNSaIPK10ConnectionEC2ERKS2_.eh:
LSFDE127:
	.set L$set$1930,LEFDE127-LASFDE127
	.long L$set$1930
LASFDE127:
	.long	LASFDE127-EH_frame1
	.quad	LFB2162-.
	.set L$set$1931,LFE2162-LFB2162
	.quad L$set$1931
	.byte	0x8
	.quad	0x0
	.byte	0x4
	.set L$set$1932,LCFI152-LFB2162
	.long L$set$1932
	.byte	0xe
	.byte	0x10
	.byte	0x86
	.byte	0x2
	.byte	0x4
	.set L$set$1933,LCFI153-LCFI152
	.long L$set$1933
	.byte	0xd
	.byte	0x6
	.align 3
LEFDE127:
.globl __ZNSaIPK10ConnectionEC1ERKS2_.eh
	.weak_definition __ZNSaIPK10ConnectionEC1ERKS2_.eh
__ZNSaIPK10ConnectionEC1ERKS2_.eh:
LSFDE129:
	.set L$set$1934,LEFDE129-LASFDE129
	.long L$set$1934
LASFDE129:
	.long	LASFDE129-EH_frame1
	.quad	LFB2163-.
	.set L$set$1935,LFE2163-LFB2163
	.quad L$set$1935
	.byte	0x8
	.quad	0x0
	.byte	0x4
	.set L$set$1936,LCFI155-LFB2163
	.long L$set$1936
	.byte	0xe
	.byte	0x10
	.byte	0x86
	.byte	0x2
	.byte	0x4
	.set L$set$1937,LCFI156-LCFI155
	.long L$set$1937
	.byte	0xd
	.byte	0x6
	.align 3
LEFDE129:
.globl __ZN9__gnu_cxx13new_allocatorIPK10ConnectionE9constructEPS3_RKS3_.eh
	.weak_definition __ZN9__gnu_cxx13new_allocatorIPK10ConnectionE9constructEPS3_RKS3_.eh
__ZN9__gnu_cxx13new_allocatorIPK10ConnectionE9constructEPS3_RKS3_.eh:
LSFDE131:
	.set L$set$1938,LEFDE131-LASFDE131
	.long L$set$1938
LASFDE131:
	.long	LASFDE131-EH_frame1
	.quad	LFB2284-.
	.set L$set$1939,LFE2284-LFB2284
	.quad L$set$1939
	.byte	0x8
	.quad	0x0
	.byte	0x4
	.set L$set$1940,LCFI158-LFB2284
	.long L$set$1940
	.byte	0xe
	.byte	0x10
	.byte	0x86
	.byte	0x2
	.byte	0x4
	.set L$set$1941,LCFI159-LCFI158
	.long L$set$1941
	.byte	0xd
	.byte	0x6
	.align 3
LEFDE131:
.globl __ZN9__gnu_cxx17__normal_iteratorIPPK10ConnectionSt6vectorIS3_SaIS3_EEEC1ERKS4_.eh
	.weak_definition __ZN9__gnu_cxx17__normal_iteratorIPPK10ConnectionSt6vectorIS3_SaIS3_EEEC1ERKS4_.eh
__ZN9__gnu_cxx17__normal_iteratorIPPK10ConnectionSt6vectorIS3_SaIS3_EEEC1ERKS4_.eh:
LSFDE133:
	.set L$set$1942,LEFDE133-LASFDE133
	.long L$set$1942
LASFDE133:
	.long	LASFDE133-EH_frame1
	.quad	LFB2289-.
	.set L$set$1943,LFE2289-LFB2289
	.quad L$set$1943
	.byte	0x8
	.quad	0x0
	.byte	0x4
	.set L$set$1944,LCFI161-LFB2289
	.long L$set$1944
	.byte	0xe
	.byte	0x10
	.byte	0x86
	.byte	0x2
	.byte	0x4
	.set L$set$1945,LCFI162-LCFI161
	.long L$set$1945
	.byte	0xd
	.byte	0x6
	.align 3
LEFDE133:
.globl __ZNSt6vectorIPK10ConnectionSaIS2_EE5beginEv.eh
	.weak_definition __ZNSt6vectorIPK10ConnectionSaIS2_EE5beginEv.eh
__ZNSt6vectorIPK10ConnectionSaIS2_EE5beginEv.eh:
LSFDE135:
	.set L$set$1946,LEFDE135-LASFDE135
	.long L$set$1946
LASFDE135:
	.long	LASFDE135-EH_frame1
	.quad	LFB2170-.
	.set L$set$1947,LFE2170-LFB2170
	.quad L$set$1947
	.byte	0x8
	.quad	0x0
	.byte	0x4
	.set L$set$1948,LCFI163-LFB2170
	.long L$set$1948
	.byte	0xe
	.byte	0x10
	.byte	0x86
	.byte	0x2
	.byte	0x4
	.set L$set$1949,LCFI164-LCFI163
	.long L$set$1949
	.byte	0xd
	.byte	0x6
	.align 3
LEFDE135:
.globl __ZNSt6vectorIPK10ConnectionSaIS2_EE3endEv.eh
	.weak_definition __ZNSt6vectorIPK10ConnectionSaIS2_EE3endEv.eh
__ZNSt6vectorIPK10ConnectionSaIS2_EE3endEv.eh:
LSFDE137:
	.set L$set$1950,LEFDE137-LASFDE137
	.long L$set$1950
LASFDE137:
	.long	LASFDE137-EH_frame1
	.quad	LFB2169-.
	.set L$set$1951,LFE2169-LFB2169
	.quad L$set$1951
	.byte	0x8
	.quad	0x0
	.byte	0x4
	.set L$set$1952,LCFI166-LFB2169
	.long L$set$1952
	.byte	0xe
	.byte	0x10
	.byte	0x86
	.byte	0x2
	.byte	0x4
	.set L$set$1953,LCFI167-LCFI166
	.long L$set$1953
	.byte	0xd
	.byte	0x6
	.align 3
LEFDE137:
.globl __ZNSt18input_iterator_tagC2Ev.eh
	.weak_definition __ZNSt18input_iterator_tagC2Ev.eh
__ZNSt18input_iterator_tagC2Ev.eh:
LSFDE139:
	.set L$set$1954,LEFDE139-LASFDE139
	.long L$set$1954
LASFDE139:
	.long	LASFDE139-EH_frame1
	.quad	LFB2295-.
	.set L$set$1955,LFE2295-LFB2295
	.quad L$set$1955
	.byte	0x8
	.quad	0x0
	.byte	0x4
	.set L$set$1956,LCFI169-LFB2295
	.long L$set$1956
	.byte	0xe
	.byte	0x10
	.byte	0x86
	.byte	0x2
	.byte	0x4
	.set L$set$1957,LCFI170-LCFI169
	.long L$set$1957
	.byte	0xd
	.byte	0x6
	.align 3
LEFDE139:
.globl __ZNSt20forward_iterator_tagC2Ev.eh
	.weak_definition __ZNSt20forward_iterator_tagC2Ev.eh
__ZNSt20forward_iterator_tagC2Ev.eh:
LSFDE141:
	.set L$set$1958,LEFDE141-LASFDE141
	.long L$set$1958
LASFDE141:
	.long	LASFDE141-EH_frame1
	.quad	LFB2297-.
	.set L$set$1959,LFE2297-LFB2297
	.quad L$set$1959
	.byte	0x8
	.quad	0x0
	.byte	0x4
	.set L$set$1960,LCFI171-LFB2297
	.long L$set$1960
	.byte	0xe
	.byte	0x10
	.byte	0x86
	.byte	0x2
	.byte	0x4
	.set L$set$1961,LCFI172-LCFI171
	.long L$set$1961
	.byte	0xd
	.byte	0x6
	.align 3
LEFDE141:
.globl __ZNSt26bidirectional_iterator_tagC2Ev.eh
	.weak_definition __ZNSt26bidirectional_iterator_tagC2Ev.eh
__ZNSt26bidirectional_iterator_tagC2Ev.eh:
LSFDE143:
	.set L$set$1962,LEFDE143-LASFDE143
	.long L$set$1962
LASFDE143:
	.long	LASFDE143-EH_frame1
	.quad	LFB2299-.
	.set L$set$1963,LFE2299-LFB2299
	.quad L$set$1963
	.byte	0x8
	.quad	0x0
	.byte	0x4
	.set L$set$1964,LCFI174-LFB2299
	.long L$set$1964
	.byte	0xe
	.byte	0x10
	.byte	0x86
	.byte	0x2
	.byte	0x4
	.set L$set$1965,LCFI175-LCFI174
	.long L$set$1965
	.byte	0xd
	.byte	0x6
	.align 3
LEFDE143:
.globl __ZNSt26random_access_iterator_tagC1Ev.eh
	.weak_definition __ZNSt26random_access_iterator_tagC1Ev.eh
__ZNSt26random_access_iterator_tagC1Ev.eh:
LSFDE145:
	.set L$set$1966,LEFDE145-LASFDE145
	.long L$set$1966
LASFDE145:
	.long	LASFDE145-EH_frame1
	.quad	LFB2302-.
	.set L$set$1967,LFE2302-LFB2302
	.quad L$set$1967
	.byte	0x8
	.quad	0x0
	.byte	0x4
	.set L$set$1968,LCFI177-LFB2302
	.long L$set$1968
	.byte	0xe
	.byte	0x10
	.byte	0x86
	.byte	0x2
	.byte	0x4
	.set L$set$1969,LCFI178-LCFI177
	.long L$set$1969
	.byte	0xd
	.byte	0x6
	.align 3
LEFDE145:
.globl __ZN9__gnu_cxx13new_allocatorISt4pairIK6EValuePK4CityEEC2Ev.eh
	.weak_definition __ZN9__gnu_cxx13new_allocatorISt4pairIK6EValuePK4CityEEC2Ev.eh
__ZN9__gnu_cxx13new_allocatorISt4pairIK6EValuePK4CityEEC2Ev.eh:
LSFDE147:
	.set L$set$1970,LEFDE147-LASFDE147
	.long L$set$1970
LASFDE147:
	.long	LASFDE147-EH_frame1
	.quad	LFB2305-.
	.set L$set$1971,LFE2305-LFB2305
	.quad L$set$1971
	.byte	0x8
	.quad	0x0
	.byte	0x4
	.set L$set$1972,LCFI180-LFB2305
	.long L$set$1972
	.byte	0xe
	.byte	0x10
	.byte	0x86
	.byte	0x2
	.byte	0x4
	.set L$set$1973,LCFI181-LCFI180
	.long L$set$1973
	.byte	0xd
	.byte	0x6
	.align 3
LEFDE147:
.globl __ZNSaISt4pairIK6EValuePK4CityEEC1Ev.eh
	.weak_definition __ZNSaISt4pairIK6EValuePK4CityEEC1Ev.eh
__ZNSaISt4pairIK6EValuePK4CityEEC1Ev.eh:
LSFDE149:
	.set L$set$1974,LEFDE149-LASFDE149
	.long L$set$1974
LASFDE149:
	.long	LASFDE149-EH_frame1
	.quad	LFB2189-.
	.set L$set$1975,LFE2189-LFB2189
	.quad L$set$1975
	.byte	0x8
	.quad	0x0
	.byte	0x4
	.set L$set$1976,LCFI182-LFB2189
	.long L$set$1976
	.byte	0xe
	.byte	0x10
	.byte	0x86
	.byte	0x2
	.byte	0x4
	.set L$set$1977,LCFI183-LCFI182
	.long L$set$1977
	.byte	0xd
	.byte	0x6
	.align 3
LEFDE149:
.globl __ZN9__gnu_cxx13new_allocatorISt4pairIK6EValuePK4CityEED2Ev.eh
	.weak_definition __ZN9__gnu_cxx13new_allocatorISt4pairIK6EValuePK4CityEED2Ev.eh
__ZN9__gnu_cxx13new_allocatorISt4pairIK6EValuePK4CityEED2Ev.eh:
LSFDE151:
	.set L$set$1978,LEFDE151-LASFDE151
	.long L$set$1978
LASFDE151:
	.long	LASFDE151-EH_frame1
	.quad	LFB2308-.
	.set L$set$1979,LFE2308-LFB2308
	.quad L$set$1979
	.byte	0x8
	.quad	0x0
	.byte	0x4
	.set L$set$1980,LCFI185-LFB2308
	.long L$set$1980
	.byte	0xe
	.byte	0x10
	.byte	0x86
	.byte	0x2
	.byte	0x4
	.set L$set$1981,LCFI186-LCFI185
	.long L$set$1981
	.byte	0xd
	.byte	0x6
	.align 3
LEFDE151:
.globl __ZNSaISt4pairIK6EValuePK4CityEED1Ev.eh
	.weak_definition __ZNSaISt4pairIK6EValuePK4CityEED1Ev.eh
__ZNSaISt4pairIK6EValuePK4CityEED1Ev.eh:
LSFDE153:
	.set L$set$1982,LEFDE153-LASFDE153
	.long L$set$1982
LASFDE153:
	.long	LASFDE153-EH_frame1
	.quad	LFB2192-.
	.set L$set$1983,LFE2192-LFB2192
	.quad L$set$1983
	.byte	0x8
	.quad	0x0
	.byte	0x4
	.set L$set$1984,LCFI187-LFB2192
	.long L$set$1984
	.byte	0xe
	.byte	0x10
	.byte	0x86
	.byte	0x2
	.byte	0x4
	.set L$set$1985,LCFI188-LCFI187
	.long L$set$1985
	.byte	0xd
	.byte	0x6
	.align 3
LEFDE153:
.globl __ZN9__gnu_cxx13new_allocatorISt13_Rb_tree_nodeISt4pairIK6EValuePK4CityEEED2Ev.eh
	.weak_definition __ZN9__gnu_cxx13new_allocatorISt13_Rb_tree_nodeISt4pairIK6EValuePK4CityEEED2Ev.eh
__ZN9__gnu_cxx13new_allocatorISt13_Rb_tree_nodeISt4pairIK6EValuePK4CityEEED2Ev.eh:
LSFDE155:
	.set L$set$1986,LEFDE155-LASFDE155
	.long L$set$1986
LASFDE155:
	.long	LASFDE155-EH_frame1
	.quad	LFB2320-.
	.set L$set$1987,LFE2320-LFB2320
	.quad L$set$1987
	.byte	0x8
	.quad	0x0
	.byte	0x4
	.set L$set$1988,LCFI190-LFB2320
	.long L$set$1988
	.byte	0xe
	.byte	0x10
	.byte	0x86
	.byte	0x2
	.byte	0x4
	.set L$set$1989,LCFI191-LCFI190
	.long L$set$1989
	.byte	0xd
	.byte	0x6
	.align 3
LEFDE155:
.globl __ZNSaISt13_Rb_tree_nodeISt4pairIK6EValuePK4CityEEED1Ev.eh
	.weak_definition __ZNSaISt13_Rb_tree_nodeISt4pairIK6EValuePK4CityEEED1Ev.eh
__ZNSaISt13_Rb_tree_nodeISt4pairIK6EValuePK4CityEEED1Ev.eh:
LSFDE157:
	.set L$set$1990,LEFDE157-LASFDE157
	.long L$set$1990
LASFDE157:
	.long	LASFDE157-EH_frame1
	.quad	LFB2201-.
	.set L$set$1991,LFE2201-LFB2201
	.quad L$set$1991
	.byte	0x8
	.quad	0x0
	.byte	0x4
	.set L$set$1992,LCFI192-LFB2201
	.long L$set$1992
	.byte	0xe
	.byte	0x10
	.byte	0x86
	.byte	0x2
	.byte	0x4
	.set L$set$1993,LCFI193-LCFI192
	.long L$set$1993
	.byte	0xd
	.byte	0x6
	.align 3
LEFDE157:
.globl __ZNSaISt13_Rb_tree_nodeISt4pairIK6EValuePK4CityEEED2Ev.eh
	.weak_definition __ZNSaISt13_Rb_tree_nodeISt4pairIK6EValuePK4CityEEED2Ev.eh
__ZNSaISt13_Rb_tree_nodeISt4pairIK6EValuePK4CityEEED2Ev.eh:
LSFDE159:
	.set L$set$1994,LEFDE159-LASFDE159
	.long L$set$1994
LASFDE159:
	.long	LASFDE159-EH_frame1
	.quad	LFB2200-.
	.set L$set$1995,LFE2200-LFB2200
	.quad L$set$1995
	.byte	0x8
	.quad	0x0
	.byte	0x4
	.set L$set$1996,LCFI195-LFB2200
	.long L$set$1996
	.byte	0xe
	.byte	0x10
	.byte	0x86
	.byte	0x2
	.byte	0x4
	.set L$set$1997,LCFI196-LCFI195
	.long L$set$1997
	.byte	0xd
	.byte	0x6
	.align 3
LEFDE159:
.globl __ZNSt8_Rb_treeI6EValueSt4pairIKS0_PK4CityESt10_Select1stIS6_ESt4lessIS0_ESaIS6_EE13_Rb_tree_implISA_Lb0EED1Ev.eh
	.weak_definition __ZNSt8_Rb_treeI6EValueSt4pairIKS0_PK4CityESt10_Select1stIS6_ESt4lessIS0_ESaIS6_EE13_Rb_tree_implISA_Lb0EED1Ev.eh
__ZNSt8_Rb_treeI6EValueSt4pairIKS0_PK4CityESt10_Select1stIS6_ESt4lessIS0_ESaIS6_EE13_Rb_tree_implISA_Lb0EED1Ev.eh:
LSFDE161:
	.set L$set$1998,LEFDE161-LASFDE161
	.long L$set$1998
LASFDE161:
	.long	LASFDE161-EH_frame1
	.quad	LFB2104-.
	.set L$set$1999,LFE2104-LFB2104
	.quad L$set$1999
	.byte	0x8
	.quad	0x0
	.byte	0x4
	.set L$set$2000,LCFI198-LFB2104
	.long L$set$2000
	.byte	0xe
	.byte	0x10
	.byte	0x86
	.byte	0x2
	.byte	0x4
	.set L$set$2001,LCFI199-LCFI198
	.long L$set$2001
	.byte	0xd
	.byte	0x6
	.align 3
LEFDE161:
.globl __ZNSt8_Rb_treeI6EValueSt4pairIKS0_PK4CityESt10_Select1stIS6_ESt4lessIS0_ESaIS6_EE8_S_rightEPSt18_Rb_tree_node_base.eh
	.weak_definition __ZNSt8_Rb_treeI6EValueSt4pairIKS0_PK4CityESt10_Select1stIS6_ESt4lessIS0_ESaIS6_EE8_S_rightEPSt18_Rb_tree_node_base.eh
__ZNSt8_Rb_treeI6EValueSt4pairIKS0_PK4CityESt10_Select1stIS6_ESt4lessIS0_ESaIS6_EE8_S_rightEPSt18_Rb_tree_node_base.eh:
LSFDE163:
	.set L$set$2002,LEFDE163-LASFDE163
	.long L$set$2002
LASFDE163:
	.long	LASFDE163-EH_frame1
	.quad	LFB2322-.
	.set L$set$2003,LFE2322-LFB2322
	.quad L$set$2003
	.byte	0x8
	.quad	0x0
	.byte	0x4
	.set L$set$2004,LCFI201-LFB2322
	.long L$set$2004
	.byte	0xe
	.byte	0x10
	.byte	0x86
	.byte	0x2
	.byte	0x4
	.set L$set$2005,LCFI202-LCFI201
	.long L$set$2005
	.byte	0xd
	.byte	0x6
	.align 3
LEFDE163:
.globl __ZNSt8_Rb_treeI6EValueSt4pairIKS0_PK4CityESt10_Select1stIS6_ESt4lessIS0_ESaIS6_EE7_S_leftEPSt18_Rb_tree_node_base.eh
	.weak_definition __ZNSt8_Rb_treeI6EValueSt4pairIKS0_PK4CityESt10_Select1stIS6_ESt4lessIS0_ESaIS6_EE7_S_leftEPSt18_Rb_tree_node_base.eh
__ZNSt8_Rb_treeI6EValueSt4pairIKS0_PK4CityESt10_Select1stIS6_ESt4lessIS0_ESaIS6_EE7_S_leftEPSt18_Rb_tree_node_base.eh:
LSFDE165:
	.set L$set$2006,LEFDE165-LASFDE165
	.long L$set$2006
LASFDE165:
	.long	LASFDE165-EH_frame1
	.quad	LFB2323-.
	.set L$set$2007,LFE2323-LFB2323
	.quad L$set$2007
	.byte	0x8
	.quad	0x0
	.byte	0x4
	.set L$set$2008,LCFI203-LFB2323
	.long L$set$2008
	.byte	0xe
	.byte	0x10
	.byte	0x86
	.byte	0x2
	.byte	0x4
	.set L$set$2009,LCFI204-LCFI203
	.long L$set$2009
	.byte	0xd
	.byte	0x6
	.align 3
LEFDE165:
.globl __ZNSt8_Rb_treeI6EValueSt4pairIKS0_PK4CityESt10_Select1stIS6_ESt4lessIS0_ESaIS6_EE6_M_endEv.eh
	.weak_definition __ZNSt8_Rb_treeI6EValueSt4pairIKS0_PK4CityESt10_Select1stIS6_ESt4lessIS0_ESaIS6_EE6_M_endEv.eh
__ZNSt8_Rb_treeI6EValueSt4pairIKS0_PK4CityESt10_Select1stIS6_ESt4lessIS0_ESaIS6_EE6_M_endEv.eh:
LSFDE167:
	.set L$set$2010,LEFDE167-LASFDE167
	.long L$set$2010
LASFDE167:
	.long	LASFDE167-EH_frame1
	.quad	LFB2325-.
	.set L$set$2011,LFE2325-LFB2325
	.quad L$set$2011
	.byte	0x8
	.quad	0x0
	.byte	0x4
	.set L$set$2012,LCFI205-LFB2325
	.long L$set$2012
	.byte	0xe
	.byte	0x10
	.byte	0x86
	.byte	0x2
	.byte	0x4
	.set L$set$2013,LCFI206-LCFI205
	.long L$set$2013
	.byte	0xd
	.byte	0x6
	.align 3
LEFDE167:
.globl __ZNKSt10_Select1stISt4pairIK6EValuePK4CityEEclERKS6_.eh
	.weak_definition __ZNKSt10_Select1stISt4pairIK6EValuePK4CityEEclERKS6_.eh
__ZNKSt10_Select1stISt4pairIK6EValuePK4CityEEclERKS6_.eh:
LSFDE169:
	.set L$set$2014,LEFDE169-LASFDE169
	.long L$set$2014
LASFDE169:
	.long	LASFDE169-EH_frame1
	.quad	LFB2326-.
	.set L$set$2015,LFE2326-LFB2326
	.quad L$set$2015
	.byte	0x8
	.quad	0x0
	.byte	0x4
	.set L$set$2016,LCFI207-LFB2326
	.long L$set$2016
	.byte	0xe
	.byte	0x10
	.byte	0x86
	.byte	0x2
	.byte	0x4
	.set L$set$2017,LCFI208-LCFI207
	.long L$set$2017
	.byte	0xd
	.byte	0x6
	.align 3
LEFDE169:
.globl __ZNKSt4lessI6EValueEclERKS0_S3_.eh
	.weak_definition __ZNKSt4lessI6EValueEclERKS0_S3_.eh
__ZNKSt4lessI6EValueEclERKS0_S3_.eh:
LSFDE171:
	.set L$set$2018,LEFDE171-LASFDE171
	.long L$set$2018
LASFDE171:
	.long	LASFDE171-EH_frame1
	.quad	LFB2328-.
	.set L$set$2019,LFE2328-LFB2328
	.quad L$set$2019
	.byte	0x8
	.quad	0x0
	.byte	0x4
	.set L$set$2020,LCFI209-LFB2328
	.long L$set$2020
	.byte	0xe
	.byte	0x10
	.byte	0x86
	.byte	0x2
	.byte	0x4
	.set L$set$2021,LCFI210-LCFI209
	.long L$set$2021
	.byte	0xd
	.byte	0x6
	.align 3
LEFDE171:
.globl __ZNSt17_Rb_tree_iteratorISt4pairIK6EValuePK4CityEEC1EPSt13_Rb_tree_nodeIS6_E.eh
	.weak_definition __ZNSt17_Rb_tree_iteratorISt4pairIK6EValuePK4CityEEC1EPSt13_Rb_tree_nodeIS6_E.eh
__ZNSt17_Rb_tree_iteratorISt4pairIK6EValuePK4CityEEC1EPSt13_Rb_tree_nodeIS6_E.eh:
LSFDE173:
	.set L$set$2022,LEFDE173-LASFDE173
	.long L$set$2022
LASFDE173:
	.long	LASFDE173-EH_frame1
	.quad	LFB2332-.
	.set L$set$2023,LFE2332-LFB2332
	.quad L$set$2023
	.byte	0x8
	.quad	0x0
	.byte	0x4
	.set L$set$2024,LCFI212-LFB2332
	.long L$set$2024
	.byte	0xe
	.byte	0x10
	.byte	0x86
	.byte	0x2
	.byte	0x4
	.set L$set$2025,LCFI213-LCFI212
	.long L$set$2025
	.byte	0xd
	.byte	0x6
	.align 3
LEFDE173:
.globl __ZNSt8_Rb_treeI6EValueSt4pairIKS0_PK4CityESt10_Select1stIS6_ESt4lessIS0_ESaIS6_EE5beginEv.eh
	.weak_definition __ZNSt8_Rb_treeI6EValueSt4pairIKS0_PK4CityESt10_Select1stIS6_ESt4lessIS0_ESaIS6_EE5beginEv.eh
__ZNSt8_Rb_treeI6EValueSt4pairIKS0_PK4CityESt10_Select1stIS6_ESt4lessIS0_ESaIS6_EE5beginEv.eh:
LSFDE175:
	.set L$set$2026,LEFDE175-LASFDE175
	.long L$set$2026
LASFDE175:
	.long	LASFDE175-EH_frame1
	.quad	LFB2212-.
	.set L$set$2027,LFE2212-LFB2212
	.quad L$set$2027
	.byte	0x8
	.quad	0x0
	.byte	0x4
	.set L$set$2028,LCFI214-LFB2212
	.long L$set$2028
	.byte	0xe
	.byte	0x10
	.byte	0x86
	.byte	0x2
	.byte	0x4
	.set L$set$2029,LCFI215-LCFI214
	.long L$set$2029
	.byte	0xd
	.byte	0x6
	.align 3
LEFDE175:
.globl __ZNSt8multimapI6EValuePK4CitySt4lessIS0_ESaISt4pairIKS0_S3_EEE5beginEv.eh
	.weak_definition __ZNSt8multimapI6EValuePK4CitySt4lessIS0_ESaISt4pairIKS0_S3_EEE5beginEv.eh
__ZNSt8multimapI6EValuePK4CitySt4lessIS0_ESaISt4pairIKS0_S3_EEE5beginEv.eh:
LSFDE177:
	.set L$set$2030,LEFDE177-LASFDE177
	.long L$set$2030
LASFDE177:
	.long	LASFDE177-EH_frame1
	.quad	LFB2115-.
	.set L$set$2031,LFE2115-LFB2115
	.quad L$set$2031
	.byte	0x8
	.quad	0x0
	.byte	0x4
	.set L$set$2032,LCFI217-LFB2115
	.long L$set$2032
	.byte	0xe
	.byte	0x10
	.byte	0x86
	.byte	0x2
	.byte	0x4
	.set L$set$2033,LCFI218-LCFI217
	.long L$set$2033
	.byte	0xd
	.byte	0x6
	.align 3
LEFDE177:
.globl __ZNSt12_Vector_baseIPK10ConnectionSaIS2_EE12_Vector_implC1ERKS3_.eh
	.weak_definition __ZNSt12_Vector_baseIPK10ConnectionSaIS2_EE12_Vector_implC1ERKS3_.eh
__ZNSt12_Vector_baseIPK10ConnectionSaIS2_EE12_Vector_implC1ERKS3_.eh:
LSFDE179:
	.set L$set$2034,LEFDE179-LASFDE179
	.long L$set$2034
LASFDE179:
	.long	LASFDE179-EH_frame1
	.quad	LFB2336-.
	.set L$set$2035,LFE2336-LFB2336
	.quad L$set$2035
	.byte	0x8
	.quad	0x0
	.byte	0x4
	.set L$set$2036,LCFI220-LFB2336
	.long L$set$2036
	.byte	0xe
	.byte	0x10
	.byte	0x86
	.byte	0x2
	.byte	0x4
	.set L$set$2037,LCFI221-LCFI220
	.long L$set$2037
	.byte	0xd
	.byte	0x6
	.align 3
LEFDE179:
.globl __ZNSt12_Vector_baseIPK10ConnectionSaIS2_EEC2ERKS3_.eh
	.weak_definition __ZNSt12_Vector_baseIPK10ConnectionSaIS2_EEC2ERKS3_.eh
__ZNSt12_Vector_baseIPK10ConnectionSaIS2_EEC2ERKS3_.eh:
LSFDE181:
	.set L$set$2038,LEFDE181-LASFDE181
	.long L$set$2038
LASFDE181:
	.long	LASFDE181-EH_frame1
	.quad	LFB2282-.
	.set L$set$2039,LFE2282-LFB2282
	.quad L$set$2039
	.byte	0x8
	.quad	0x0
	.byte	0x4
	.set L$set$2040,LCFI223-LFB2282
	.long L$set$2040
	.byte	0xe
	.byte	0x10
	.byte	0x86
	.byte	0x2
	.byte	0x4
	.set L$set$2041,LCFI224-LCFI223
	.long L$set$2041
	.byte	0xd
	.byte	0x6
	.align 3
LEFDE181:
.globl __ZNSt6vectorIPK10ConnectionSaIS2_EEC1ERKS3_.eh
	.weak_definition __ZNSt6vectorIPK10ConnectionSaIS2_EEC1ERKS3_.eh
__ZNSt6vectorIPK10ConnectionSaIS2_EEC1ERKS3_.eh:
LSFDE183:
	.set L$set$2042,LEFDE183-LASFDE183
	.long L$set$2042
LASFDE183:
	.long	LASFDE183-EH_frame1
	.quad	LFB2166-.
	.set L$set$2043,LFE2166-LFB2166
	.quad L$set$2043
	.byte	0x8
	.quad	0x0
	.byte	0x4
	.set L$set$2044,LCFI226-LFB2166
	.long L$set$2044
	.byte	0xe
	.byte	0x10
	.byte	0x86
	.byte	0x2
	.byte	0x4
	.set L$set$2045,LCFI227-LCFI226
	.long L$set$2045
	.byte	0xd
	.byte	0x6
	.align 3
LEFDE183:
.globl __ZN9__gnu_cxx17__normal_iteratorIPKPK10ConnectionSt6vectorIS3_SaIS3_EEEC1ERKS5_.eh
	.weak_definition __ZN9__gnu_cxx17__normal_iteratorIPKPK10ConnectionSt6vectorIS3_SaIS3_EEEC1ERKS5_.eh
__ZN9__gnu_cxx17__normal_iteratorIPKPK10ConnectionSt6vectorIS3_SaIS3_EEEC1ERKS5_.eh:
LSFDE185:
	.set L$set$2046,LEFDE185-LASFDE185
	.long L$set$2046
LASFDE185:
	.long	LASFDE185-EH_frame1
	.quad	LFB2340-.
	.set L$set$2047,LFE2340-LFB2340
	.quad L$set$2047
	.byte	0x8
	.quad	0x0
	.byte	0x4
	.set L$set$2048,LCFI229-LFB2340
	.long L$set$2048
	.byte	0xe
	.byte	0x10
	.byte	0x86
	.byte	0x2
	.byte	0x4
	.set L$set$2049,LCFI230-LCFI229
	.long L$set$2049
	.byte	0xd
	.byte	0x6
	.align 3
LEFDE185:
.globl __ZNKSt6vectorIPK10ConnectionSaIS2_EE3endEv.eh
	.weak_definition __ZNKSt6vectorIPK10ConnectionSaIS2_EE3endEv.eh
__ZNKSt6vectorIPK10ConnectionSaIS2_EE3endEv.eh:
LSFDE187:
	.set L$set$2050,LEFDE187-LASFDE187
	.long L$set$2050
LASFDE187:
	.long	LASFDE187-EH_frame1
	.quad	LFB2226-.
	.set L$set$2051,LFE2226-LFB2226
	.quad L$set$2051
	.byte	0x8
	.quad	0x0
	.byte	0x4
	.set L$set$2052,LCFI231-LFB2226
	.long L$set$2052
	.byte	0xe
	.byte	0x10
	.byte	0x86
	.byte	0x2
	.byte	0x4
	.set L$set$2053,LCFI232-LCFI231
	.long L$set$2053
	.byte	0xd
	.byte	0x6
	.align 3
LEFDE187:
.globl __ZNKSt6vectorIPK10ConnectionSaIS2_EE5beginEv.eh
	.weak_definition __ZNKSt6vectorIPK10ConnectionSaIS2_EE5beginEv.eh
__ZNKSt6vectorIPK10ConnectionSaIS2_EE5beginEv.eh:
LSFDE189:
	.set L$set$2054,LEFDE189-LASFDE189
	.long L$set$2054
LASFDE189:
	.long	LASFDE189-EH_frame1
	.quad	LFB2225-.
	.set L$set$2055,LFE2225-LFB2225
	.quad L$set$2055
	.byte	0x8
	.quad	0x0
	.byte	0x4
	.set L$set$2056,LCFI234-LFB2225
	.long L$set$2056
	.byte	0xe
	.byte	0x10
	.byte	0x86
	.byte	0x2
	.byte	0x4
	.set L$set$2057,LCFI235-LCFI234
	.long L$set$2057
	.byte	0xd
	.byte	0x6
	.align 3
LEFDE189:
.globl __ZNSt12_Vector_baseIPK10CoordinateSaIS2_EE12_Vector_implC1ERKS3_.eh
	.weak_definition __ZNSt12_Vector_baseIPK10CoordinateSaIS2_EE12_Vector_implC1ERKS3_.eh
__ZNSt12_Vector_baseIPK10CoordinateSaIS2_EE12_Vector_implC1ERKS3_.eh:
LSFDE191:
	.set L$set$2058,LEFDE191-LASFDE191
	.long L$set$2058
LASFDE191:
	.long	LASFDE191-EH_frame1
	.quad	LFB2349-.
	.set L$set$2059,LFE2349-LFB2349
	.quad L$set$2059
	.byte	0x8
	.quad	0x0
	.byte	0x4
	.set L$set$2060,LCFI237-LFB2349
	.long L$set$2060
	.byte	0xe
	.byte	0x10
	.byte	0x86
	.byte	0x2
	.byte	0x4
	.set L$set$2061,LCFI238-LCFI237
	.long L$set$2061
	.byte	0xd
	.byte	0x6
	.align 3
LEFDE191:
.globl __ZNSt12_Vector_baseIPK10CoordinateSaIS2_EEC2ERKS3_.eh
	.weak_definition __ZNSt12_Vector_baseIPK10CoordinateSaIS2_EEC2ERKS3_.eh
__ZNSt12_Vector_baseIPK10CoordinateSaIS2_EEC2ERKS3_.eh:
LSFDE193:
	.set L$set$2062,LEFDE193-LASFDE193
	.long L$set$2062
LASFDE193:
	.long	LASFDE193-EH_frame1
	.quad	LFB2249-.
	.set L$set$2063,LFE2249-LFB2249
	.quad L$set$2063
	.byte	0x8
	.quad	0x0
	.byte	0x4
	.set L$set$2064,LCFI240-LFB2249
	.long L$set$2064
	.byte	0xe
	.byte	0x10
	.byte	0x86
	.byte	0x2
	.byte	0x4
	.set L$set$2065,LCFI241-LCFI240
	.long L$set$2065
	.byte	0xd
	.byte	0x6
	.align 3
LEFDE193:
.globl __ZNSt6vectorIPK10CoordinateSaIS2_EEC1ERKS3_.eh
	.weak_definition __ZNSt6vectorIPK10CoordinateSaIS2_EEC1ERKS3_.eh
__ZNSt6vectorIPK10CoordinateSaIS2_EEC1ERKS3_.eh:
LSFDE195:
	.set L$set$2066,LEFDE195-LASFDE195
	.long L$set$2066
LASFDE195:
	.long	LASFDE195-EH_frame1
	.quad	LFB2139-.
	.set L$set$2067,LFE2139-LFB2139
	.quad L$set$2067
	.byte	0x8
	.quad	0x0
	.byte	0x4
	.set L$set$2068,LCFI243-LFB2139
	.long L$set$2068
	.byte	0xe
	.byte	0x10
	.byte	0x86
	.byte	0x2
	.byte	0x4
	.set L$set$2069,LCFI244-LCFI243
	.long L$set$2069
	.byte	0xd
	.byte	0x6
	.align 3
LEFDE195:
.globl __ZN9__gnu_cxx17__normal_iteratorIPKPK10CoordinateSt6vectorIS3_SaIS3_EEEC1ERKS5_.eh
	.weak_definition __ZN9__gnu_cxx17__normal_iteratorIPKPK10CoordinateSt6vectorIS3_SaIS3_EEEC1ERKS5_.eh
__ZN9__gnu_cxx17__normal_iteratorIPKPK10CoordinateSt6vectorIS3_SaIS3_EEEC1ERKS5_.eh:
LSFDE197:
	.set L$set$2070,LEFDE197-LASFDE197
	.long L$set$2070
LASFDE197:
	.long	LASFDE197-EH_frame1
	.quad	LFB2356-.
	.set L$set$2071,LFE2356-LFB2356
	.quad L$set$2071
	.byte	0x8
	.quad	0x0
	.byte	0x4
	.set L$set$2072,LCFI246-LFB2356
	.long L$set$2072
	.byte	0xe
	.byte	0x10
	.byte	0x86
	.byte	0x2
	.byte	0x4
	.set L$set$2073,LCFI247-LCFI246
	.long L$set$2073
	.byte	0xd
	.byte	0x6
	.align 3
LEFDE197:
.globl __ZNKSt6vectorIPK10CoordinateSaIS2_EE3endEv.eh
	.weak_definition __ZNKSt6vectorIPK10CoordinateSaIS2_EE3endEv.eh
__ZNKSt6vectorIPK10CoordinateSaIS2_EE3endEv.eh:
LSFDE199:
	.set L$set$2074,LEFDE199-LASFDE199
	.long L$set$2074
LASFDE199:
	.long	LASFDE199-EH_frame1
	.quad	LFB2264-.
	.set L$set$2075,LFE2264-LFB2264
	.quad L$set$2075
	.byte	0x8
	.quad	0x0
	.byte	0x4
	.set L$set$2076,LCFI248-LFB2264
	.long L$set$2076
	.byte	0xe
	.byte	0x10
	.byte	0x86
	.byte	0x2
	.byte	0x4
	.set L$set$2077,LCFI249-LCFI248
	.long L$set$2077
	.byte	0xd
	.byte	0x6
	.align 3
LEFDE199:
.globl __ZNKSt6vectorIPK10CoordinateSaIS2_EE5beginEv.eh
	.weak_definition __ZNKSt6vectorIPK10CoordinateSaIS2_EE5beginEv.eh
__ZNKSt6vectorIPK10CoordinateSaIS2_EE5beginEv.eh:
LSFDE201:
	.set L$set$2078,LEFDE201-LASFDE201
	.long L$set$2078
LASFDE201:
	.long	LASFDE201-EH_frame1
	.quad	LFB2263-.
	.set L$set$2079,LFE2263-LFB2263
	.quad L$set$2079
	.byte	0x8
	.quad	0x0
	.byte	0x4
	.set L$set$2080,LCFI251-LFB2263
	.long L$set$2080
	.byte	0xe
	.byte	0x10
	.byte	0x86
	.byte	0x2
	.byte	0x4
	.set L$set$2081,LCFI252-LCFI251
	.long L$set$2081
	.byte	0xd
	.byte	0x6
	.align 3
LEFDE201:
.globl __ZNK9__gnu_cxx17__normal_iteratorIPPK10ConnectionSt6vectorIS3_SaIS3_EEE4baseEv.eh
	.weak_definition __ZNK9__gnu_cxx17__normal_iteratorIPPK10ConnectionSt6vectorIS3_SaIS3_EEE4baseEv.eh
__ZNK9__gnu_cxx17__normal_iteratorIPPK10ConnectionSt6vectorIS3_SaIS3_EEE4baseEv.eh:
LSFDE203:
	.set L$set$2082,LEFDE203-LASFDE203
	.long L$set$2082
LASFDE203:
	.long	LASFDE203-EH_frame1
	.quad	LFB2363-.
	.set L$set$2083,LFE2363-LFB2363
	.quad L$set$2083
	.byte	0x8
	.quad	0x0
	.byte	0x4
	.set L$set$2084,LCFI254-LFB2363
	.long L$set$2084
	.byte	0xe
	.byte	0x10
	.byte	0x86
	.byte	0x2
	.byte	0x4
	.set L$set$2085,LCFI255-LCFI254
	.long L$set$2085
	.byte	0xd
	.byte	0x6
	.align 3
LEFDE203:
.globl __ZNK9__gnu_cxx17__normal_iteratorIPPK10ConnectionSt6vectorIS3_SaIS3_EEEdeEv.eh
	.weak_definition __ZNK9__gnu_cxx17__normal_iteratorIPPK10ConnectionSt6vectorIS3_SaIS3_EEEdeEv.eh
__ZNK9__gnu_cxx17__normal_iteratorIPPK10ConnectionSt6vectorIS3_SaIS3_EEEdeEv.eh:
LSFDE205:
	.set L$set$2086,LEFDE205-LASFDE205
	.long L$set$2086
LASFDE205:
	.long	LASFDE205-EH_frame1
	.quad	LFB2365-.
	.set L$set$2087,LFE2365-LFB2365
	.quad L$set$2087
	.byte	0x8
	.quad	0x0
	.byte	0x4
	.set L$set$2088,LCFI256-LFB2365
	.long L$set$2088
	.byte	0xe
	.byte	0x10
	.byte	0x86
	.byte	0x2
	.byte	0x4
	.set L$set$2089,LCFI257-LCFI256
	.long L$set$2089
	.byte	0xd
	.byte	0x6
	.align 3
LEFDE205:
.globl __ZNSt8_Rb_treeI6EValueSt4pairIKS0_PK4CityESt10_Select1stIS6_ESt4lessIS0_ESaIS6_EE11_M_leftmostEv.eh
	.weak_definition __ZNSt8_Rb_treeI6EValueSt4pairIKS0_PK4CityESt10_Select1stIS6_ESt4lessIS0_ESaIS6_EE11_M_leftmostEv.eh
__ZNSt8_Rb_treeI6EValueSt4pairIKS0_PK4CityESt10_Select1stIS6_ESt4lessIS0_ESaIS6_EE11_M_leftmostEv.eh:
LSFDE207:
	.set L$set$2090,LEFDE207-LASFDE207
	.long L$set$2090
LASFDE207:
	.long	LASFDE207-EH_frame1
	.quad	LFB2367-.
	.set L$set$2091,LFE2367-LFB2367
	.quad L$set$2091
	.byte	0x8
	.quad	0x0
	.byte	0x4
	.set L$set$2092,LCFI258-LFB2367
	.long L$set$2092
	.byte	0xe
	.byte	0x10
	.byte	0x86
	.byte	0x2
	.byte	0x4
	.set L$set$2093,LCFI259-LCFI258
	.long L$set$2093
	.byte	0xd
	.byte	0x6
	.align 3
LEFDE207:
.globl __ZNSt8_Rb_treeI6EValueSt4pairIKS0_PK4CityESt10_Select1stIS6_ESt4lessIS0_ESaIS6_EE7_M_rootEv.eh
	.weak_definition __ZNSt8_Rb_treeI6EValueSt4pairIKS0_PK4CityESt10_Select1stIS6_ESt4lessIS0_ESaIS6_EE7_M_rootEv.eh
__ZNSt8_Rb_treeI6EValueSt4pairIKS0_PK4CityESt10_Select1stIS6_ESt4lessIS0_ESaIS6_EE7_M_rootEv.eh:
LSFDE209:
	.set L$set$2094,LEFDE209-LASFDE209
	.long L$set$2094
LASFDE209:
	.long	LASFDE209-EH_frame1
	.quad	LFB2368-.
	.set L$set$2095,LFE2368-LFB2368
	.quad L$set$2095
	.byte	0x8
	.quad	0x0
	.byte	0x4
	.set L$set$2096,LCFI260-LFB2368
	.long L$set$2096
	.byte	0xe
	.byte	0x10
	.byte	0x86
	.byte	0x2
	.byte	0x4
	.set L$set$2097,LCFI261-LCFI260
	.long L$set$2097
	.byte	0xd
	.byte	0x6
	.align 3
LEFDE209:
.globl __ZNSt8_Rb_treeI6EValueSt4pairIKS0_PK4CityESt10_Select1stIS6_ESt4lessIS0_ESaIS6_EE12_M_rightmostEv.eh
	.weak_definition __ZNSt8_Rb_treeI6EValueSt4pairIKS0_PK4CityESt10_Select1stIS6_ESt4lessIS0_ESaIS6_EE12_M_rightmostEv.eh
__ZNSt8_Rb_treeI6EValueSt4pairIKS0_PK4CityESt10_Select1stIS6_ESt4lessIS0_ESaIS6_EE12_M_rightmostEv.eh:
LSFDE211:
	.set L$set$2098,LEFDE211-LASFDE211
	.long L$set$2098
LASFDE211:
	.long	LASFDE211-EH_frame1
	.quad	LFB2369-.
	.set L$set$2099,LFE2369-LFB2369
	.quad L$set$2099
	.byte	0x8
	.quad	0x0
	.byte	0x4
	.set L$set$2100,LCFI262-LFB2369
	.long L$set$2100
	.byte	0xe
	.byte	0x10
	.byte	0x86
	.byte	0x2
	.byte	0x4
	.set L$set$2101,LCFI263-LCFI262
	.long L$set$2101
	.byte	0xd
	.byte	0x6
	.align 3
LEFDE211:
.globl __ZN9__gnu_cxx13new_allocatorISt13_Rb_tree_nodeISt4pairIK6EValuePK4CityEEEC2Ev.eh
	.weak_definition __ZN9__gnu_cxx13new_allocatorISt13_Rb_tree_nodeISt4pairIK6EValuePK4CityEEEC2Ev.eh
__ZN9__gnu_cxx13new_allocatorISt13_Rb_tree_nodeISt4pairIK6EValuePK4CityEEEC2Ev.eh:
LSFDE213:
	.set L$set$2102,LEFDE213-LASFDE213
	.long L$set$2102
LASFDE213:
	.long	LASFDE213-EH_frame1
	.quad	LFB2372-.
	.set L$set$2103,LFE2372-LFB2372
	.quad L$set$2103
	.byte	0x8
	.quad	0x0
	.byte	0x4
	.set L$set$2104,LCFI264-LFB2372
	.long L$set$2104
	.byte	0xe
	.byte	0x10
	.byte	0x86
	.byte	0x2
	.byte	0x4
	.set L$set$2105,LCFI265-LCFI264
	.long L$set$2105
	.byte	0xd
	.byte	0x6
	.align 3
LEFDE213:
.globl __ZNSaISt13_Rb_tree_nodeISt4pairIK6EValuePK4CityEEEC1IS6_EERKSaIT_E.eh
	.weak_definition __ZNSaISt13_Rb_tree_nodeISt4pairIK6EValuePK4CityEEEC1IS6_EERKSaIT_E.eh
__ZNSaISt13_Rb_tree_nodeISt4pairIK6EValuePK4CityEEEC1IS6_EERKSaIT_E.eh:
LSFDE215:
	.set L$set$2106,LEFDE215-LASFDE215
	.long L$set$2106
LASFDE215:
	.long	LASFDE215-EH_frame1
	.quad	LFB2315-.
	.set L$set$2107,LFE2315-LFB2315
	.quad L$set$2107
	.byte	0x8
	.quad	0x0
	.byte	0x4
	.set L$set$2108,LCFI266-LFB2315
	.long L$set$2108
	.byte	0xe
	.byte	0x10
	.byte	0x86
	.byte	0x2
	.byte	0x4
	.set L$set$2109,LCFI267-LCFI266
	.long L$set$2109
	.byte	0xd
	.byte	0x6
	.align 3
LEFDE215:
.globl __ZNSt4pairIK6EValuePK4CityED1Ev.eh
	.weak_definition __ZNSt4pairIK6EValuePK4CityED1Ev.eh
__ZNSt4pairIK6EValuePK4CityED1Ev.eh:
LSFDE217:
	.set L$set$2110,LEFDE217-LASFDE217
	.long L$set$2110
LASFDE217:
	.long	LASFDE217-EH_frame1
	.quad	LFB2381-.
	.set L$set$2111,LFE2381-LFB2381
	.quad L$set$2111
	.byte	0x8
	.quad	0x0
	.byte	0x4
	.set L$set$2112,LCFI269-LFB2381
	.long L$set$2112
	.byte	0xe
	.byte	0x10
	.byte	0x86
	.byte	0x2
	.byte	0x4
	.set L$set$2113,LCFI270-LCFI269
	.long L$set$2113
	.byte	0xd
	.byte	0x6
	.align 3
LEFDE217:
.globl __ZN9__gnu_cxx13new_allocatorISt4pairIK6EValuePK4CityEE7destroyEPS7_.eh
	.weak_definition __ZN9__gnu_cxx13new_allocatorISt4pairIK6EValuePK4CityEE7destroyEPS7_.eh
__ZN9__gnu_cxx13new_allocatorISt4pairIK6EValuePK4CityEE7destroyEPS7_.eh:
LSFDE219:
	.set L$set$2114,LEFDE219-LASFDE219
	.long L$set$2114
LASFDE219:
	.long	LASFDE219-EH_frame1
	.quad	LFB2378-.
	.set L$set$2115,LFE2378-LFB2378
	.quad L$set$2115
	.byte	0x8
	.quad	0x0
	.byte	0x4
	.set L$set$2116,LCFI271-LFB2378
	.long L$set$2116
	.byte	0xe
	.byte	0x10
	.byte	0x86
	.byte	0x2
	.byte	0x4
	.set L$set$2117,LCFI272-LCFI271
	.long L$set$2117
	.byte	0xd
	.byte	0x6
	.align 3
LEFDE219:
.globl __ZNSt8_Rb_treeI6EValueSt4pairIKS0_PK4CityESt10_Select1stIS6_ESt4lessIS0_ESaIS6_EE8_S_valueEPKSt13_Rb_tree_nodeIS6_E.eh
	.weak_definition __ZNSt8_Rb_treeI6EValueSt4pairIKS0_PK4CityESt10_Select1stIS6_ESt4lessIS0_ESaIS6_EE8_S_valueEPKSt13_Rb_tree_nodeIS6_E.eh
__ZNSt8_Rb_treeI6EValueSt4pairIKS0_PK4CityESt10_Select1stIS6_ESt4lessIS0_ESaIS6_EE8_S_valueEPKSt13_Rb_tree_nodeIS6_E.eh:
LSFDE221:
	.set L$set$2118,LEFDE221-LASFDE221
	.long L$set$2118
LASFDE221:
	.long	LASFDE221-EH_frame1
	.quad	LFB2383-.
	.set L$set$2119,LFE2383-LFB2383
	.quad L$set$2119
	.byte	0x8
	.quad	0x0
	.byte	0x4
	.set L$set$2120,LCFI274-LFB2383
	.long L$set$2120
	.byte	0xe
	.byte	0x10
	.byte	0x86
	.byte	0x2
	.byte	0x4
	.set L$set$2121,LCFI275-LCFI274
	.long L$set$2121
	.byte	0xd
	.byte	0x6
	.align 3
LEFDE221:
.globl __ZNSt8_Rb_treeI6EValueSt4pairIKS0_PK4CityESt10_Select1stIS6_ESt4lessIS0_ESaIS6_EE6_S_keyEPKSt13_Rb_tree_nodeIS6_E.eh
	.weak_definition __ZNSt8_Rb_treeI6EValueSt4pairIKS0_PK4CityESt10_Select1stIS6_ESt4lessIS0_ESaIS6_EE6_S_keyEPKSt13_Rb_tree_nodeIS6_E.eh
__ZNSt8_Rb_treeI6EValueSt4pairIKS0_PK4CityESt10_Select1stIS6_ESt4lessIS0_ESaIS6_EE6_S_keyEPKSt13_Rb_tree_nodeIS6_E.eh:
LSFDE223:
	.set L$set$2122,LEFDE223-LASFDE223
	.long L$set$2122
LASFDE223:
	.long	LASFDE223-EH_frame1
	.quad	LFB2327-.
	.set L$set$2123,LFE2327-LFB2327
	.quad L$set$2123
	.byte	0x8
	.quad	0x0
	.byte	0x4
	.set L$set$2124,LCFI276-LFB2327
	.long L$set$2124
	.byte	0xe
	.byte	0x10
	.byte	0x86
	.byte	0x2
	.byte	0x4
	.set L$set$2125,LCFI277-LCFI276
	.long L$set$2125
	.byte	0xd
	.byte	0x6
	.byte	0x4
	.set L$set$2126,LCFI279-LCFI277
	.long L$set$2126
	.byte	0x83
	.byte	0x3
	.align 3
LEFDE223:
.globl __ZSt13__destroy_auxIPPK10ConnectionEvT_S4_St11__true_type.eh
	.weak_definition __ZSt13__destroy_auxIPPK10ConnectionEvT_S4_St11__true_type.eh
__ZSt13__destroy_auxIPPK10ConnectionEvT_S4_St11__true_type.eh:
LSFDE225:
	.set L$set$2127,LEFDE225-LASFDE225
	.long L$set$2127
LASFDE225:
	.long	LASFDE225-EH_frame1
	.quad	LFB2386-.
	.set L$set$2128,LFE2386-LFB2386
	.quad L$set$2128
	.byte	0x8
	.quad	0x0
	.byte	0x4
	.set L$set$2129,LCFI280-LFB2386
	.long L$set$2129
	.byte	0xe
	.byte	0x10
	.byte	0x86
	.byte	0x2
	.byte	0x4
	.set L$set$2130,LCFI281-LCFI280
	.long L$set$2130
	.byte	0xd
	.byte	0x6
	.align 3
LEFDE225:
.globl __ZSt8_DestroyIPPK10ConnectionEvT_S4_.eh
	.weak_definition __ZSt8_DestroyIPPK10ConnectionEvT_S4_.eh
__ZSt8_DestroyIPPK10ConnectionEvT_S4_.eh:
LSFDE227:
	.set L$set$2131,LEFDE227-LASFDE227
	.long L$set$2131
LASFDE227:
	.long	LASFDE227-EH_frame1
	.quad	LFB2333-.
	.set L$set$2132,LFE2333-LFB2333
	.quad L$set$2132
	.byte	0x8
	.quad	0x0
	.byte	0x4
	.set L$set$2133,LCFI282-LFB2333
	.long L$set$2133
	.byte	0xe
	.byte	0x10
	.byte	0x86
	.byte	0x2
	.byte	0x4
	.set L$set$2134,LCFI283-LCFI282
	.long L$set$2134
	.byte	0xd
	.byte	0x6
	.align 3
LEFDE227:
.globl __ZSt8_DestroyIPPK10ConnectionS2_EvT_S4_SaIT0_E.eh
	.weak_definition __ZSt8_DestroyIPPK10ConnectionS2_EvT_S4_SaIT0_E.eh
__ZSt8_DestroyIPPK10ConnectionS2_EvT_S4_SaIT0_E.eh:
LSFDE229:
	.set L$set$2135,LEFDE229-LASFDE229
	.long L$set$2135
LASFDE229:
	.long	LASFDE229-EH_frame1
	.quad	LFB2220-.
	.set L$set$2136,LFE2220-LFB2220
	.quad L$set$2136
	.byte	0x8
	.quad	0x0
	.byte	0x4
	.set L$set$2137,LCFI285-LFB2220
	.long L$set$2137
	.byte	0xe
	.byte	0x10
	.byte	0x86
	.byte	0x2
	.byte	0x4
	.set L$set$2138,LCFI286-LCFI285
	.long L$set$2138
	.byte	0xd
	.byte	0x6
	.align 3
LEFDE229:
.globl __ZNSt6vectorIPK10ConnectionSaIS2_EE15_M_erase_at_endEPS2_.eh
	.weak_definition __ZNSt6vectorIPK10ConnectionSaIS2_EE15_M_erase_at_endEPS2_.eh
__ZNSt6vectorIPK10ConnectionSaIS2_EE15_M_erase_at_endEPS2_.eh:
LSFDE231:
	.set L$set$2139,LEFDE231-LASFDE231
	.long L$set$2139
LASFDE231:
	.long	LASFDE231-EH_frame1
	.quad	LFB2228-.
	.set L$set$2140,LFE2228-LFB2228
	.quad L$set$2140
	.byte	0x8
	.quad	0x0
	.byte	0x4
	.set L$set$2141,LCFI288-LFB2228
	.long L$set$2141
	.byte	0xe
	.byte	0x10
	.byte	0x86
	.byte	0x2
	.byte	0x4
	.set L$set$2142,LCFI289-LCFI288
	.long L$set$2142
	.byte	0xd
	.byte	0x6
	.align 3
LEFDE231:
.globl __ZNSt6vectorIPK10ConnectionSaIS2_EE5clearEv.eh
	.weak_definition __ZNSt6vectorIPK10ConnectionSaIS2_EE5clearEv.eh
__ZNSt6vectorIPK10ConnectionSaIS2_EE5clearEv.eh:
LSFDE233:
	.set L$set$2143,LEFDE233-LASFDE233
	.long L$set$2143
LASFDE233:
	.long	LASFDE233-EH_frame1
	.quad	LFB2126-.
	.set L$set$2144,LFE2126-LFB2126
	.quad L$set$2144
	.byte	0x8
	.quad	0x0
	.byte	0x4
	.set L$set$2145,LCFI291-LFB2126
	.long L$set$2145
	.byte	0xe
	.byte	0x10
	.byte	0x86
	.byte	0x2
	.byte	0x4
	.set L$set$2146,LCFI292-LCFI291
	.long L$set$2146
	.byte	0xd
	.byte	0x6
	.align 3
LEFDE233:
.globl __ZNK9__gnu_cxx17__normal_iteratorIPKPK10ConnectionSt6vectorIS3_SaIS3_EEE4baseEv.eh
	.weak_definition __ZNK9__gnu_cxx17__normal_iteratorIPKPK10ConnectionSt6vectorIS3_SaIS3_EEE4baseEv.eh
__ZNK9__gnu_cxx17__normal_iteratorIPKPK10ConnectionSt6vectorIS3_SaIS3_EEE4baseEv.eh:
LSFDE235:
	.set L$set$2147,LEFDE235-LASFDE235
	.long L$set$2147
LASFDE235:
	.long	LASFDE235-EH_frame1
	.quad	LFB2389-.
	.set L$set$2148,LFE2389-LFB2389
	.quad L$set$2148
	.byte	0x8
	.quad	0x0
	.byte	0x4
	.set L$set$2149,LCFI294-LFB2389
	.long L$set$2149
	.byte	0xe
	.byte	0x10
	.byte	0x86
	.byte	0x2
	.byte	0x4
	.set L$set$2150,LCFI295-LCFI294
	.long L$set$2150
	.byte	0xd
	.byte	0x6
	.align 3
LEFDE235:
.globl __ZSt13__destroy_auxIN9__gnu_cxx17__normal_iteratorIPPK10ConnectionSt6vectorIS4_SaIS4_EEEEEvT_SA_St11__true_type.eh
	.weak_definition __ZSt13__destroy_auxIN9__gnu_cxx17__normal_iteratorIPPK10ConnectionSt6vectorIS4_SaIS4_EEEEEvT_SA_St11__true_type.eh
__ZSt13__destroy_auxIN9__gnu_cxx17__normal_iteratorIPPK10ConnectionSt6vectorIS4_SaIS4_EEEEEvT_SA_St11__true_type.eh:
LSFDE237:
	.set L$set$2151,LEFDE237-LASFDE237
	.long L$set$2151
LASFDE237:
	.long	LASFDE237-EH_frame1
	.quad	LFB2391-.
	.set L$set$2152,LFE2391-LFB2391
	.quad L$set$2152
	.byte	0x8
	.quad	0x0
	.byte	0x4
	.set L$set$2153,LCFI296-LFB2391
	.long L$set$2153
	.byte	0xe
	.byte	0x10
	.byte	0x86
	.byte	0x2
	.byte	0x4
	.set L$set$2154,LCFI297-LCFI296
	.long L$set$2154
	.byte	0xd
	.byte	0x6
	.align 3
LEFDE237:
.globl __ZSt8_DestroyIN9__gnu_cxx17__normal_iteratorIPPK10ConnectionSt6vectorIS4_SaIS4_EEEEEvT_SA_.eh
	.weak_definition __ZSt8_DestroyIN9__gnu_cxx17__normal_iteratorIPPK10ConnectionSt6vectorIS4_SaIS4_EEEEEvT_SA_.eh
__ZSt8_DestroyIN9__gnu_cxx17__normal_iteratorIPPK10ConnectionSt6vectorIS4_SaIS4_EEEEEvT_SA_.eh:
LSFDE239:
	.set L$set$2155,LEFDE239-LASFDE239
	.long L$set$2155
LASFDE239:
	.long	LASFDE239-EH_frame1
	.quad	LFB2344-.
	.set L$set$2156,LFE2344-LFB2344
	.quad L$set$2156
	.byte	0x8
	.quad	0x0
	.byte	0x4
	.set L$set$2157,LCFI298-LFB2344
	.long L$set$2157
	.byte	0xe
	.byte	0x10
	.byte	0x86
	.byte	0x2
	.byte	0x4
	.set L$set$2158,LCFI299-LCFI298
	.long L$set$2158
	.byte	0xd
	.byte	0x6
	.align 3
LEFDE239:
.globl __ZSt8_DestroyIN9__gnu_cxx17__normal_iteratorIPPK10ConnectionSt6vectorIS4_SaIS4_EEEES4_EvT_SA_SaIT0_E.eh
	.weak_definition __ZSt8_DestroyIN9__gnu_cxx17__normal_iteratorIPPK10ConnectionSt6vectorIS4_SaIS4_EEEES4_EvT_SA_SaIT0_E.eh
__ZSt8_DestroyIN9__gnu_cxx17__normal_iteratorIPPK10ConnectionSt6vectorIS4_SaIS4_EEEES4_EvT_SA_SaIT0_E.eh:
LSFDE241:
	.set L$set$2159,LEFDE241-LASFDE241
	.long L$set$2159
LASFDE241:
	.long	LASFDE241-EH_frame1
	.quad	LFB2233-.
	.set L$set$2160,LFE2233-LFB2233
	.quad L$set$2160
	.byte	0x8
	.quad	0x0
	.byte	0x4
	.set L$set$2161,LCFI301-LFB2233
	.long L$set$2161
	.byte	0xe
	.byte	0x10
	.byte	0x86
	.byte	0x2
	.byte	0x4
	.set L$set$2162,LCFI302-LCFI301
	.long L$set$2162
	.byte	0xd
	.byte	0x6
	.align 3
LEFDE241:
.globl __ZSt13__destroy_auxIPPK10CoordinateEvT_S4_St11__true_type.eh
	.weak_definition __ZSt13__destroy_auxIPPK10CoordinateEvT_S4_St11__true_type.eh
__ZSt13__destroy_auxIPPK10CoordinateEvT_S4_St11__true_type.eh:
LSFDE243:
	.set L$set$2163,LEFDE243-LASFDE243
	.long L$set$2163
LASFDE243:
	.long	LASFDE243-EH_frame1
	.quad	LFB2394-.
	.set L$set$2164,LFE2394-LFB2394
	.quad L$set$2164
	.byte	0x8
	.quad	0x0
	.byte	0x4
	.set L$set$2165,LCFI304-LFB2394
	.long L$set$2165
	.byte	0xe
	.byte	0x10
	.byte	0x86
	.byte	0x2
	.byte	0x4
	.set L$set$2166,LCFI305-LCFI304
	.long L$set$2166
	.byte	0xd
	.byte	0x6
	.align 3
LEFDE243:
.globl __ZSt8_DestroyIPPK10CoordinateEvT_S4_.eh
	.weak_definition __ZSt8_DestroyIPPK10CoordinateEvT_S4_.eh
__ZSt8_DestroyIPPK10CoordinateEvT_S4_.eh:
LSFDE245:
	.set L$set$2167,LEFDE245-LASFDE245
	.long L$set$2167
LASFDE245:
	.long	LASFDE245-EH_frame1
	.quad	LFB2350-.
	.set L$set$2168,LFE2350-LFB2350
	.quad L$set$2168
	.byte	0x8
	.quad	0x0
	.byte	0x4
	.set L$set$2169,LCFI306-LFB2350
	.long L$set$2169
	.byte	0xe
	.byte	0x10
	.byte	0x86
	.byte	0x2
	.byte	0x4
	.set L$set$2170,LCFI307-LCFI306
	.long L$set$2170
	.byte	0xd
	.byte	0x6
	.align 3
LEFDE245:
.globl __ZSt8_DestroyIPPK10CoordinateS2_EvT_S4_SaIT0_E.eh
	.weak_definition __ZSt8_DestroyIPPK10CoordinateS2_EvT_S4_SaIT0_E.eh
__ZSt8_DestroyIPPK10CoordinateS2_EvT_S4_SaIT0_E.eh:
LSFDE247:
	.set L$set$2171,LEFDE247-LASFDE247
	.long L$set$2171
LASFDE247:
	.long	LASFDE247-EH_frame1
	.quad	LFB2255-.
	.set L$set$2172,LFE2255-LFB2255
	.quad L$set$2172
	.byte	0x8
	.quad	0x0
	.byte	0x4
	.set L$set$2173,LCFI309-LFB2255
	.long L$set$2173
	.byte	0xe
	.byte	0x10
	.byte	0x86
	.byte	0x2
	.byte	0x4
	.set L$set$2174,LCFI310-LCFI309
	.long L$set$2174
	.byte	0xd
	.byte	0x6
	.align 3
LEFDE247:
.globl __ZNSt6vectorIPK10CoordinateSaIS2_EE15_M_erase_at_endEPS2_.eh
	.weak_definition __ZNSt6vectorIPK10CoordinateSaIS2_EE15_M_erase_at_endEPS2_.eh
__ZNSt6vectorIPK10CoordinateSaIS2_EE15_M_erase_at_endEPS2_.eh:
LSFDE249:
	.set L$set$2175,LEFDE249-LASFDE249
	.long L$set$2175
LASFDE249:
	.long	LASFDE249-EH_frame1
	.quad	LFB2271-.
	.set L$set$2176,LFE2271-LFB2271
	.quad L$set$2176
	.byte	0x8
	.quad	0x0
	.byte	0x4
	.set L$set$2177,LCFI312-LFB2271
	.long L$set$2177
	.byte	0xe
	.byte	0x10
	.byte	0x86
	.byte	0x2
	.byte	0x4
	.set L$set$2178,LCFI313-LCFI312
	.long L$set$2178
	.byte	0xd
	.byte	0x6
	.align 3
LEFDE249:
.globl __ZNSt6vectorIPK10CoordinateSaIS2_EE5clearEv.eh
	.weak_definition __ZNSt6vectorIPK10CoordinateSaIS2_EE5clearEv.eh
__ZNSt6vectorIPK10CoordinateSaIS2_EE5clearEv.eh:
LSFDE251:
	.set L$set$2179,LEFDE251-LASFDE251
	.long L$set$2179
LASFDE251:
	.long	LASFDE251-EH_frame1
	.quad	LFB2154-.
	.set L$set$2180,LFE2154-LFB2154
	.quad L$set$2180
	.byte	0x8
	.quad	0x0
	.byte	0x4
	.set L$set$2181,LCFI315-LFB2154
	.long L$set$2181
	.byte	0xe
	.byte	0x10
	.byte	0x86
	.byte	0x2
	.byte	0x4
	.set L$set$2182,LCFI316-LCFI315
	.long L$set$2182
	.byte	0xd
	.byte	0x6
	.align 3
LEFDE251:
.globl __ZNKSt12_Vector_baseIPK10CoordinateSaIS2_EE19_M_get_Tp_allocatorEv.eh
	.weak_definition __ZNKSt12_Vector_baseIPK10CoordinateSaIS2_EE19_M_get_Tp_allocatorEv.eh
__ZNKSt12_Vector_baseIPK10CoordinateSaIS2_EE19_M_get_Tp_allocatorEv.eh:
LSFDE253:
	.set L$set$2183,LEFDE253-LASFDE253
	.long L$set$2183
LASFDE253:
	.long	LASFDE253-EH_frame1
	.quad	LFB2396-.
	.set L$set$2184,LFE2396-LFB2396
	.quad L$set$2184
	.byte	0x8
	.quad	0x0
	.byte	0x4
	.set L$set$2185,LCFI318-LFB2396
	.long L$set$2185
	.byte	0xe
	.byte	0x10
	.byte	0x86
	.byte	0x2
	.byte	0x4
	.set L$set$2186,LCFI319-LCFI318
	.long L$set$2186
	.byte	0xd
	.byte	0x6
	.align 3
LEFDE253:
.globl __ZNK9__gnu_cxx13new_allocatorIPK10CoordinateE8max_sizeEv.eh
	.weak_definition __ZNK9__gnu_cxx13new_allocatorIPK10CoordinateE8max_sizeEv.eh
__ZNK9__gnu_cxx13new_allocatorIPK10CoordinateE8max_sizeEv.eh:
LSFDE255:
	.set L$set$2187,LEFDE255-LASFDE255
	.long L$set$2187
LASFDE255:
	.long	LASFDE255-EH_frame1
	.quad	LFB2397-.
	.set L$set$2188,LFE2397-LFB2397
	.quad L$set$2188
	.byte	0x8
	.quad	0x0
	.byte	0x4
	.set L$set$2189,LCFI320-LFB2397
	.long L$set$2189
	.byte	0xe
	.byte	0x10
	.byte	0x86
	.byte	0x2
	.byte	0x4
	.set L$set$2190,LCFI321-LCFI320
	.long L$set$2190
	.byte	0xd
	.byte	0x6
	.align 3
LEFDE255:
.globl __ZNKSt6vectorIPK10CoordinateSaIS2_EE8max_sizeEv.eh
	.weak_definition __ZNKSt6vectorIPK10CoordinateSaIS2_EE8max_sizeEv.eh
__ZNKSt6vectorIPK10CoordinateSaIS2_EE8max_sizeEv.eh:
LSFDE257:
	.set L$set$2191,LEFDE257-LASFDE257
	.long L$set$2191
LASFDE257:
	.long	LASFDE257-EH_frame1
	.quad	LFB2352-.
	.set L$set$2192,LFE2352-LFB2352
	.quad L$set$2192
	.byte	0x8
	.quad	0x0
	.byte	0x4
	.set L$set$2193,LCFI322-LFB2352
	.long L$set$2193
	.byte	0xe
	.byte	0x10
	.byte	0x86
	.byte	0x2
	.byte	0x4
	.set L$set$2194,LCFI323-LCFI322
	.long L$set$2194
	.byte	0xd
	.byte	0x6
	.align 3
LEFDE257:
.globl __ZNK9__gnu_cxx17__normal_iteratorIPKPK10CoordinateSt6vectorIS3_SaIS3_EEE4baseEv.eh
	.weak_definition __ZNK9__gnu_cxx17__normal_iteratorIPKPK10CoordinateSt6vectorIS3_SaIS3_EEE4baseEv.eh
__ZNK9__gnu_cxx17__normal_iteratorIPKPK10CoordinateSt6vectorIS3_SaIS3_EEE4baseEv.eh:
LSFDE259:
	.set L$set$2195,LEFDE259-LASFDE259
	.long L$set$2195
LASFDE259:
	.long	LASFDE259-EH_frame1
	.quad	LFB2400-.
	.set L$set$2196,LFE2400-LFB2400
	.quad L$set$2196
	.byte	0x8
	.quad	0x0
	.byte	0x4
	.set L$set$2197,LCFI325-LFB2400
	.long L$set$2197
	.byte	0xe
	.byte	0x10
	.byte	0x86
	.byte	0x2
	.byte	0x4
	.set L$set$2198,LCFI326-LCFI325
	.long L$set$2198
	.byte	0xd
	.byte	0x6
	.align 3
LEFDE259:
.globl __ZSt13__destroy_auxIN9__gnu_cxx17__normal_iteratorIPPK10CoordinateSt6vectorIS4_SaIS4_EEEEEvT_SA_St11__true_type.eh
	.weak_definition __ZSt13__destroy_auxIN9__gnu_cxx17__normal_iteratorIPPK10CoordinateSt6vectorIS4_SaIS4_EEEEEvT_SA_St11__true_type.eh
__ZSt13__destroy_auxIN9__gnu_cxx17__normal_iteratorIPPK10CoordinateSt6vectorIS4_SaIS4_EEEEEvT_SA_St11__true_type.eh:
LSFDE261:
	.set L$set$2199,LEFDE261-LASFDE261
	.long L$set$2199
LASFDE261:
	.long	LASFDE261-EH_frame1
	.quad	LFB2402-.
	.set L$set$2200,LFE2402-LFB2402
	.quad L$set$2200
	.byte	0x8
	.quad	0x0
	.byte	0x4
	.set L$set$2201,LCFI327-LFB2402
	.long L$set$2201
	.byte	0xe
	.byte	0x10
	.byte	0x86
	.byte	0x2
	.byte	0x4
	.set L$set$2202,LCFI328-LCFI327
	.long L$set$2202
	.byte	0xd
	.byte	0x6
	.align 3
LEFDE261:
.globl __ZSt8_DestroyIN9__gnu_cxx17__normal_iteratorIPPK10CoordinateSt6vectorIS4_SaIS4_EEEEEvT_SA_.eh
	.weak_definition __ZSt8_DestroyIN9__gnu_cxx17__normal_iteratorIPPK10CoordinateSt6vectorIS4_SaIS4_EEEEEvT_SA_.eh
__ZSt8_DestroyIN9__gnu_cxx17__normal_iteratorIPPK10CoordinateSt6vectorIS4_SaIS4_EEEEEvT_SA_.eh:
LSFDE263:
	.set L$set$2203,LEFDE263-LASFDE263
	.long L$set$2203
LASFDE263:
	.long	LASFDE263-EH_frame1
	.quad	LFB2360-.
	.set L$set$2204,LFE2360-LFB2360
	.quad L$set$2204
	.byte	0x8
	.quad	0x0
	.byte	0x4
	.set L$set$2205,LCFI329-LFB2360
	.long L$set$2205
	.byte	0xe
	.byte	0x10
	.byte	0x86
	.byte	0x2
	.byte	0x4
	.set L$set$2206,LCFI330-LCFI329
	.long L$set$2206
	.byte	0xd
	.byte	0x6
	.align 3
LEFDE263:
.globl __ZSt8_DestroyIN9__gnu_cxx17__normal_iteratorIPPK10CoordinateSt6vectorIS4_SaIS4_EEEES4_EvT_SA_SaIT0_E.eh
	.weak_definition __ZSt8_DestroyIN9__gnu_cxx17__normal_iteratorIPPK10CoordinateSt6vectorIS4_SaIS4_EEEES4_EvT_SA_SaIT0_E.eh
__ZSt8_DestroyIN9__gnu_cxx17__normal_iteratorIPPK10CoordinateSt6vectorIS4_SaIS4_EEEES4_EvT_SA_SaIT0_E.eh:
LSFDE265:
	.set L$set$2207,LEFDE265-LASFDE265
	.long L$set$2207
LASFDE265:
	.long	LASFDE265-EH_frame1
	.quad	LFB2268-.
	.set L$set$2208,LFE2268-LFB2268
	.quad L$set$2208
	.byte	0x8
	.quad	0x0
	.byte	0x4
	.set L$set$2209,LCFI332-LFB2268
	.long L$set$2209
	.byte	0xe
	.byte	0x10
	.byte	0x86
	.byte	0x2
	.byte	0x4
	.set L$set$2210,LCFI333-LCFI332
	.long L$set$2210
	.byte	0xd
	.byte	0x6
	.align 3
LEFDE265:
.globl __ZNK9__gnu_cxx13new_allocatorIPK10ConnectionE8max_sizeEv.eh
	.weak_definition __ZNK9__gnu_cxx13new_allocatorIPK10ConnectionE8max_sizeEv.eh
__ZNK9__gnu_cxx13new_allocatorIPK10ConnectionE8max_sizeEv.eh:
LSFDE267:
	.set L$set$2211,LEFDE267-LASFDE267
	.long L$set$2211
LASFDE267:
	.long	LASFDE267-EH_frame1
	.quad	LFB2406-.
	.set L$set$2212,LFE2406-LFB2406
	.quad L$set$2212
	.byte	0x8
	.quad	0x0
	.byte	0x4
	.set L$set$2213,LCFI335-LFB2406
	.long L$set$2213
	.byte	0xe
	.byte	0x10
	.byte	0x86
	.byte	0x2
	.byte	0x4
	.set L$set$2214,LCFI336-LCFI335
	.long L$set$2214
	.byte	0xd
	.byte	0x6
	.align 3
LEFDE267:
.globl __ZNKSt6vectorIPK10ConnectionSaIS2_EE8max_sizeEv.eh
	.weak_definition __ZNKSt6vectorIPK10ConnectionSaIS2_EE8max_sizeEv.eh
__ZNKSt6vectorIPK10ConnectionSaIS2_EE8max_sizeEv.eh:
LSFDE269:
	.set L$set$2215,LEFDE269-LASFDE269
	.long L$set$2215
LASFDE269:
	.long	LASFDE269-EH_frame1
	.quad	LFB2366-.
	.set L$set$2216,LFE2366-LFB2366
	.quad L$set$2216
	.byte	0x8
	.quad	0x0
	.byte	0x4
	.set L$set$2217,LCFI337-LFB2366
	.long L$set$2217
	.byte	0xe
	.byte	0x10
	.byte	0x86
	.byte	0x2
	.byte	0x4
	.set L$set$2218,LCFI338-LCFI337
	.long L$set$2218
	.byte	0xd
	.byte	0x6
	.align 3
LEFDE269:
.globl __ZN9__gnu_cxxneIPPK10ConnectionSt6vectorIS3_SaIS3_EEEEbRKNS_17__normal_iteratorIT_T0_EESD_.eh
	.weak_definition __ZN9__gnu_cxxneIPPK10ConnectionSt6vectorIS3_SaIS3_EEEEbRKNS_17__normal_iteratorIT_T0_EESD_.eh
__ZN9__gnu_cxxneIPPK10ConnectionSt6vectorIS3_SaIS3_EEEEbRKNS_17__normal_iteratorIT_T0_EESD_.eh:
LSFDE271:
	.set L$set$2219,LEFDE271-LASFDE271
	.long L$set$2219
LASFDE271:
	.long	LASFDE271-EH_frame1
	.quad	LFB2407-.
	.set L$set$2220,LFE2407-LFB2407
	.quad L$set$2220
	.byte	0x8
	.quad	0x0
	.byte	0x4
	.set L$set$2221,LCFI340-LFB2407
	.long L$set$2221
	.byte	0xe
	.byte	0x10
	.byte	0x86
	.byte	0x2
	.byte	0x4
	.set L$set$2222,LCFI341-LCFI340
	.long L$set$2222
	.byte	0xd
	.byte	0x6
	.byte	0x4
	.set L$set$2223,LCFI343-LCFI341
	.long L$set$2223
	.byte	0x83
	.byte	0x3
	.align 3
LEFDE271:
.globl __ZN9__gnu_cxxmiIPPK10ConnectionSt6vectorIS3_SaIS3_EEEENS_17__normal_iteratorIT_T0_E15difference_typeERKSB_SE_.eh
	.weak_definition __ZN9__gnu_cxxmiIPPK10ConnectionSt6vectorIS3_SaIS3_EEEENS_17__normal_iteratorIT_T0_E15difference_typeERKSB_SE_.eh
__ZN9__gnu_cxxmiIPPK10ConnectionSt6vectorIS3_SaIS3_EEEENS_17__normal_iteratorIT_T0_E15difference_typeERKSB_SE_.eh:
LSFDE273:
	.set L$set$2224,LEFDE273-LASFDE273
	.long L$set$2224
LASFDE273:
	.long	LASFDE273-EH_frame1
	.quad	LFB2409-.
	.set L$set$2225,LFE2409-LFB2409
	.quad L$set$2225
	.byte	0x8
	.quad	0x0
	.byte	0x4
	.set L$set$2226,LCFI344-LFB2409
	.long L$set$2226
	.byte	0xe
	.byte	0x10
	.byte	0x86
	.byte	0x2
	.byte	0x4
	.set L$set$2227,LCFI345-LCFI344
	.long L$set$2227
	.byte	0xd
	.byte	0x6
	.byte	0x4
	.set L$set$2228,LCFI347-LCFI345
	.long L$set$2228
	.byte	0x83
	.byte	0x3
	.align 3
LEFDE273:
.globl __ZSt3maxImERKT_S2_S2_.eh
	.weak_definition __ZSt3maxImERKT_S2_S2_.eh
__ZSt3maxImERKT_S2_S2_.eh:
LSFDE275:
	.set L$set$2229,LEFDE275-LASFDE275
	.long L$set$2229
LASFDE275:
	.long	LASFDE275-EH_frame1
	.quad	LFB2413-.
	.set L$set$2230,LFE2413-LFB2413
	.quad L$set$2230
	.byte	0x8
	.quad	0x0
	.byte	0x4
	.set L$set$2231,LCFI348-LFB2413
	.long L$set$2231
	.byte	0xe
	.byte	0x10
	.byte	0x86
	.byte	0x2
	.byte	0x4
	.set L$set$2232,LCFI349-LCFI348
	.long L$set$2232
	.byte	0xd
	.byte	0x6
	.align 3
LEFDE275:
.globl __ZN9__gnu_cxx13new_allocatorISt13_Rb_tree_nodeISt4pairIK6EValuePK4CityEEEC2ERKSA_.eh
	.weak_definition __ZN9__gnu_cxx13new_allocatorISt13_Rb_tree_nodeISt4pairIK6EValuePK4CityEEEC2ERKSA_.eh
__ZN9__gnu_cxx13new_allocatorISt13_Rb_tree_nodeISt4pairIK6EValuePK4CityEEEC2ERKSA_.eh:
LSFDE277:
	.set L$set$2233,LEFDE277-LASFDE277
	.long L$set$2233
LASFDE277:
	.long	LASFDE277-EH_frame1
	.quad	LFB2415-.
	.set L$set$2234,LFE2415-LFB2415
	.quad L$set$2234
	.byte	0x8
	.quad	0x0
	.byte	0x4
	.set L$set$2235,LCFI350-LFB2415
	.long L$set$2235
	.byte	0xe
	.byte	0x10
	.byte	0x86
	.byte	0x2
	.byte	0x4
	.set L$set$2236,LCFI351-LCFI350
	.long L$set$2236
	.byte	0xd
	.byte	0x6
	.align 3
LEFDE277:
.globl __ZNSaISt13_Rb_tree_nodeISt4pairIK6EValuePK4CityEEEC2ERKS8_.eh
	.weak_definition __ZNSaISt13_Rb_tree_nodeISt4pairIK6EValuePK4CityEEEC2ERKS8_.eh
__ZNSaISt13_Rb_tree_nodeISt4pairIK6EValuePK4CityEEEC2ERKS8_.eh:
LSFDE279:
	.set L$set$2237,LEFDE279-LASFDE279
	.long L$set$2237
LASFDE279:
	.long	LASFDE279-EH_frame1
	.quad	LFB2375-.
	.set L$set$2238,LFE2375-LFB2375
	.quad L$set$2238
	.byte	0x8
	.quad	0x0
	.byte	0x4
	.set L$set$2239,LCFI352-LFB2375
	.long L$set$2239
	.byte	0xe
	.byte	0x10
	.byte	0x86
	.byte	0x2
	.byte	0x4
	.set L$set$2240,LCFI353-LCFI352
	.long L$set$2240
	.byte	0xd
	.byte	0x6
	.align 3
LEFDE279:
.globl __ZNSt8_Rb_treeI6EValueSt4pairIKS0_PK4CityESt10_Select1stIS6_ESt4lessIS0_ESaIS6_EE13_Rb_tree_implISA_Lb0EEC1ERKSaISt13_Rb_tree_nodeIS6_EERKSA_.eh
	.weak_definition __ZNSt8_Rb_treeI6EValueSt4pairIKS0_PK4CityESt10_Select1stIS6_ESt4lessIS0_ESaIS6_EE13_Rb_tree_implISA_Lb0EEC1ERKSaISt13_Rb_tree_nodeIS6_EERKSA_.eh
__ZNSt8_Rb_treeI6EValueSt4pairIKS0_PK4CityESt10_Select1stIS6_ESt4lessIS0_ESaIS6_EE13_Rb_tree_implISA_Lb0EEC1ERKSaISt13_Rb_tree_nodeIS6_EERKSA_.eh:
LSFDE281:
	.set L$set$2241,LEFDE281-LASFDE281
	.long L$set$2241
LASFDE281:
	.long	LASFDE281-EH_frame1
	.quad	LFB2318-.
	.set L$set$2242,LFE2318-LFB2318
	.quad L$set$2242
	.byte	0x8
	.quad	0x0
	.byte	0x4
	.set L$set$2243,LCFI355-LFB2318
	.long L$set$2243
	.byte	0xe
	.byte	0x10
	.byte	0x86
	.byte	0x2
	.byte	0x4
	.set L$set$2244,LCFI356-LCFI355
	.long L$set$2244
	.byte	0xd
	.byte	0x6
	.align 3
LEFDE281:
.globl __ZNSt8_Rb_treeI6EValueSt4pairIKS0_PK4CityESt10_Select1stIS6_ESt4lessIS0_ESaIS6_EEC1ERKSA_RKSB_.eh
	.weak_definition __ZNSt8_Rb_treeI6EValueSt4pairIKS0_PK4CityESt10_Select1stIS6_ESt4lessIS0_ESaIS6_EEC1ERKSA_RKSB_.eh
__ZNSt8_Rb_treeI6EValueSt4pairIKS0_PK4CityESt10_Select1stIS6_ESt4lessIS0_ESaIS6_EEC1ERKSA_RKSB_.eh:
LSFDE283:
	.set L$set$2245,LEFDE283-LASFDE283
	.long L$set$2245
LASFDE283:
	.long	LASFDE283-EH_frame1
	.quad	LFB2198-.
	.set L$set$2246,LFE2198-LFB2198
	.quad L$set$2246
	.byte	0x8
	.quad	0x0
	.byte	0x4
	.set L$set$2247,LCFI358-LFB2198
	.long L$set$2247
	.byte	0xe
	.byte	0x10
	.byte	0x86
	.byte	0x2
	.byte	0x4
	.set L$set$2248,LCFI359-LCFI358
	.long L$set$2248
	.byte	0xd
	.byte	0x6
	.align 3
LEFDE283:
.globl __ZNSt8multimapI6EValuePK4CitySt4lessIS0_ESaISt4pairIKS0_S3_EEEC1Ev.eh
	.weak_definition __ZNSt8multimapI6EValuePK4CitySt4lessIS0_ESaISt4pairIKS0_S3_EEEC1Ev.eh
__ZNSt8multimapI6EValuePK4CitySt4lessIS0_ESaISt4pairIKS0_S3_EEEC1Ev.eh:
LSFDE285:
	.set L$set$2249,LEFDE285-LASFDE285
	.long L$set$2249
LASFDE285:
	.long	LASFDE285-EH_frame1
	.quad	LFB2100-.
	.set L$set$2250,LFE2100-LFB2100
	.quad L$set$2250
	.byte	0x8
	.quad	0x0
	.byte	0x4
	.set L$set$2251,LCFI361-LFB2100
	.long L$set$2251
	.byte	0xe
	.byte	0x10
	.byte	0x86
	.byte	0x2
	.byte	0x4
	.set L$set$2252,LCFI362-LCFI361
	.long L$set$2252
	.byte	0xd
	.byte	0x6
	.align 3
LEFDE285:
.globl __ZNKSt8_Rb_treeI6EValueSt4pairIKS0_PK4CityESt10_Select1stIS6_ESt4lessIS0_ESaIS6_EE21_M_get_Node_allocatorEv.eh
	.weak_definition __ZNKSt8_Rb_treeI6EValueSt4pairIKS0_PK4CityESt10_Select1stIS6_ESt4lessIS0_ESaIS6_EE21_M_get_Node_allocatorEv.eh
__ZNKSt8_Rb_treeI6EValueSt4pairIKS0_PK4CityESt10_Select1stIS6_ESt4lessIS0_ESaIS6_EE21_M_get_Node_allocatorEv.eh:
LSFDE287:
	.set L$set$2253,LEFDE287-LASFDE287
	.long L$set$2253
LASFDE287:
	.long	LASFDE287-EH_frame1
	.quad	LFB2417-.
	.set L$set$2254,LFE2417-LFB2417
	.quad L$set$2254
	.byte	0x8
	.quad	0x0
	.byte	0x4
	.set L$set$2255,LCFI364-LFB2417
	.long L$set$2255
	.byte	0xe
	.byte	0x10
	.byte	0x86
	.byte	0x2
	.byte	0x4
	.set L$set$2256,LCFI365-LCFI364
	.long L$set$2256
	.byte	0xd
	.byte	0x6
	.align 3
LEFDE287:
.globl __ZNSaISt4pairIK6EValuePK4CityEEC1ISt13_Rb_tree_nodeIS5_EEERKSaIT_E.eh
	.weak_definition __ZNSaISt4pairIK6EValuePK4CityEEC1ISt13_Rb_tree_nodeIS5_EEERKSaIT_E.eh
__ZNSaISt4pairIK6EValuePK4CityEEC1ISt13_Rb_tree_nodeIS5_EEERKSaIT_E.eh:
LSFDE289:
	.set L$set$2257,LEFDE289-LASFDE289
	.long L$set$2257
LASFDE289:
	.long	LASFDE289-EH_frame1
	.quad	LFB2420-.
	.set L$set$2258,LFE2420-LFB2420
	.quad L$set$2258
	.byte	0x8
	.quad	0x0
	.byte	0x4
	.set L$set$2259,LCFI366-LFB2420
	.long L$set$2259
	.byte	0xe
	.byte	0x10
	.byte	0x86
	.byte	0x2
	.byte	0x4
	.set L$set$2260,LCFI367-LCFI366
	.long L$set$2260
	.byte	0xd
	.byte	0x6
	.align 3
LEFDE289:
.globl __ZNKSt8_Rb_treeI6EValueSt4pairIKS0_PK4CityESt10_Select1stIS6_ESt4lessIS0_ESaIS6_EE13get_allocatorEv.eh
	.weak_definition __ZNKSt8_Rb_treeI6EValueSt4pairIKS0_PK4CityESt10_Select1stIS6_ESt4lessIS0_ESaIS6_EE13get_allocatorEv.eh
__ZNKSt8_Rb_treeI6EValueSt4pairIKS0_PK4CityESt10_Select1stIS6_ESt4lessIS0_ESaIS6_EE13get_allocatorEv.eh:
LSFDE291:
	.set L$set$2261,LEFDE291-LASFDE291
	.long L$set$2261
LASFDE291:
	.long	LASFDE291-EH_frame1
	.quad	LFB2377-.
	.set L$set$2262,LFE2377-LFB2377
	.quad L$set$2262
	.byte	0x8
	.quad	0x0
	.byte	0x4
	.set L$set$2263,LCFI369-LFB2377
	.long L$set$2263
	.byte	0xe
	.byte	0x10
	.byte	0x86
	.byte	0x2
	.byte	0x4
	.set L$set$2264,LCFI370-LCFI369
	.long L$set$2264
	.byte	0xd
	.byte	0x6
	.byte	0x4
	.set L$set$2265,LCFI373-LCFI370
	.long L$set$2265
	.byte	0x83
	.byte	0x4
	.byte	0x8c
	.byte	0x3
	.align 3
LEFDE291:
.globl __ZNSt8_Rb_treeI6EValueSt4pairIKS0_PK4CityESt10_Select1stIS6_ESt4lessIS0_ESaIS6_EE8_S_valueEPKSt18_Rb_tree_node_base.eh
	.weak_definition __ZNSt8_Rb_treeI6EValueSt4pairIKS0_PK4CityESt10_Select1stIS6_ESt4lessIS0_ESaIS6_EE8_S_valueEPKSt18_Rb_tree_node_base.eh
__ZNSt8_Rb_treeI6EValueSt4pairIKS0_PK4CityESt10_Select1stIS6_ESt4lessIS0_ESaIS6_EE8_S_valueEPKSt18_Rb_tree_node_base.eh:
LSFDE293:
	.set L$set$2266,LEFDE293-LASFDE293
	.long L$set$2266
LASFDE293:
	.long	LASFDE293-EH_frame1
	.quad	LFB2422-.
	.set L$set$2267,LFE2422-LFB2422
	.quad L$set$2267
	.byte	0x8
	.quad	0x0
	.byte	0x4
	.set L$set$2268,LCFI374-LFB2422
	.long L$set$2268
	.byte	0xe
	.byte	0x10
	.byte	0x86
	.byte	0x2
	.byte	0x4
	.set L$set$2269,LCFI375-LCFI374
	.long L$set$2269
	.byte	0xd
	.byte	0x6
	.align 3
LEFDE293:
.globl __ZNSt8_Rb_treeI6EValueSt4pairIKS0_PK4CityESt10_Select1stIS6_ESt4lessIS0_ESaIS6_EE6_S_keyEPKSt18_Rb_tree_node_base.eh
	.weak_definition __ZNSt8_Rb_treeI6EValueSt4pairIKS0_PK4CityESt10_Select1stIS6_ESt4lessIS0_ESaIS6_EE6_S_keyEPKSt18_Rb_tree_node_base.eh
__ZNSt8_Rb_treeI6EValueSt4pairIKS0_PK4CityESt10_Select1stIS6_ESt4lessIS0_ESaIS6_EE6_S_keyEPKSt18_Rb_tree_node_base.eh:
LSFDE295:
	.set L$set$2270,LEFDE295-LASFDE295
	.long L$set$2270
LASFDE295:
	.long	LASFDE295-EH_frame1
	.quad	LFB2384-.
	.set L$set$2271,LFE2384-LFB2384
	.quad L$set$2271
	.byte	0x8
	.quad	0x0
	.byte	0x4
	.set L$set$2272,LCFI376-LFB2384
	.long L$set$2272
	.byte	0xe
	.byte	0x10
	.byte	0x86
	.byte	0x2
	.byte	0x4
	.set L$set$2273,LCFI377-LCFI376
	.long L$set$2273
	.byte	0xd
	.byte	0x6
	.byte	0x4
	.set L$set$2274,LCFI379-LCFI377
	.long L$set$2274
	.byte	0x83
	.byte	0x3
	.align 3
LEFDE295:
.globl __ZN9__gnu_cxx13new_allocatorISt4pairIK6EValuePK4CityEE9constructEPS7_RKS7_.eh
	.weak_definition __ZN9__gnu_cxx13new_allocatorISt4pairIK6EValuePK4CityEE9constructEPS7_RKS7_.eh
__ZN9__gnu_cxx13new_allocatorISt4pairIK6EValuePK4CityEE9constructEPS7_RKS7_.eh:
LSFDE297:
	.set L$set$2275,LEFDE297-LASFDE297
	.long L$set$2275
LASFDE297:
	.long	LASFDE297-EH_frame1
	.quad	LFB2424-.
	.set L$set$2276,LFE2424-LFB2424
	.quad L$set$2276
	.byte	0x8
	.quad	0x0
	.byte	0x4
	.set L$set$2277,LCFI380-LFB2424
	.long L$set$2277
	.byte	0xe
	.byte	0x10
	.byte	0x86
	.byte	0x2
	.byte	0x4
	.set L$set$2278,LCFI381-LCFI380
	.long L$set$2278
	.byte	0xd
	.byte	0x6
	.align 3
LEFDE297:
.globl __ZSt19__iterator_categoryIN9__gnu_cxx17__normal_iteratorIPPK10ConnectionSt6vectorIS4_SaIS4_EEEEENSt15iterator_traitsIT_E17iterator_categoryERKSB_.eh
	.weak_definition __ZSt19__iterator_categoryIN9__gnu_cxx17__normal_iteratorIPPK10ConnectionSt6vectorIS4_SaIS4_EEEEENSt15iterator_traitsIT_E17iterator_categoryERKSB_.eh
__ZSt19__iterator_categoryIN9__gnu_cxx17__normal_iteratorIPPK10ConnectionSt6vectorIS4_SaIS4_EEEEENSt15iterator_traitsIT_E17iterator_categoryERKSB_.eh:
LSFDE299:
	.set L$set$2279,LEFDE299-LASFDE299
	.long L$set$2279
LASFDE299:
	.long	LASFDE299-EH_frame1
	.quad	LFB2431-.
	.set L$set$2280,LFE2431-LFB2431
	.quad L$set$2280
	.byte	0x8
	.quad	0x0
	.byte	0x4
	.set L$set$2281,LCFI383-LFB2431
	.long L$set$2281
	.byte	0xe
	.byte	0x10
	.byte	0x86
	.byte	0x2
	.byte	0x4
	.set L$set$2282,LCFI384-LCFI383
	.long L$set$2282
	.byte	0xd
	.byte	0x6
	.align 3
LEFDE299:
.globl __ZSt10__distanceIN9__gnu_cxx17__normal_iteratorIPPK10ConnectionSt6vectorIS4_SaIS4_EEEEENSt15iterator_traitsIT_E15difference_typeESB_SB_St26random_access_iterator_tag.eh
	.weak_definition __ZSt10__distanceIN9__gnu_cxx17__normal_iteratorIPPK10ConnectionSt6vectorIS4_SaIS4_EEEEENSt15iterator_traitsIT_E15difference_typeESB_SB_St26random_access_iterator_tag.eh
__ZSt10__distanceIN9__gnu_cxx17__normal_iteratorIPPK10ConnectionSt6vectorIS4_SaIS4_EEEEENSt15iterator_traitsIT_E15difference_typeESB_SB_St26random_access_iterator_tag.eh:
LSFDE301:
	.set L$set$2283,LEFDE301-LASFDE301
	.long L$set$2283
LASFDE301:
	.long	LASFDE301-EH_frame1
	.quad	LFB2432-.
	.set L$set$2284,LFE2432-LFB2432
	.quad L$set$2284
	.byte	0x8
	.quad	0x0
	.byte	0x4
	.set L$set$2285,LCFI386-LFB2432
	.long L$set$2285
	.byte	0xe
	.byte	0x10
	.byte	0x86
	.byte	0x2
	.byte	0x4
	.set L$set$2286,LCFI387-LCFI386
	.long L$set$2286
	.byte	0xd
	.byte	0x6
	.align 3
LEFDE301:
.globl __ZSt8distanceIN9__gnu_cxx17__normal_iteratorIPPK10ConnectionSt6vectorIS4_SaIS4_EEEEENSt15iterator_traitsIT_E15difference_typeESB_SB_.eh
	.weak_definition __ZSt8distanceIN9__gnu_cxx17__normal_iteratorIPPK10ConnectionSt6vectorIS4_SaIS4_EEEEENSt15iterator_traitsIT_E15difference_typeESB_SB_.eh
__ZSt8distanceIN9__gnu_cxx17__normal_iteratorIPPK10ConnectionSt6vectorIS4_SaIS4_EEEEENSt15iterator_traitsIT_E15difference_typeESB_SB_.eh:
LSFDE303:
	.set L$set$2287,LEFDE303-LASFDE303
	.long L$set$2287
LASFDE303:
	.long	LASFDE303-EH_frame1
	.quad	LFB2408-.
	.set L$set$2288,LFE2408-LFB2408
	.quad L$set$2288
	.byte	0x8
	.quad	0x0
	.byte	0x4
	.set L$set$2289,LCFI389-LFB2408
	.long L$set$2289
	.byte	0xe
	.byte	0x10
	.byte	0x86
	.byte	0x2
	.byte	0x4
	.set L$set$2290,LCFI390-LCFI389
	.long L$set$2290
	.byte	0xd
	.byte	0x6
	.align 3
LEFDE303:
.globl __ZN9__gnu_cxx17__normal_iteratorIPPK10ConnectionSt6vectorIS3_SaIS3_EEEpLERKl.eh
	.weak_definition __ZN9__gnu_cxx17__normal_iteratorIPPK10ConnectionSt6vectorIS3_SaIS3_EEEpLERKl.eh
__ZN9__gnu_cxx17__normal_iteratorIPPK10ConnectionSt6vectorIS3_SaIS3_EEEpLERKl.eh:
LSFDE305:
	.set L$set$2291,LEFDE305-LASFDE305
	.long L$set$2291
LASFDE305:
	.long	LASFDE305-EH_frame1
	.quad	LFB2441-.
	.set L$set$2292,LFE2441-LFB2441
	.quad L$set$2292
	.byte	0x8
	.quad	0x0
	.byte	0x4
	.set L$set$2293,LCFI392-LFB2441
	.long L$set$2293
	.byte	0xe
	.byte	0x10
	.byte	0x86
	.byte	0x2
	.byte	0x4
	.set L$set$2294,LCFI393-LCFI392
	.long L$set$2294
	.byte	0xd
	.byte	0x6
	.align 3
LEFDE305:
.globl __ZSt9__advanceIN9__gnu_cxx17__normal_iteratorIPPK10ConnectionSt6vectorIS4_SaIS4_EEEElEvRT_T0_St26random_access_iterator_tag.eh
	.weak_definition __ZSt9__advanceIN9__gnu_cxx17__normal_iteratorIPPK10ConnectionSt6vectorIS4_SaIS4_EEEElEvRT_T0_St26random_access_iterator_tag.eh
__ZSt9__advanceIN9__gnu_cxx17__normal_iteratorIPPK10ConnectionSt6vectorIS4_SaIS4_EEEElEvRT_T0_St26random_access_iterator_tag.eh:
LSFDE307:
	.set L$set$2295,LEFDE307-LASFDE307
	.long L$set$2295
LASFDE307:
	.long	LASFDE307-EH_frame1
	.quad	LFB2434-.
	.set L$set$2296,LFE2434-LFB2434
	.quad L$set$2296
	.byte	0x8
	.quad	0x0
	.byte	0x4
	.set L$set$2297,LCFI394-LFB2434
	.long L$set$2297
	.byte	0xe
	.byte	0x10
	.byte	0x86
	.byte	0x2
	.byte	0x4
	.set L$set$2298,LCFI395-LCFI394
	.long L$set$2298
	.byte	0xd
	.byte	0x6
	.align 3
LEFDE307:
.globl __ZSt7advanceIN9__gnu_cxx17__normal_iteratorIPPK10ConnectionSt6vectorIS4_SaIS4_EEEEmEvRT_T0_.eh
	.weak_definition __ZSt7advanceIN9__gnu_cxx17__normal_iteratorIPPK10ConnectionSt6vectorIS4_SaIS4_EEEEmEvRT_T0_.eh
__ZSt7advanceIN9__gnu_cxx17__normal_iteratorIPPK10ConnectionSt6vectorIS4_SaIS4_EEEEmEvRT_T0_.eh:
LSFDE309:
	.set L$set$2299,LEFDE309-LASFDE309
	.long L$set$2299
LASFDE309:
	.long	LASFDE309-EH_frame1
	.quad	LFB2411-.
	.set L$set$2300,LFE2411-LFB2411
	.quad L$set$2300
	.byte	0x8
	.quad	0x0
	.byte	0x4
	.set L$set$2301,LCFI397-LFB2411
	.long L$set$2301
	.byte	0xe
	.byte	0x10
	.byte	0x86
	.byte	0x2
	.byte	0x4
	.set L$set$2302,LCFI398-LCFI397
	.long L$set$2302
	.byte	0xd
	.byte	0x6
	.align 3
LEFDE309:
.globl __ZNK9__gnu_cxx13new_allocatorISt13_Rb_tree_nodeISt4pairIK6EValuePK4CityEEE8max_sizeEv.eh
	.weak_definition __ZNK9__gnu_cxx13new_allocatorISt13_Rb_tree_nodeISt4pairIK6EValuePK4CityEEE8max_sizeEv.eh
__ZNK9__gnu_cxx13new_allocatorISt13_Rb_tree_nodeISt4pairIK6EValuePK4CityEEE8max_sizeEv.eh:
LSFDE311:
	.set L$set$2303,LEFDE311-LASFDE311
	.long L$set$2303
LASFDE311:
	.long	LASFDE311-EH_frame1
	.quad	LFB2443-.
	.set L$set$2304,LFE2443-LFB2443
	.quad L$set$2304
	.byte	0x8
	.quad	0x0
	.byte	0x4
	.set L$set$2305,LCFI400-LFB2443
	.long L$set$2305
	.byte	0xe
	.byte	0x10
	.byte	0x86
	.byte	0x2
	.byte	0x4
	.set L$set$2306,LCFI401-LCFI400
	.long L$set$2306
	.byte	0xd
	.byte	0x6
	.align 3
LEFDE311:
___tcf_1.eh:
LSFDE313:
	.set L$set$2307,LEFDE313-LASFDE313
	.long L$set$2307
LASFDE313:
	.long	LASFDE313-EH_frame1
	.quad	LFB2449-.
	.set L$set$2308,LFE2449-LFB2449
	.quad L$set$2308
	.byte	0x8
	.quad	0x0
	.byte	0x4
	.set L$set$2309,LCFI402-LFB2449
	.long L$set$2309
	.byte	0xe
	.byte	0x10
	.byte	0x86
	.byte	0x2
	.byte	0x4
	.set L$set$2310,LCFI403-LCFI402
	.long L$set$2310
	.byte	0xd
	.byte	0x6
	.align 3
LEFDE313:
__Z41__static_initialization_and_destruction_0ii.eh:
LSFDE315:
	.set L$set$2311,LEFDE315-LASFDE315
	.long L$set$2311
LASFDE315:
	.long	LASFDE315-EH_frame1
	.quad	LFB2447-.
	.set L$set$2312,LFE2447-LFB2447
	.quad L$set$2312
	.byte	0x8
	.quad	LLSDA2447-.
	.byte	0x4
	.set L$set$2313,LCFI405-LFB2447
	.long L$set$2313
	.byte	0xe
	.byte	0x10
	.byte	0x86
	.byte	0x2
	.byte	0x4
	.set L$set$2314,LCFI406-LCFI405
	.long L$set$2314
	.byte	0xd
	.byte	0x6
	.byte	0x4
	.set L$set$2315,LCFI408-LCFI406
	.long L$set$2315
	.byte	0x83
	.byte	0x3
	.align 3
LEFDE315:
__GLOBAL__I__ZN7DavidAIC2E11PLAYERCOLOR.eh:
LSFDE317:
	.set L$set$2316,LEFDE317-LASFDE317
	.long L$set$2316
LASFDE317:
	.long	LASFDE317-EH_frame1
	.quad	LFB2450-.
	.set L$set$2317,LFE2450-LFB2450
	.quad L$set$2317
	.byte	0x8
	.quad	0x0
	.byte	0x4
	.set L$set$2318,LCFI409-LFB2450
	.long L$set$2318
	.byte	0xe
	.byte	0x10
	.byte	0x86
	.byte	0x2
	.byte	0x4
	.set L$set$2319,LCFI410-LCFI409
	.long L$set$2319
	.byte	0xd
	.byte	0x6
	.align 3
LEFDE317:
___tcf_0.eh:
LSFDE319:
	.set L$set$2320,LEFDE319-LASFDE319
	.long L$set$2320
LASFDE319:
	.long	LASFDE319-EH_frame1
	.quad	LFB2448-.
	.set L$set$2321,LFE2448-LFB2448
	.quad L$set$2321
	.byte	0x8
	.quad	0x0
	.byte	0x4
	.set L$set$2322,LCFI411-LFB2448
	.long L$set$2322
	.byte	0xe
	.byte	0x10
	.byte	0x86
	.byte	0x2
	.byte	0x4
	.set L$set$2323,LCFI412-LCFI411
	.long L$set$2323
	.byte	0xd
	.byte	0x6
	.align 3
LEFDE319:
.globl __ZN9__gnu_cxx13new_allocatorIPK10ConnectionE10deallocateEPS3_m.eh
	.weak_definition __ZN9__gnu_cxx13new_allocatorIPK10ConnectionE10deallocateEPS3_m.eh
__ZN9__gnu_cxx13new_allocatorIPK10ConnectionE10deallocateEPS3_m.eh:
LSFDE321:
	.set L$set$2324,LEFDE321-LASFDE321
	.long L$set$2324
LASFDE321:
	.long	LASFDE321-EH_frame1
	.quad	LFB2342-.
	.set L$set$2325,LFE2342-LFB2342
	.quad L$set$2325
	.byte	0x8
	.quad	0x0
	.byte	0x4
	.set L$set$2326,LCFI414-LFB2342
	.long L$set$2326
	.byte	0xe
	.byte	0x10
	.byte	0x86
	.byte	0x2
	.byte	0x4
	.set L$set$2327,LCFI415-LCFI414
	.long L$set$2327
	.byte	0xd
	.byte	0x6
	.align 3
LEFDE321:
.globl __ZNSt12_Vector_baseIPK10ConnectionSaIS2_EE13_M_deallocateEPS2_m.eh
	.weak_definition __ZNSt12_Vector_baseIPK10ConnectionSaIS2_EE13_M_deallocateEPS2_m.eh
__ZNSt12_Vector_baseIPK10ConnectionSaIS2_EE13_M_deallocateEPS2_m.eh:
LSFDE323:
	.set L$set$2328,LEFDE323-LASFDE323
	.long L$set$2328
LASFDE323:
	.long	LASFDE323-EH_frame1
	.quad	LFB2231-.
	.set L$set$2329,LFE2231-LFB2231
	.quad L$set$2329
	.byte	0x8
	.quad	0x0
	.byte	0x4
	.set L$set$2330,LCFI417-LFB2231
	.long L$set$2330
	.byte	0xe
	.byte	0x10
	.byte	0x86
	.byte	0x2
	.byte	0x4
	.set L$set$2331,LCFI418-LCFI417
	.long L$set$2331
	.byte	0xd
	.byte	0x6
	.align 3
LEFDE323:
.globl __ZNSt12_Vector_baseIPK10ConnectionSaIS2_EED2Ev.eh
	.weak_definition __ZNSt12_Vector_baseIPK10ConnectionSaIS2_EED2Ev.eh
__ZNSt12_Vector_baseIPK10ConnectionSaIS2_EED2Ev.eh:
LSFDE325:
	.set L$set$2332,LEFDE325-LASFDE325
	.long L$set$2332
LASFDE325:
	.long	LASFDE325-EH_frame1
	.quad	LFB2217-.
	.set L$set$2333,LFE2217-LFB2217
	.quad L$set$2333
	.byte	0x8
	.quad	0x0
	.byte	0x4
	.set L$set$2334,LCFI420-LFB2217
	.long L$set$2334
	.byte	0xe
	.byte	0x10
	.byte	0x86
	.byte	0x2
	.byte	0x4
	.set L$set$2335,LCFI421-LCFI420
	.long L$set$2335
	.byte	0xd
	.byte	0x6
	.align 3
LEFDE325:
.globl __ZNSt6vectorIPK10ConnectionSaIS2_EED1Ev.eh
	.weak_definition __ZNSt6vectorIPK10ConnectionSaIS2_EED1Ev.eh
__ZNSt6vectorIPK10ConnectionSaIS2_EED1Ev.eh:
LSFDE327:
	.set L$set$2336,LEFDE327-LASFDE327
	.long L$set$2336
LASFDE327:
	.long	LASFDE327-EH_frame1
	.quad	LFB2120-.
	.set L$set$2337,LFE2120-LFB2120
	.quad L$set$2337
	.byte	0x8
	.quad	0x0
	.byte	0x4
	.set L$set$2338,LCFI423-LFB2120
	.long L$set$2338
	.byte	0xe
	.byte	0x10
	.byte	0x86
	.byte	0x2
	.byte	0x4
	.set L$set$2339,LCFI424-LCFI423
	.long L$set$2339
	.byte	0xd
	.byte	0x6
	.align 3
LEFDE327:
.globl __ZN9__gnu_cxx13new_allocatorISt13_Rb_tree_nodeISt4pairIK6EValuePK4CityEEE10deallocateEPS9_m.eh
	.weak_definition __ZN9__gnu_cxx13new_allocatorISt13_Rb_tree_nodeISt4pairIK6EValuePK4CityEEE10deallocateEPS9_m.eh
__ZN9__gnu_cxx13new_allocatorISt13_Rb_tree_nodeISt4pairIK6EValuePK4CityEEE10deallocateEPS9_m.eh:
LSFDE329:
	.set L$set$2340,LEFDE329-LASFDE329
	.long L$set$2340
LASFDE329:
	.long	LASFDE329-EH_frame1
	.quad	LFB2421-.
	.set L$set$2341,LFE2421-LFB2421
	.quad L$set$2341
	.byte	0x8
	.quad	0x0
	.byte	0x4
	.set L$set$2342,LCFI426-LFB2421
	.long L$set$2342
	.byte	0xe
	.byte	0x10
	.byte	0x86
	.byte	0x2
	.byte	0x4
	.set L$set$2343,LCFI427-LCFI426
	.long L$set$2343
	.byte	0xd
	.byte	0x6
	.align 3
LEFDE329:
.globl __ZNSt8_Rb_treeI6EValueSt4pairIKS0_PK4CityESt10_Select1stIS6_ESt4lessIS0_ESaIS6_EE11_M_put_nodeEPSt13_Rb_tree_nodeIS6_E.eh
	.weak_definition __ZNSt8_Rb_treeI6EValueSt4pairIKS0_PK4CityESt10_Select1stIS6_ESt4lessIS0_ESaIS6_EE11_M_put_nodeEPSt13_Rb_tree_nodeIS6_E.eh
__ZNSt8_Rb_treeI6EValueSt4pairIKS0_PK4CityESt10_Select1stIS6_ESt4lessIS0_ESaIS6_EE11_M_put_nodeEPSt13_Rb_tree_nodeIS6_E.eh:
LSFDE331:
	.set L$set$2344,LEFDE331-LASFDE331
	.long L$set$2344
LASFDE331:
	.long	LASFDE331-EH_frame1
	.quad	LFB2382-.
	.set L$set$2345,LFE2382-LFB2382
	.quad L$set$2345
	.byte	0x8
	.quad	0x0
	.byte	0x4
	.set L$set$2346,LCFI429-LFB2382
	.long L$set$2346
	.byte	0xe
	.byte	0x10
	.byte	0x86
	.byte	0x2
	.byte	0x4
	.set L$set$2347,LCFI430-LCFI429
	.long L$set$2347
	.byte	0xd
	.byte	0x6
	.align 3
LEFDE331:
.globl __ZNSt8_Rb_treeI6EValueSt4pairIKS0_PK4CityESt10_Select1stIS6_ESt4lessIS0_ESaIS6_EE15_M_destroy_nodeEPSt13_Rb_tree_nodeIS6_E.eh
	.weak_definition __ZNSt8_Rb_treeI6EValueSt4pairIKS0_PK4CityESt10_Select1stIS6_ESt4lessIS0_ESaIS6_EE15_M_destroy_nodeEPSt13_Rb_tree_nodeIS6_E.eh
__ZNSt8_Rb_treeI6EValueSt4pairIKS0_PK4CityESt10_Select1stIS6_ESt4lessIS0_ESaIS6_EE15_M_destroy_nodeEPSt13_Rb_tree_nodeIS6_E.eh:
LSFDE333:
	.set L$set$2348,LEFDE333-LASFDE333
	.long L$set$2348
LASFDE333:
	.long	LASFDE333-EH_frame1
	.quad	LFB2324-.
	.set L$set$2349,LFE2324-LFB2324
	.quad L$set$2349
	.byte	0x8
	.quad	0x0
	.byte	0x4
	.set L$set$2350,LCFI432-LFB2324
	.long L$set$2350
	.byte	0xe
	.byte	0x10
	.byte	0x86
	.byte	0x2
	.byte	0x4
	.set L$set$2351,LCFI433-LCFI432
	.long L$set$2351
	.byte	0xd
	.byte	0x6
	.byte	0x4
	.set L$set$2352,LCFI435-LCFI433
	.long L$set$2352
	.byte	0x83
	.byte	0x3
	.align 3
LEFDE333:
.globl __ZNSt8_Rb_treeI6EValueSt4pairIKS0_PK4CityESt10_Select1stIS6_ESt4lessIS0_ESaIS6_EE8_M_eraseEPSt13_Rb_tree_nodeIS6_E.eh
	.weak_definition __ZNSt8_Rb_treeI6EValueSt4pairIKS0_PK4CityESt10_Select1stIS6_ESt4lessIS0_ESaIS6_EE8_M_eraseEPSt13_Rb_tree_nodeIS6_E.eh
__ZNSt8_Rb_treeI6EValueSt4pairIKS0_PK4CityESt10_Select1stIS6_ESt4lessIS0_ESaIS6_EE8_M_eraseEPSt13_Rb_tree_nodeIS6_E.eh:
LSFDE335:
	.set L$set$2353,LEFDE335-LASFDE335
	.long L$set$2353
LASFDE335:
	.long	LASFDE335-EH_frame1
	.quad	LFB2202-.
	.set L$set$2354,LFE2202-LFB2202
	.quad L$set$2354
	.byte	0x8
	.quad	0x0
	.byte	0x4
	.set L$set$2355,LCFI436-LFB2202
	.long L$set$2355
	.byte	0xe
	.byte	0x10
	.byte	0x86
	.byte	0x2
	.byte	0x4
	.set L$set$2356,LCFI437-LCFI436
	.long L$set$2356
	.byte	0xd
	.byte	0x6
	.align 3
LEFDE335:
.globl __ZNSt8_Rb_treeI6EValueSt4pairIKS0_PK4CityESt10_Select1stIS6_ESt4lessIS0_ESaIS6_EE5clearEv.eh
	.weak_definition __ZNSt8_Rb_treeI6EValueSt4pairIKS0_PK4CityESt10_Select1stIS6_ESt4lessIS0_ESaIS6_EE5clearEv.eh
__ZNSt8_Rb_treeI6EValueSt4pairIKS0_PK4CityESt10_Select1stIS6_ESt4lessIS0_ESaIS6_EE5clearEv.eh:
LSFDE337:
	.set L$set$2357,LEFDE337-LASFDE337
	.long L$set$2357
LASFDE337:
	.long	LASFDE337-EH_frame1
	.quad	LFB2286-.
	.set L$set$2358,LFE2286-LFB2286
	.quad L$set$2358
	.byte	0x8
	.quad	0x0
	.byte	0x4
	.set L$set$2359,LCFI439-LFB2286
	.long L$set$2359
	.byte	0xe
	.byte	0x10
	.byte	0x86
	.byte	0x2
	.byte	0x4
	.set L$set$2360,LCFI440-LCFI439
	.long L$set$2360
	.byte	0xd
	.byte	0x6
	.byte	0x4
	.set L$set$2361,LCFI442-LCFI440
	.long L$set$2361
	.byte	0x83
	.byte	0x3
	.align 3
LEFDE337:
.globl __ZNSt8multimapI6EValuePK4CitySt4lessIS0_ESaISt4pairIKS0_S3_EEE5clearEv.eh
	.weak_definition __ZNSt8multimapI6EValuePK4CitySt4lessIS0_ESaISt4pairIKS0_S3_EEE5clearEv.eh
__ZNSt8multimapI6EValuePK4CitySt4lessIS0_ESaISt4pairIKS0_S3_EEE5clearEv.eh:
LSFDE339:
	.set L$set$2362,LEFDE339-LASFDE339
	.long L$set$2362
LASFDE339:
	.long	LASFDE339-EH_frame1
	.quad	LFB2168-.
	.set L$set$2363,LFE2168-LFB2168
	.quad L$set$2363
	.byte	0x8
	.quad	0x0
	.byte	0x4
	.set L$set$2364,LCFI443-LFB2168
	.long L$set$2364
	.byte	0xe
	.byte	0x10
	.byte	0x86
	.byte	0x2
	.byte	0x4
	.set L$set$2365,LCFI444-LCFI443
	.long L$set$2365
	.byte	0xd
	.byte	0x6
	.align 3
LEFDE339:
.globl __ZNSt8_Rb_treeI6EValueSt4pairIKS0_PK4CityESt10_Select1stIS6_ESt4lessIS0_ESaIS6_EED1Ev.eh
	.weak_definition __ZNSt8_Rb_treeI6EValueSt4pairIKS0_PK4CityESt10_Select1stIS6_ESt4lessIS0_ESaIS6_EED1Ev.eh
__ZNSt8_Rb_treeI6EValueSt4pairIKS0_PK4CityESt10_Select1stIS6_ESt4lessIS0_ESaIS6_EED1Ev.eh:
LSFDE341:
	.set L$set$2366,LEFDE341-LASFDE341
	.long L$set$2366
LASFDE341:
	.long	LASFDE341-EH_frame1
	.quad	LFB2106-.
	.set L$set$2367,LFE2106-LFB2106
	.quad L$set$2367
	.byte	0x8
	.quad	LLSDA2106-.
	.byte	0x4
	.set L$set$2368,LCFI446-LFB2106
	.long L$set$2368
	.byte	0xe
	.byte	0x10
	.byte	0x86
	.byte	0x2
	.byte	0x4
	.set L$set$2369,LCFI447-LCFI446
	.long L$set$2369
	.byte	0xd
	.byte	0x6
	.byte	0x4
	.set L$set$2370,LCFI449-LCFI447
	.long L$set$2370
	.byte	0x83
	.byte	0x3
	.align 3
LEFDE341:
.globl __ZNSt8multimapI6EValuePK4CitySt4lessIS0_ESaISt4pairIKS0_S3_EEED1Ev.eh
	.weak_definition __ZNSt8multimapI6EValuePK4CitySt4lessIS0_ESaISt4pairIKS0_S3_EEED1Ev.eh
__ZNSt8multimapI6EValuePK4CitySt4lessIS0_ESaISt4pairIKS0_S3_EEED1Ev.eh:
LSFDE343:
	.set L$set$2371,LEFDE343-LASFDE343
	.long L$set$2371
LASFDE343:
	.long	LASFDE343-EH_frame1
	.quad	LFB2061-.
	.set L$set$2372,LFE2061-LFB2061
	.quad L$set$2372
	.byte	0x8
	.quad	0x0
	.byte	0x4
	.set L$set$2373,LCFI450-LFB2061
	.long L$set$2373
	.byte	0xe
	.byte	0x10
	.byte	0x86
	.byte	0x2
	.byte	0x4
	.set L$set$2374,LCFI451-LCFI450
	.long L$set$2374
	.byte	0xd
	.byte	0x6
	.align 3
LEFDE343:
.globl __ZN9__gnu_cxx13new_allocatorIPK10CoordinateE10deallocateEPS3_m.eh
	.weak_definition __ZN9__gnu_cxx13new_allocatorIPK10CoordinateE10deallocateEPS3_m.eh
__ZN9__gnu_cxx13new_allocatorIPK10CoordinateE10deallocateEPS3_m.eh:
LSFDE345:
	.set L$set$2375,LEFDE345-LASFDE345
	.long L$set$2375
LASFDE345:
	.long	LASFDE345-EH_frame1
	.quad	LFB2358-.
	.set L$set$2376,LFE2358-LFB2358
	.quad L$set$2376
	.byte	0x8
	.quad	0x0
	.byte	0x4
	.set L$set$2377,LCFI453-LFB2358
	.long L$set$2377
	.byte	0xe
	.byte	0x10
	.byte	0x86
	.byte	0x2
	.byte	0x4
	.set L$set$2378,LCFI454-LCFI453
	.long L$set$2378
	.byte	0xd
	.byte	0x6
	.align 3
LEFDE345:
.globl __ZNSt12_Vector_baseIPK10CoordinateSaIS2_EE13_M_deallocateEPS2_m.eh
	.weak_definition __ZNSt12_Vector_baseIPK10CoordinateSaIS2_EE13_M_deallocateEPS2_m.eh
__ZNSt12_Vector_baseIPK10CoordinateSaIS2_EE13_M_deallocateEPS2_m.eh:
LSFDE347:
	.set L$set$2379,LEFDE347-LASFDE347
	.long L$set$2379
LASFDE347:
	.long	LASFDE347-EH_frame1
	.quad	LFB2266-.
	.set L$set$2380,LFE2266-LFB2266
	.quad L$set$2380
	.byte	0x8
	.quad	0x0
	.byte	0x4
	.set L$set$2381,LCFI456-LFB2266
	.long L$set$2381
	.byte	0xe
	.byte	0x10
	.byte	0x86
	.byte	0x2
	.byte	0x4
	.set L$set$2382,LCFI457-LCFI456
	.long L$set$2382
	.byte	0xd
	.byte	0x6
	.align 3
LEFDE347:
.globl __ZNSt12_Vector_baseIPK10CoordinateSaIS2_EED2Ev.eh
	.weak_definition __ZNSt12_Vector_baseIPK10CoordinateSaIS2_EED2Ev.eh
__ZNSt12_Vector_baseIPK10CoordinateSaIS2_EED2Ev.eh:
LSFDE349:
	.set L$set$2383,LEFDE349-LASFDE349
	.long L$set$2383
LASFDE349:
	.long	LASFDE349-EH_frame1
	.quad	LFB2252-.
	.set L$set$2384,LFE2252-LFB2252
	.quad L$set$2384
	.byte	0x8
	.quad	0x0
	.byte	0x4
	.set L$set$2385,LCFI459-LFB2252
	.long L$set$2385
	.byte	0xe
	.byte	0x10
	.byte	0x86
	.byte	0x2
	.byte	0x4
	.set L$set$2386,LCFI460-LCFI459
	.long L$set$2386
	.byte	0xd
	.byte	0x6
	.align 3
LEFDE349:
.globl __ZNSt6vectorIPK10CoordinateSaIS2_EED1Ev.eh
	.weak_definition __ZNSt6vectorIPK10CoordinateSaIS2_EED1Ev.eh
__ZNSt6vectorIPK10CoordinateSaIS2_EED1Ev.eh:
LSFDE351:
	.set L$set$2387,LEFDE351-LASFDE351
	.long L$set$2387
LASFDE351:
	.long	LASFDE351-EH_frame1
	.quad	LFB2142-.
	.set L$set$2388,LFE2142-LFB2142
	.quad L$set$2388
	.byte	0x8
	.quad	0x0
	.byte	0x4
	.set L$set$2389,LCFI462-LFB2142
	.long L$set$2389
	.byte	0xe
	.byte	0x10
	.byte	0x86
	.byte	0x2
	.byte	0x4
	.set L$set$2390,LCFI463-LCFI462
	.long L$set$2390
	.byte	0xd
	.byte	0x6
	.align 3
LEFDE351:
.globl __ZNSt15__copy_backwardILb1ESt26random_access_iterator_tagE8__copy_bIPK10ConnectionEEPT_PKS6_S9_S7_.eh
	.weak_definition __ZNSt15__copy_backwardILb1ESt26random_access_iterator_tagE8__copy_bIPK10ConnectionEEPT_PKS6_S9_S7_.eh
__ZNSt15__copy_backwardILb1ESt26random_access_iterator_tagE8__copy_bIPK10ConnectionEEPT_PKS6_S9_S7_.eh:
LSFDE353:
	.set L$set$2391,LEFDE353-LASFDE353
	.long L$set$2391
LASFDE353:
	.long	LASFDE353-EH_frame1
	.quad	LFB2440-.
	.set L$set$2392,LFE2440-LFB2440
	.quad L$set$2392
	.byte	0x8
	.quad	0x0
	.byte	0x4
	.set L$set$2393,LCFI465-LFB2440
	.long L$set$2393
	.byte	0xe
	.byte	0x10
	.byte	0x86
	.byte	0x2
	.byte	0x4
	.set L$set$2394,LCFI466-LCFI465
	.long L$set$2394
	.byte	0xd
	.byte	0x6
	.align 3
LEFDE353:
.globl __ZSt19__copy_backward_auxIPPK10ConnectionS3_ET0_T_S5_S4_.eh
	.weak_definition __ZSt19__copy_backward_auxIPPK10ConnectionS3_ET0_T_S5_S4_.eh
__ZSt19__copy_backward_auxIPPK10ConnectionS3_ET0_T_S5_S4_.eh:
LSFDE355:
	.set L$set$2395,LEFDE355-LASFDE355
	.long L$set$2395
LASFDE355:
	.long	LASFDE355-EH_frame1
	.quad	LFB2430-.
	.set L$set$2396,LFE2430-LFB2430
	.quad L$set$2396
	.byte	0x8
	.quad	0x0
	.byte	0x4
	.set L$set$2397,LCFI468-LFB2430
	.long L$set$2397
	.byte	0xe
	.byte	0x10
	.byte	0x86
	.byte	0x2
	.byte	0x4
	.set L$set$2398,LCFI469-LCFI468
	.long L$set$2398
	.byte	0xd
	.byte	0x6
	.align 3
LEFDE355:
.globl __ZNSt22__copy_backward_normalILb0ELb0EE10__copy_b_nIPPK10ConnectionS5_EET0_T_S7_S6_.eh
	.weak_definition __ZNSt22__copy_backward_normalILb0ELb0EE10__copy_b_nIPPK10ConnectionS5_EET0_T_S7_S6_.eh
__ZNSt22__copy_backward_normalILb0ELb0EE10__copy_b_nIPPK10ConnectionS5_EET0_T_S7_S6_.eh:
LSFDE357:
	.set L$set$2399,LEFDE357-LASFDE357
	.long L$set$2399
LASFDE357:
	.long	LASFDE357-EH_frame1
	.quad	LFB2405-.
	.set L$set$2400,LFE2405-LFB2405
	.quad L$set$2400
	.byte	0x8
	.quad	0x0
	.byte	0x4
	.set L$set$2401,LCFI471-LFB2405
	.long L$set$2401
	.byte	0xe
	.byte	0x10
	.byte	0x86
	.byte	0x2
	.byte	0x4
	.set L$set$2402,LCFI472-LCFI471
	.long L$set$2402
	.byte	0xd
	.byte	0x6
	.align 3
LEFDE357:
.globl __ZSt13copy_backwardIPPK10ConnectionS3_ET0_T_S5_S4_.eh
	.weak_definition __ZSt13copy_backwardIPPK10ConnectionS3_ET0_T_S5_S4_.eh
__ZSt13copy_backwardIPPK10ConnectionS3_ET0_T_S5_S4_.eh:
LSFDE359:
	.set L$set$2403,LEFDE359-LASFDE359
	.long L$set$2403
LASFDE359:
	.long	LASFDE359-EH_frame1
	.quad	LFB2364-.
	.set L$set$2404,LFE2364-LFB2364
	.quad L$set$2404
	.byte	0x8
	.quad	0x0
	.byte	0x4
	.set L$set$2405,LCFI474-LFB2364
	.long L$set$2405
	.byte	0xe
	.byte	0x10
	.byte	0x86
	.byte	0x2
	.byte	0x4
	.set L$set$2406,LCFI475-LCFI474
	.long L$set$2406
	.byte	0xd
	.byte	0x6
	.align 3
LEFDE359:
.globl __ZNSt6__copyILb1ESt26random_access_iterator_tagE4copyIPK10ConnectionEEPT_PKS6_S9_S7_.eh
	.weak_definition __ZNSt6__copyILb1ESt26random_access_iterator_tagE4copyIPK10ConnectionEEPT_PKS6_S9_S7_.eh
__ZNSt6__copyILb1ESt26random_access_iterator_tagE4copyIPK10ConnectionEEPT_PKS6_S9_S7_.eh:
LSFDE361:
	.set L$set$2407,LEFDE361-LASFDE361
	.long L$set$2407
LASFDE361:
	.long	LASFDE361-EH_frame1
	.quad	LFB2426-.
	.set L$set$2408,LFE2426-LFB2426
	.quad L$set$2408
	.byte	0x8
	.quad	0x0
	.byte	0x4
	.set L$set$2409,LCFI477-LFB2426
	.long L$set$2409
	.byte	0xe
	.byte	0x10
	.byte	0x86
	.byte	0x2
	.byte	0x4
	.set L$set$2410,LCFI478-LCFI477
	.long L$set$2410
	.byte	0xd
	.byte	0x6
	.align 3
LEFDE361:
.globl __ZSt10__copy_auxIPPK10ConnectionS3_ET0_T_S5_S4_.eh
	.weak_definition __ZSt10__copy_auxIPPK10ConnectionS3_ET0_T_S5_S4_.eh
__ZSt10__copy_auxIPPK10ConnectionS3_ET0_T_S5_S4_.eh:
LSFDE363:
	.set L$set$2411,LEFDE363-LASFDE363
	.long L$set$2411
LASFDE363:
	.long	LASFDE363-EH_frame1
	.quad	LFB2392-.
	.set L$set$2412,LFE2392-LFB2392
	.quad L$set$2412
	.byte	0x8
	.quad	0x0
	.byte	0x4
	.set L$set$2413,LCFI480-LFB2392
	.long L$set$2413
	.byte	0xe
	.byte	0x10
	.byte	0x86
	.byte	0x2
	.byte	0x4
	.set L$set$2414,LCFI481-LCFI480
	.long L$set$2414
	.byte	0xd
	.byte	0x6
	.align 3
LEFDE363:
.globl __ZNSt13__copy_normalILb1ELb1EE8__copy_nIN9__gnu_cxx17__normal_iteratorIPPK10ConnectionSt6vectorIS6_SaIS6_EEEESB_EET0_T_SD_SC_.eh
	.weak_definition __ZNSt13__copy_normalILb1ELb1EE8__copy_nIN9__gnu_cxx17__normal_iteratorIPPK10ConnectionSt6vectorIS6_SaIS6_EEEESB_EET0_T_SD_SC_.eh
__ZNSt13__copy_normalILb1ELb1EE8__copy_nIN9__gnu_cxx17__normal_iteratorIPPK10ConnectionSt6vectorIS6_SaIS6_EEEESB_EET0_T_SD_SC_.eh:
LSFDE365:
	.set L$set$2415,LEFDE365-LASFDE365
	.long L$set$2415
LASFDE365:
	.long	LASFDE365-EH_frame1
	.quad	LFB2433-.
	.set L$set$2416,LFE2433-LFB2433
	.quad L$set$2416
	.byte	0x8
	.quad	0x0
	.byte	0x4
	.set L$set$2417,LCFI483-LFB2433
	.long L$set$2417
	.byte	0xe
	.byte	0x10
	.byte	0x86
	.byte	0x2
	.byte	0x4
	.set L$set$2418,LCFI484-LCFI483
	.long L$set$2418
	.byte	0xd
	.byte	0x6
	.byte	0x4
	.set L$set$2419,LCFI487-LCFI484
	.long L$set$2419
	.byte	0x83
	.byte	0x4
	.byte	0x8c
	.byte	0x3
	.align 3
LEFDE365:
.globl __ZSt4copyIN9__gnu_cxx17__normal_iteratorIPPK10ConnectionSt6vectorIS4_SaIS4_EEEES9_ET0_T_SB_SA_.eh
	.weak_definition __ZSt4copyIN9__gnu_cxx17__normal_iteratorIPPK10ConnectionSt6vectorIS4_SaIS4_EEEES9_ET0_T_SB_SA_.eh
__ZSt4copyIN9__gnu_cxx17__normal_iteratorIPPK10ConnectionSt6vectorIS4_SaIS4_EEEES9_ET0_T_SB_SA_.eh:
LSFDE367:
	.set L$set$2420,LEFDE367-LASFDE367
	.long L$set$2420
LASFDE367:
	.long	LASFDE367-EH_frame1
	.quad	LFB2410-.
	.set L$set$2421,LFE2410-LFB2410
	.quad L$set$2421
	.byte	0x8
	.quad	0x0
	.byte	0x4
	.set L$set$2422,LCFI488-LFB2410
	.long L$set$2422
	.byte	0xe
	.byte	0x10
	.byte	0x86
	.byte	0x2
	.byte	0x4
	.set L$set$2423,LCFI489-LCFI488
	.long L$set$2423
	.byte	0xd
	.byte	0x6
	.align 3
LEFDE367:
.globl __ZNSt13__copy_normalILb1ELb0EE8__copy_nIN9__gnu_cxx17__normal_iteratorIPPK10ConnectionSt6vectorIS6_SaIS6_EEEES7_EET0_T_SD_SC_.eh
	.weak_definition __ZNSt13__copy_normalILb1ELb0EE8__copy_nIN9__gnu_cxx17__normal_iteratorIPPK10ConnectionSt6vectorIS6_SaIS6_EEEES7_EET0_T_SD_SC_.eh
__ZNSt13__copy_normalILb1ELb0EE8__copy_nIN9__gnu_cxx17__normal_iteratorIPPK10ConnectionSt6vectorIS6_SaIS6_EEEES7_EET0_T_SD_SC_.eh:
LSFDE369:
	.set L$set$2424,LEFDE369-LASFDE369
	.long L$set$2424
LASFDE369:
	.long	LASFDE369-EH_frame1
	.quad	LFB2446-.
	.set L$set$2425,LFE2446-LFB2446
	.quad L$set$2425
	.byte	0x8
	.quad	0x0
	.byte	0x4
	.set L$set$2426,LCFI491-LFB2446
	.long L$set$2426
	.byte	0xe
	.byte	0x10
	.byte	0x86
	.byte	0x2
	.byte	0x4
	.set L$set$2427,LCFI492-LCFI491
	.long L$set$2427
	.byte	0xd
	.byte	0x6
	.byte	0x4
	.set L$set$2428,LCFI494-LCFI492
	.long L$set$2428
	.byte	0x83
	.byte	0x3
	.align 3
LEFDE369:
.globl __ZSt4copyIN9__gnu_cxx17__normal_iteratorIPPK10ConnectionSt6vectorIS4_SaIS4_EEEES5_ET0_T_SB_SA_.eh
	.weak_definition __ZSt4copyIN9__gnu_cxx17__normal_iteratorIPPK10ConnectionSt6vectorIS4_SaIS4_EEEES5_ET0_T_SB_SA_.eh
__ZSt4copyIN9__gnu_cxx17__normal_iteratorIPPK10ConnectionSt6vectorIS4_SaIS4_EEEES5_ET0_T_SB_SA_.eh:
LSFDE371:
	.set L$set$2429,LEFDE371-LASFDE371
	.long L$set$2429
LASFDE371:
	.long	LASFDE371-EH_frame1
	.quad	LFB2445-.
	.set L$set$2430,LFE2445-LFB2445
	.quad L$set$2430
	.byte	0x8
	.quad	0x0
	.byte	0x4
	.set L$set$2431,LCFI495-LFB2445
	.long L$set$2431
	.byte	0xe
	.byte	0x10
	.byte	0x86
	.byte	0x2
	.byte	0x4
	.set L$set$2432,LCFI496-LCFI495
	.long L$set$2432
	.byte	0xd
	.byte	0x6
	.align 3
LEFDE371:
.globl __ZSt24__uninitialized_copy_auxIN9__gnu_cxx17__normal_iteratorIPPK10ConnectionSt6vectorIS4_SaIS4_EEEES5_ET0_T_SB_SA_St11__true_type.eh
	.weak_definition __ZSt24__uninitialized_copy_auxIN9__gnu_cxx17__normal_iteratorIPPK10ConnectionSt6vectorIS4_SaIS4_EEEES5_ET0_T_SB_SA_St11__true_type.eh
__ZSt24__uninitialized_copy_auxIN9__gnu_cxx17__normal_iteratorIPPK10ConnectionSt6vectorIS4_SaIS4_EEEES5_ET0_T_SB_SA_St11__true_type.eh:
LSFDE373:
	.set L$set$2433,LEFDE373-LASFDE373
	.long L$set$2433
LASFDE373:
	.long	LASFDE373-EH_frame1
	.quad	LFB2442-.
	.set L$set$2434,LFE2442-LFB2442
	.quad L$set$2434
	.byte	0x8
	.quad	0x0
	.byte	0x4
	.set L$set$2435,LCFI498-LFB2442
	.long L$set$2435
	.byte	0xe
	.byte	0x10
	.byte	0x86
	.byte	0x2
	.byte	0x4
	.set L$set$2436,LCFI499-LCFI498
	.long L$set$2436
	.byte	0xd
	.byte	0x6
	.align 3
LEFDE373:
.globl __ZSt18uninitialized_copyIN9__gnu_cxx17__normal_iteratorIPPK10ConnectionSt6vectorIS4_SaIS4_EEEES5_ET0_T_SB_SA_.eh
	.weak_definition __ZSt18uninitialized_copyIN9__gnu_cxx17__normal_iteratorIPPK10ConnectionSt6vectorIS4_SaIS4_EEEES5_ET0_T_SB_SA_.eh
__ZSt18uninitialized_copyIN9__gnu_cxx17__normal_iteratorIPPK10ConnectionSt6vectorIS4_SaIS4_EEEES5_ET0_T_SB_SA_.eh:
LSFDE375:
	.set L$set$2437,LEFDE375-LASFDE375
	.long L$set$2437
LASFDE375:
	.long	LASFDE375-EH_frame1
	.quad	LFB2435-.
	.set L$set$2438,LFE2435-LFB2435
	.quad L$set$2438
	.byte	0x8
	.quad	0x0
	.byte	0x4
	.set L$set$2439,LCFI501-LFB2435
	.long L$set$2439
	.byte	0xe
	.byte	0x10
	.byte	0x86
	.byte	0x2
	.byte	0x4
	.set L$set$2440,LCFI502-LCFI501
	.long L$set$2440
	.byte	0xd
	.byte	0x6
	.align 3
LEFDE375:
.globl __ZSt22__uninitialized_copy_aIN9__gnu_cxx17__normal_iteratorIPPK10ConnectionSt6vectorIS4_SaIS4_EEEES5_S4_ET0_T_SB_SA_SaIT1_E.eh
	.weak_definition __ZSt22__uninitialized_copy_aIN9__gnu_cxx17__normal_iteratorIPPK10ConnectionSt6vectorIS4_SaIS4_EEEES5_S4_ET0_T_SB_SA_SaIT1_E.eh
__ZSt22__uninitialized_copy_aIN9__gnu_cxx17__normal_iteratorIPPK10ConnectionSt6vectorIS4_SaIS4_EEEES5_S4_ET0_T_SB_SA_SaIT1_E.eh:
LSFDE377:
	.set L$set$2441,LEFDE377-LASFDE377
	.long L$set$2441
LASFDE377:
	.long	LASFDE377-EH_frame1
	.quad	LFB2412-.
	.set L$set$2442,LFE2412-LFB2412
	.quad L$set$2442
	.byte	0x8
	.quad	0x0
	.byte	0x4
	.set L$set$2443,LCFI504-LFB2412
	.long L$set$2443
	.byte	0xe
	.byte	0x10
	.byte	0x86
	.byte	0x2
	.byte	0x4
	.set L$set$2444,LCFI505-LCFI504
	.long L$set$2444
	.byte	0xd
	.byte	0x6
	.align 3
LEFDE377:
.globl __ZNSt13__copy_normalILb0ELb0EE8__copy_nIPPK10ConnectionS5_EET0_T_S7_S6_.eh
	.weak_definition __ZNSt13__copy_normalILb0ELb0EE8__copy_nIPPK10ConnectionS5_EET0_T_S7_S6_.eh
__ZNSt13__copy_normalILb0ELb0EE8__copy_nIPPK10ConnectionS5_EET0_T_S7_S6_.eh:
LSFDE379:
	.set L$set$2445,LEFDE379-LASFDE379
	.long L$set$2445
LASFDE379:
	.long	LASFDE379-EH_frame1
	.quad	LFB2345-.
	.set L$set$2446,LFE2345-LFB2345
	.quad L$set$2446
	.byte	0x8
	.quad	0x0
	.byte	0x4
	.set L$set$2447,LCFI507-LFB2345
	.long L$set$2447
	.byte	0xe
	.byte	0x10
	.byte	0x86
	.byte	0x2
	.byte	0x4
	.set L$set$2448,LCFI508-LCFI507
	.long L$set$2448
	.byte	0xd
	.byte	0x6
	.align 3
LEFDE379:
.globl __ZSt4copyIPPK10ConnectionS3_ET0_T_S5_S4_.eh
	.weak_definition __ZSt4copyIPPK10ConnectionS3_ET0_T_S5_S4_.eh
__ZSt4copyIPPK10ConnectionS3_ET0_T_S5_S4_.eh:
LSFDE381:
	.set L$set$2449,LEFDE381-LASFDE381
	.long L$set$2449
LASFDE381:
	.long	LASFDE381-EH_frame1
	.quad	LFB2234-.
	.set L$set$2450,LFE2234-LFB2234
	.quad L$set$2450
	.byte	0x8
	.quad	0x0
	.byte	0x4
	.set L$set$2451,LCFI510-LFB2234
	.long L$set$2451
	.byte	0xe
	.byte	0x10
	.byte	0x86
	.byte	0x2
	.byte	0x4
	.set L$set$2452,LCFI511-LCFI510
	.long L$set$2452
	.byte	0xd
	.byte	0x6
	.align 3
LEFDE381:
.globl __ZSt24__uninitialized_copy_auxIPPK10ConnectionS3_ET0_T_S5_S4_St11__true_type.eh
	.weak_definition __ZSt24__uninitialized_copy_auxIPPK10ConnectionS3_ET0_T_S5_S4_St11__true_type.eh
__ZSt24__uninitialized_copy_auxIPPK10ConnectionS3_ET0_T_S5_S4_St11__true_type.eh:
LSFDE383:
	.set L$set$2453,LEFDE383-LASFDE383
	.long L$set$2453
LASFDE383:
	.long	LASFDE383-EH_frame1
	.quad	LFB2393-.
	.set L$set$2454,LFE2393-LFB2393
	.quad L$set$2454
	.byte	0x8
	.quad	0x0
	.byte	0x4
	.set L$set$2455,LCFI513-LFB2393
	.long L$set$2455
	.byte	0xe
	.byte	0x10
	.byte	0x86
	.byte	0x2
	.byte	0x4
	.set L$set$2456,LCFI514-LCFI513
	.long L$set$2456
	.byte	0xd
	.byte	0x6
	.align 3
LEFDE383:
.globl __ZSt18uninitialized_copyIPPK10ConnectionS3_ET0_T_S5_S4_.eh
	.weak_definition __ZSt18uninitialized_copyIPPK10ConnectionS3_ET0_T_S5_S4_.eh
__ZSt18uninitialized_copyIPPK10ConnectionS3_ET0_T_S5_S4_.eh:
LSFDE385:
	.set L$set$2457,LEFDE385-LASFDE385
	.long L$set$2457
LASFDE385:
	.long	LASFDE385-EH_frame1
	.quad	LFB2346-.
	.set L$set$2458,LFE2346-LFB2346
	.quad L$set$2458
	.byte	0x8
	.quad	0x0
	.byte	0x4
	.set L$set$2459,LCFI516-LFB2346
	.long L$set$2459
	.byte	0xe
	.byte	0x10
	.byte	0x86
	.byte	0x2
	.byte	0x4
	.set L$set$2460,LCFI517-LCFI516
	.long L$set$2460
	.byte	0xd
	.byte	0x6
	.align 3
LEFDE385:
.globl __ZSt22__uninitialized_copy_aIPPK10ConnectionS3_S2_ET0_T_S5_S4_SaIT1_E.eh
	.weak_definition __ZSt22__uninitialized_copy_aIPPK10ConnectionS3_S2_ET0_T_S5_S4_SaIT1_E.eh
__ZSt22__uninitialized_copy_aIPPK10ConnectionS3_S2_ET0_T_S5_S4_SaIT1_E.eh:
LSFDE387:
	.set L$set$2461,LEFDE387-LASFDE387
	.long L$set$2461
LASFDE387:
	.long	LASFDE387-EH_frame1
	.quad	LFB2235-.
	.set L$set$2462,LFE2235-LFB2235
	.quad L$set$2462
	.byte	0x8
	.quad	0x0
	.byte	0x4
	.set L$set$2463,LCFI519-LFB2235
	.long L$set$2463
	.byte	0xe
	.byte	0x10
	.byte	0x86
	.byte	0x2
	.byte	0x4
	.set L$set$2464,LCFI520-LCFI519
	.long L$set$2464
	.byte	0xd
	.byte	0x6
	.align 3
LEFDE387:
.globl __ZSt10__copy_auxIPKPK10ConnectionPS2_ET0_T_S7_S6_.eh
	.weak_definition __ZSt10__copy_auxIPKPK10ConnectionPS2_ET0_T_S7_S6_.eh
__ZSt10__copy_auxIPKPK10ConnectionPS2_ET0_T_S7_S6_.eh:
LSFDE389:
	.set L$set$2465,LEFDE389-LASFDE389
	.long L$set$2465
LASFDE389:
	.long	LASFDE389-EH_frame1
	.quad	LFB2390-.
	.set L$set$2466,LFE2390-LFB2390
	.quad L$set$2466
	.byte	0x8
	.quad	0x0
	.byte	0x4
	.set L$set$2467,LCFI522-LFB2390
	.long L$set$2467
	.byte	0xe
	.byte	0x10
	.byte	0x86
	.byte	0x2
	.byte	0x4
	.set L$set$2468,LCFI523-LCFI522
	.long L$set$2468
	.byte	0xd
	.byte	0x6
	.align 3
LEFDE389:
.globl __ZNSt13__copy_normalILb1ELb0EE8__copy_nIN9__gnu_cxx17__normal_iteratorIPKPK10ConnectionSt6vectorIS6_SaIS6_EEEEPS6_EET0_T_SF_SE_.eh
	.weak_definition __ZNSt13__copy_normalILb1ELb0EE8__copy_nIN9__gnu_cxx17__normal_iteratorIPKPK10ConnectionSt6vectorIS6_SaIS6_EEEEPS6_EET0_T_SF_SE_.eh
__ZNSt13__copy_normalILb1ELb0EE8__copy_nIN9__gnu_cxx17__normal_iteratorIPKPK10ConnectionSt6vectorIS6_SaIS6_EEEEPS6_EET0_T_SF_SE_.eh:
LSFDE391:
	.set L$set$2469,LEFDE391-LASFDE391
	.long L$set$2469
LASFDE391:
	.long	LASFDE391-EH_frame1
	.quad	LFB2437-.
	.set L$set$2470,LFE2437-LFB2437
	.quad L$set$2470
	.byte	0x8
	.quad	0x0
	.byte	0x4
	.set L$set$2471,LCFI525-LFB2437
	.long L$set$2471
	.byte	0xe
	.byte	0x10
	.byte	0x86
	.byte	0x2
	.byte	0x4
	.set L$set$2472,LCFI526-LCFI525
	.long L$set$2472
	.byte	0xd
	.byte	0x6
	.byte	0x4
	.set L$set$2473,LCFI528-LCFI526
	.long L$set$2473
	.byte	0x83
	.byte	0x3
	.align 3
LEFDE391:
.globl __ZSt4copyIN9__gnu_cxx17__normal_iteratorIPKPK10ConnectionSt6vectorIS4_SaIS4_EEEEPS4_ET0_T_SD_SC_.eh
	.weak_definition __ZSt4copyIN9__gnu_cxx17__normal_iteratorIPKPK10ConnectionSt6vectorIS4_SaIS4_EEEEPS4_ET0_T_SD_SC_.eh
__ZSt4copyIN9__gnu_cxx17__normal_iteratorIPKPK10ConnectionSt6vectorIS4_SaIS4_EEEEPS4_ET0_T_SD_SC_.eh:
LSFDE393:
	.set L$set$2474,LEFDE393-LASFDE393
	.long L$set$2474
LASFDE393:
	.long	LASFDE393-EH_frame1
	.quad	LFB2425-.
	.set L$set$2475,LFE2425-LFB2425
	.quad L$set$2475
	.byte	0x8
	.quad	0x0
	.byte	0x4
	.set L$set$2476,LCFI529-LFB2425
	.long L$set$2476
	.byte	0xe
	.byte	0x10
	.byte	0x86
	.byte	0x2
	.byte	0x4
	.set L$set$2477,LCFI530-LCFI529
	.long L$set$2477
	.byte	0xd
	.byte	0x6
	.align 3
LEFDE393:
.globl __ZSt24__uninitialized_copy_auxIN9__gnu_cxx17__normal_iteratorIPKPK10ConnectionSt6vectorIS4_SaIS4_EEEEPS4_ET0_T_SD_SC_St11__true_type.eh
	.weak_definition __ZSt24__uninitialized_copy_auxIN9__gnu_cxx17__normal_iteratorIPKPK10ConnectionSt6vectorIS4_SaIS4_EEEEPS4_ET0_T_SD_SC_St11__true_type.eh
__ZSt24__uninitialized_copy_auxIN9__gnu_cxx17__normal_iteratorIPKPK10ConnectionSt6vectorIS4_SaIS4_EEEEPS4_ET0_T_SD_SC_St11__true_type.eh:
LSFDE395:
	.set L$set$2478,LEFDE395-LASFDE395
	.long L$set$2478
LASFDE395:
	.long	LASFDE395-EH_frame1
	.quad	LFB2388-.
	.set L$set$2479,LFE2388-LFB2388
	.quad L$set$2479
	.byte	0x8
	.quad	0x0
	.byte	0x4
	.set L$set$2480,LCFI532-LFB2388
	.long L$set$2480
	.byte	0xe
	.byte	0x10
	.byte	0x86
	.byte	0x2
	.byte	0x4
	.set L$set$2481,LCFI533-LCFI532
	.long L$set$2481
	.byte	0xd
	.byte	0x6
	.align 3
LEFDE395:
.globl __ZSt18uninitialized_copyIN9__gnu_cxx17__normal_iteratorIPKPK10ConnectionSt6vectorIS4_SaIS4_EEEEPS4_ET0_T_SD_SC_.eh
	.weak_definition __ZSt18uninitialized_copyIN9__gnu_cxx17__normal_iteratorIPKPK10ConnectionSt6vectorIS4_SaIS4_EEEEPS4_ET0_T_SD_SC_.eh
__ZSt18uninitialized_copyIN9__gnu_cxx17__normal_iteratorIPKPK10ConnectionSt6vectorIS4_SaIS4_EEEEPS4_ET0_T_SD_SC_.eh:
LSFDE397:
	.set L$set$2482,LEFDE397-LASFDE397
	.long L$set$2482
LASFDE397:
	.long	LASFDE397-EH_frame1
	.quad	LFB2341-.
	.set L$set$2483,LFE2341-LFB2341
	.quad L$set$2483
	.byte	0x8
	.quad	0x0
	.byte	0x4
	.set L$set$2484,LCFI535-LFB2341
	.long L$set$2484
	.byte	0xe
	.byte	0x10
	.byte	0x86
	.byte	0x2
	.byte	0x4
	.set L$set$2485,LCFI536-LCFI535
	.long L$set$2485
	.byte	0xd
	.byte	0x6
	.align 3
LEFDE397:
.globl __ZSt22__uninitialized_copy_aIN9__gnu_cxx17__normal_iteratorIPKPK10ConnectionSt6vectorIS4_SaIS4_EEEEPS4_S4_ET0_T_SD_SC_SaIT1_E.eh
	.weak_definition __ZSt22__uninitialized_copy_aIN9__gnu_cxx17__normal_iteratorIPKPK10ConnectionSt6vectorIS4_SaIS4_EEEEPS4_S4_ET0_T_SD_SC_SaIT1_E.eh
__ZSt22__uninitialized_copy_aIN9__gnu_cxx17__normal_iteratorIPKPK10ConnectionSt6vectorIS4_SaIS4_EEEEPS4_S4_ET0_T_SD_SC_SaIT1_E.eh:
LSFDE399:
	.set L$set$2486,LEFDE399-LASFDE399
	.long L$set$2486
LASFDE399:
	.long	LASFDE399-EH_frame1
	.quad	LFB2227-.
	.set L$set$2487,LFE2227-LFB2227
	.quad L$set$2487
	.byte	0x8
	.quad	0x0
	.byte	0x4
	.set L$set$2488,LCFI538-LFB2227
	.long L$set$2488
	.byte	0xe
	.byte	0x10
	.byte	0x86
	.byte	0x2
	.byte	0x4
	.set L$set$2489,LCFI539-LCFI538
	.long L$set$2489
	.byte	0xd
	.byte	0x6
	.align 3
LEFDE399:
.globl __ZNSt13__copy_normalILb1ELb1EE8__copy_nIN9__gnu_cxx17__normal_iteratorIPKPK10ConnectionSt6vectorIS6_SaIS6_EEEENS3_IPS6_SB_EEEET0_T_SG_SF_.eh
	.weak_definition __ZNSt13__copy_normalILb1ELb1EE8__copy_nIN9__gnu_cxx17__normal_iteratorIPKPK10ConnectionSt6vectorIS6_SaIS6_EEEENS3_IPS6_SB_EEEET0_T_SG_SF_.eh
__ZNSt13__copy_normalILb1ELb1EE8__copy_nIN9__gnu_cxx17__normal_iteratorIPKPK10ConnectionSt6vectorIS6_SaIS6_EEEENS3_IPS6_SB_EEEET0_T_SG_SF_.eh:
LSFDE401:
	.set L$set$2490,LEFDE401-LASFDE401
	.long L$set$2490
LASFDE401:
	.long	LASFDE401-EH_frame1
	.quad	LFB2343-.
	.set L$set$2491,LFE2343-LFB2343
	.quad L$set$2491
	.byte	0x8
	.quad	0x0
	.byte	0x4
	.set L$set$2492,LCFI541-LFB2343
	.long L$set$2492
	.byte	0xe
	.byte	0x10
	.byte	0x86
	.byte	0x2
	.byte	0x4
	.set L$set$2493,LCFI542-LCFI541
	.long L$set$2493
	.byte	0xd
	.byte	0x6
	.byte	0x4
	.set L$set$2494,LCFI545-LCFI542
	.long L$set$2494
	.byte	0x83
	.byte	0x4
	.byte	0x8c
	.byte	0x3
	.align 3
LEFDE401:
.globl __ZSt4copyIN9__gnu_cxx17__normal_iteratorIPKPK10ConnectionSt6vectorIS4_SaIS4_EEEENS1_IPS4_S9_EEET0_T_SE_SD_.eh
	.weak_definition __ZSt4copyIN9__gnu_cxx17__normal_iteratorIPKPK10ConnectionSt6vectorIS4_SaIS4_EEEENS1_IPS4_S9_EEET0_T_SE_SD_.eh
__ZSt4copyIN9__gnu_cxx17__normal_iteratorIPKPK10ConnectionSt6vectorIS4_SaIS4_EEEENS1_IPS4_S9_EEET0_T_SE_SD_.eh:
LSFDE403:
	.set L$set$2495,LEFDE403-LASFDE403
	.long L$set$2495
LASFDE403:
	.long	LASFDE403-EH_frame1
	.quad	LFB2232-.
	.set L$set$2496,LFE2232-LFB2232
	.quad L$set$2496
	.byte	0x8
	.quad	0x0
	.byte	0x4
	.set L$set$2497,LCFI546-LFB2232
	.long L$set$2497
	.byte	0xe
	.byte	0x10
	.byte	0x86
	.byte	0x2
	.byte	0x4
	.set L$set$2498,LCFI547-LCFI546
	.long L$set$2498
	.byte	0xd
	.byte	0x6
	.align 3
LEFDE403:
.globl __ZNSt15__copy_backwardILb1ESt26random_access_iterator_tagE8__copy_bIPK10CoordinateEEPT_PKS6_S9_S7_.eh
	.weak_definition __ZNSt15__copy_backwardILb1ESt26random_access_iterator_tagE8__copy_bIPK10CoordinateEEPT_PKS6_S9_S7_.eh
__ZNSt15__copy_backwardILb1ESt26random_access_iterator_tagE8__copy_bIPK10CoordinateEEPT_PKS6_S9_S7_.eh:
LSFDE405:
	.set L$set$2499,LEFDE405-LASFDE405
	.long L$set$2499
LASFDE405:
	.long	LASFDE405-EH_frame1
	.quad	LFB2438-.
	.set L$set$2500,LFE2438-LFB2438
	.quad L$set$2500
	.byte	0x8
	.quad	0x0
	.byte	0x4
	.set L$set$2501,LCFI549-LFB2438
	.long L$set$2501
	.byte	0xe
	.byte	0x10
	.byte	0x86
	.byte	0x2
	.byte	0x4
	.set L$set$2502,LCFI550-LCFI549
	.long L$set$2502
	.byte	0xd
	.byte	0x6
	.align 3
LEFDE405:
.globl __ZSt19__copy_backward_auxIPPK10CoordinateS3_ET0_T_S5_S4_.eh
	.weak_definition __ZSt19__copy_backward_auxIPPK10CoordinateS3_ET0_T_S5_S4_.eh
__ZSt19__copy_backward_auxIPPK10CoordinateS3_ET0_T_S5_S4_.eh:
LSFDE407:
	.set L$set$2503,LEFDE407-LASFDE407
	.long L$set$2503
LASFDE407:
	.long	LASFDE407-EH_frame1
	.quad	LFB2427-.
	.set L$set$2504,LFE2427-LFB2427
	.quad L$set$2504
	.byte	0x8
	.quad	0x0
	.byte	0x4
	.set L$set$2505,LCFI552-LFB2427
	.long L$set$2505
	.byte	0xe
	.byte	0x10
	.byte	0x86
	.byte	0x2
	.byte	0x4
	.set L$set$2506,LCFI553-LCFI552
	.long L$set$2506
	.byte	0xd
	.byte	0x6
	.align 3
LEFDE407:
.globl __ZNSt22__copy_backward_normalILb0ELb0EE10__copy_b_nIPPK10CoordinateS5_EET0_T_S7_S6_.eh
	.weak_definition __ZNSt22__copy_backward_normalILb0ELb0EE10__copy_b_nIPPK10CoordinateS5_EET0_T_S7_S6_.eh
__ZNSt22__copy_backward_normalILb0ELb0EE10__copy_b_nIPPK10CoordinateS5_EET0_T_S7_S6_.eh:
LSFDE409:
	.set L$set$2507,LEFDE409-LASFDE409
	.long L$set$2507
LASFDE409:
	.long	LASFDE409-EH_frame1
	.quad	LFB2395-.
	.set L$set$2508,LFE2395-LFB2395
	.quad L$set$2508
	.byte	0x8
	.quad	0x0
	.byte	0x4
	.set L$set$2509,LCFI555-LFB2395
	.long L$set$2509
	.byte	0xe
	.byte	0x10
	.byte	0x86
	.byte	0x2
	.byte	0x4
	.set L$set$2510,LCFI556-LCFI555
	.long L$set$2510
	.byte	0xd
	.byte	0x6
	.align 3
LEFDE409:
.globl __ZSt13copy_backwardIPPK10CoordinateS3_ET0_T_S5_S4_.eh
	.weak_definition __ZSt13copy_backwardIPPK10CoordinateS3_ET0_T_S5_S4_.eh
__ZSt13copy_backwardIPPK10CoordinateS3_ET0_T_S5_S4_.eh:
LSFDE411:
	.set L$set$2511,LEFDE411-LASFDE411
	.long L$set$2511
LASFDE411:
	.long	LASFDE411-EH_frame1
	.quad	LFB2351-.
	.set L$set$2512,LFE2351-LFB2351
	.quad L$set$2512
	.byte	0x8
	.quad	0x0
	.byte	0x4
	.set L$set$2513,LCFI558-LFB2351
	.long L$set$2513
	.byte	0xe
	.byte	0x10
	.byte	0x86
	.byte	0x2
	.byte	0x4
	.set L$set$2514,LCFI559-LCFI558
	.long L$set$2514
	.byte	0xd
	.byte	0x6
	.align 3
LEFDE411:
.globl __ZNSt6__copyILb1ESt26random_access_iterator_tagE4copyIPK10CoordinateEEPT_PKS6_S9_S7_.eh
	.weak_definition __ZNSt6__copyILb1ESt26random_access_iterator_tagE4copyIPK10CoordinateEEPT_PKS6_S9_S7_.eh
__ZNSt6__copyILb1ESt26random_access_iterator_tagE4copyIPK10CoordinateEEPT_PKS6_S9_S7_.eh:
LSFDE413:
	.set L$set$2515,LEFDE413-LASFDE413
	.long L$set$2515
LASFDE413:
	.long	LASFDE413-EH_frame1
	.quad	LFB2429-.
	.set L$set$2516,LFE2429-LFB2429
	.quad L$set$2516
	.byte	0x8
	.quad	0x0
	.byte	0x4
	.set L$set$2517,LCFI561-LFB2429
	.long L$set$2517
	.byte	0xe
	.byte	0x10
	.byte	0x86
	.byte	0x2
	.byte	0x4
	.set L$set$2518,LCFI562-LCFI561
	.long L$set$2518
	.byte	0xd
	.byte	0x6
	.align 3
LEFDE413:
.globl __ZSt10__copy_auxIPPK10CoordinateS3_ET0_T_S5_S4_.eh
	.weak_definition __ZSt10__copy_auxIPPK10CoordinateS3_ET0_T_S5_S4_.eh
__ZSt10__copy_auxIPPK10CoordinateS3_ET0_T_S5_S4_.eh:
LSFDE415:
	.set L$set$2519,LEFDE415-LASFDE415
	.long L$set$2519
LASFDE415:
	.long	LASFDE415-EH_frame1
	.quad	LFB2403-.
	.set L$set$2520,LFE2403-LFB2403
	.quad L$set$2520
	.byte	0x8
	.quad	0x0
	.byte	0x4
	.set L$set$2521,LCFI564-LFB2403
	.long L$set$2521
	.byte	0xe
	.byte	0x10
	.byte	0x86
	.byte	0x2
	.byte	0x4
	.set L$set$2522,LCFI565-LCFI564
	.long L$set$2522
